 node_printer

 Timestamp is 591a17d4 (Mon May 15 17:04:20 2017)

 Preferred load address is 0000000180000000

 Start         Length     Name                   Class
 0001:00000000 00000070H .text$di                CODE
 0001:00000070 00026600H .text$mn                CODE
 0001:00026670 00000020H .text$mn$00             CODE
 0001:00026690 000003e0H .text$x                 CODE
 0001:00026a70 000002bcH .text$yd                CODE
 0002:00000000 00000328H .idata$5                DATA
 0002:00000328 00000010H .00cfg                  DATA
 0002:00000338 00000008H .CRT$XCA                DATA
 0002:00000340 00000018H .CRT$XCC                DATA
 0002:00000358 00000010H .CRT$XCL                DATA
 0002:00000368 00000008H .CRT$XCU                DATA
 0002:00000370 00000008H .CRT$XCZ                DATA
 0002:00000378 00000008H .CRT$XIA                DATA
 0002:00000380 00000030H .CRT$XIC                DATA
 0002:000003b0 00000008H .CRT$XIZ                DATA
 0002:000003b8 00000008H .CRT$XLA                DATA
 0002:000003c0 00000008H .CRT$XLZ                DATA
 0002:000003c8 00000008H .CRT$XPA                DATA
 0002:000003d0 00000010H .CRT$XPX                DATA
 0002:000003e0 00000008H .CRT$XPXA               DATA
 0002:000003e8 00000008H .CRT$XPZ                DATA
 0002:000003f0 00000008H .CRT$XTA                DATA
 0002:000003f8 00000008H .CRT$XTZ                DATA
 0002:00000400 000102c8H .rdata                  DATA
 0002:000106c8 00000028H .rdata$T                DATA
 0002:000106f0 00000884H .rdata$r                DATA
 0002:00010f74 000004a4H .rdata$zzzdbg           DATA
 0002:00011418 00000008H .rtc$IAA                DATA
 0002:00011420 00000008H .rtc$IZZ                DATA
 0002:00011428 00000008H .rtc$TAA                DATA
 0002:00011430 00000010H .rtc$TZZ                DATA
 0002:00011440 00001e30H .xdata                  DATA
 0002:00013270 00000244H .xdata$x                DATA
 0002:000134b4 00000020H .didat$2                DATA
 0002:000134d4 00000024H .didat$3                DATA
 0002:000134f8 000000e0H .didat$4                DATA
 0002:000135d8 00000630H .didat$6                DATA
 0002:00013c08 000000e8H .didat$7                DATA
 0002:00013cf0 0000005cH .edata                  DATA
 0002:00013d4c 00000028H .idata$2                DATA
 0002:00013d74 00000014H .idata$3                DATA
 0002:00013d88 00000328H .idata$4                DATA
 0002:000140b0 0000071aH .idata$6                DATA
 0003:00000000 00000a60H .data                   DATA
 0003:00000a60 000002f0H .data$r                 DATA
 0003:00000d50 000000e0H .didat$5                DATA
 0003:00000e30 000018a4H .bss                    DATA
 0004:00000000 00002130H .pdata                  DATA
 0005:00000000 000000b4H .gfids$x                DATA
 0005:000000b4 00000128H .gfids$y                DATA
 0006:00000000 00000004H .tls                    DATA
 0006:00000004 00000004H .tls$                   DATA
 0006:00000008 00000001H .tls$ZZZ                DATA
 0007:00000000 00000060H .rsrc$01                DATA
 0007:00000060 00000180H .rsrc$02                DATA

  Address         Publics by Value              Rva+Base               Lib:Object

 0000:00000000       __guard_iat_count          0000000000000000     <absolute>
 0000:00000000       __dynamic_value_reloc_table 0000000000000000     <absolute>
 0000:00000000       __guard_iat_table          0000000000000000     <absolute>
 0000:00000000       __guard_longjmp_table      0000000000000000     <absolute>
 0000:00000000       __guard_longjmp_count      0000000000000000     <absolute>
 0000:00000000       __guard_fids_count         0000000000000000     <absolute>
 0000:00000000       ___safe_se_handler_table   0000000000000000     <absolute>
 0000:00000000       ___safe_se_handler_count   0000000000000000     <absolute>
 0000:00000000       __guard_fids_table         0000000000000000     <absolute>
 0000:00000100       __guard_flags              0000000000000100     <absolute>
 0000:00000000       __ImageBase                0000000180000000     <linker-defined>
 0001:00000070       ?NODE_SET_METHOD@node@@YAXV?$Local@VObject@v8@@@v8@@PEBDP6AXAEBV?$FunctionCallbackInfo@VValue@v8@@@3@@Z@Z 0000000180001070 f i node_printer.obj
 0001:00000140       ?initNode@@YAXV?$Local@VObject@v8@@@v8@@@Z 0000000180001140 f   node_printer.obj
 0001:00000250       ?getStringOrBufferFromV8Value@@YA_NV?$Local@VValue@v8@@@v8@@AEAV?$basic_string@DU?$char_traits@D@std@@V?$allocator@D@2@@std@@@Z 0000000180001250 f   node_printer.obj
 0001:00000330       ?assign@?$basic_string@DU?$char_traits@D@std@@V?$allocator@D@2@@std@@QEAAAEAV12@PEBD_K@Z 0000000180001330 f i node_printer.obj
 0001:00000460       ?assign@?$basic_string@DU?$char_traits@D@std@@V?$allocator@D@2@@std@@QEAAAEAV12@AEBV12@_K1@Z 0000000180001460 f i node_printer.obj
 0001:00000590       ?_Copy@?$basic_string@DU?$char_traits@D@std@@V?$allocator@D@2@@std@@QEAAX_K0@Z 0000000180001590 f i node_printer.obj
 0001:00000710       ?erase@?$basic_string@DU?$char_traits@D@std@@V?$allocator@D@2@@std@@QEAAAEAV12@_K0@Z 0000000180001710 f i node_printer.obj
 0001:000007e0       ?deallocate@?$allocator@D@std@@QEAAXPEAD_K@Z 00000001800017e0 f i node_printer.obj
 0001:00000840       ?allocate@?$allocator@D@std@@QEAAPEAD_K@Z 0000000180001840 f i node_printer.obj
 0001:000008a0       __local_stdio_printf_options 00000001800018a0 f i node_printer_win.obj
 0001:000008b0       sprintf_s                  00000001800018b0 f i node_printer_win.obj
 0001:00000910       ?what@exception@stdext@@UEBAPEBDXZ 0000000180001910 f i node_printer_win.obj
 0001:00000930       ?_Unlock@?$basic_streambuf@DU?$char_traits@D@std@@@std@@UEAAXXZ 0000000180001930 f i node_printer_win.obj
 0001:00000930       ?_Doraise@exception@stdext@@MEBAXXZ 0000000180001930 f i node_printer_win.obj
 0001:00000930       __except_validate_context_record 0000000180001930 f i libvcruntime:jbcxrval.obj
 0001:00000930       ??$destroy@PEAU?$_Tree_node@U?$pair@$$CBV?$basic_string@DU?$char_traits@D@std@@V?$allocator@D@2@@std@@K@std@@PEAX@std@@@?$_Wrap_alloc@V?$allocator@U?$_Tree_node@U?$pair@$$CBV?$basic_string@DU?$char_traits@D@std@@V?$allocator@D@2@@std@@K@std@@PEAX@std@@@std@@@std@@QEAAXPEAPEAU?$_Tree_node@U?$pair@$$CBV?$basic_string@DU?$char_traits@D@std@@V?$allocator@D@2@@std@@K@std@@PEAX@1@@Z 0000000180001930 f i node_printer_win.obj
 0001:00000930       ?_Lock@?$basic_streambuf@DU?$char_traits@D@std@@@std@@UEAAXXZ 0000000180001930 f i node_printer_win.obj
 0001:00000930       _guard_check_icall_nop     0000000180001930 f i LIBCMT:guard_support.obj
 0001:00000930       ?imbue@?$basic_streambuf@DU?$char_traits@D@std@@@std@@MEAAXAEBVlocale@2@@Z 0000000180001930 f i node_printer_win.obj
 0001:00000940       ??_Eexception@stdext@@UEAAPEAXI@Z 0000000180001940 f i * CIL library *:* CIL module *
 0001:00000940       ??_Eruntime_error@std@@UEAAPEAXI@Z 0000000180001940 f i * CIL library *:* CIL module *
 0001:00000940       ??_Gexception@stdext@@UEAAPEAXI@Z 0000000180001940 f i node_printer_win.obj
 0001:00000940       ??_Gruntime_error@std@@UEAAPEAXI@Z 0000000180001940 f i node_printer_win.obj
 0001:00000970       ?_Doraise@failure@ios_base@std@@MEBAXXZ 0000000180001970 f i node_printer_win.obj
 0001:00000970       ?_Doraise@runtime_error@std@@MEBAXXZ 0000000180001970 f i node_printer_win.obj
 0001:00000990       ??0_Locinfo@std@@QEAA@PEBD@Z 0000000180001990 f i node_printer_win.obj
 0001:00000a50       ??1_Locinfo@std@@QEAA@XZ   0000000180001a50 f i node_printer_win.obj
 0001:00000af0       ??_G_Facet_base@std@@UEAAPEAXI@Z 0000000180001af0 f i node_printer_win.obj
 0001:00000af0       ??_E_Facet_base@std@@UEAAPEAXI@Z 0000000180001af0 f i * CIL library *:* CIL module *
 0001:00000b20       ?_Incref@facet@locale@std@@UEAAXXZ 0000000180001b20 f i node_printer_win.obj
 0001:00000b30       ?_Decref@facet@locale@std@@UEAAPEAV_Facet_base@3@XZ 0000000180001b30 f i node_printer_win.obj
 0001:00000b40       ?_Getcat@?$ctype@D@std@@SA_KPEAPEBVfacet@locale@2@PEBV42@@Z 0000000180001b40 f i node_printer_win.obj
 0001:00000c00       ?do_tolower@?$ctype@D@std@@MEBADD@Z 0000000180001c00 f i node_printer_win.obj
 0001:00000c10       ?do_tolower@?$ctype@D@std@@MEBAPEBDPEADPEBD@Z 0000000180001c10 f i node_printer_win.obj
 0001:00000c70       ?do_toupper@?$ctype@D@std@@MEBADD@Z 0000000180001c70 f i node_printer_win.obj
 0001:00000c80       ?do_toupper@?$ctype@D@std@@MEBAPEBDPEADPEBD@Z 0000000180001c80 f i node_printer_win.obj
 0001:00000ce0       ?do_narrow@?$ctype@D@std@@MEBADDD@Z 0000000180001ce0 f i node_printer_win.obj
 0001:00000ce0       ?do_widen@?$ctype@D@std@@MEBADD@Z 0000000180001ce0 f i node_printer_win.obj
 0001:00000cf0       ?do_widen@?$ctype@D@std@@MEBAPEBDPEBD0PEAD@Z 0000000180001cf0 f i node_printer_win.obj
 0001:00000d10       ?do_narrow@?$ctype@D@std@@MEBAPEBDPEBD0DPEAD@Z 0000000180001d10 f i node_printer_win.obj
 0001:00000d30       ??_G?$ctype@D@std@@MEAAPEAXI@Z 0000000180001d30 f i node_printer_win.obj
 0001:00000d30       ??_E?$ctype@D@std@@MEAAPEAXI@Z 0000000180001d30 f i * CIL library *:* CIL module *
 0001:00000da0       ??_E_Iostream_error_category@std@@UEAAPEAXI@Z 0000000180001da0 f i * CIL library *:* CIL module *
 0001:00000da0       ??_Gerror_category@std@@UEAAPEAXI@Z 0000000180001da0 f i node_printer_win.obj
 0001:00000da0       ??_G_Iostream_error_category@std@@UEAAPEAXI@Z 0000000180001da0 f i node_printer_win.obj
 0001:00000da0       ??_Eerror_category@std@@UEAAPEAXI@Z 0000000180001da0 f i * CIL library *:* CIL module *
 0001:00000dd0       ?default_error_condition@error_category@std@@UEBA?AVerror_condition@2@H@Z 0000000180001dd0 f i node_printer_win.obj
 0001:00000de0       ?equivalent@error_category@std@@UEBA_NHAEBVerror_condition@2@@Z 0000000180001de0 f i node_printer_win.obj
 0001:00000e00       ?equivalent@error_category@std@@UEBA_NAEBVerror_code@2@H@Z 0000000180001e00 f i node_printer_win.obj
 0001:00000e20       ??0_System_error@std@@IEAA@Verror_code@1@AEBV?$basic_string@DU?$char_traits@D@std@@V?$allocator@D@2@@1@@Z 0000000180001e20 f i node_printer_win.obj
 0001:00001030       ??_G_System_error@std@@UEAAPEAXI@Z 0000000180002030 f i node_printer_win.obj
 0001:00001030       ??_Efailure@ios_base@std@@UEAAPEAXI@Z 0000000180002030 f i * CIL library *:* CIL module *
 0001:00001030       ??_E_System_error@std@@UEAAPEAXI@Z 0000000180002030 f i * CIL library *:* CIL module *
 0001:00001030       ??_Gfailure@ios_base@std@@UEAAPEAXI@Z 0000000180002030 f i node_printer_win.obj
 0001:00001060       ?name@_Iostream_error_category@std@@UEBAPEBDXZ 0000000180002060 f i node_printer_win.obj
 0001:00001070       ?message@_Iostream_error_category@std@@UEBA?AV?$basic_string@DU?$char_traits@D@std@@V?$allocator@D@2@@2@H@Z 0000000180002070 f i node_printer_win.obj
 0001:000010f0       ?clear@ios_base@std@@QEAAXH_N@Z 00000001800020f0 f i node_printer_win.obj
 0001:00001460       ??_Eios_base@std@@UEAAPEAXI@Z 0000000180002460 f i * CIL library *:* CIL module *
 0001:00001460       ??_Gios_base@std@@UEAAPEAXI@Z 0000000180002460 f i node_printer_win.obj
 0001:00003f50       ?getPrinters@@YAXAEBV?$FunctionCallbackInfo@VValue@v8@@@v8@@@Z 0000000180004f50 f   node_printer_win.obj
 0001:000043f0       ?getDefaultPrinterName@@YAXAEBV?$FunctionCallbackInfo@VValue@v8@@@v8@@@Z 00000001800053f0 f   node_printer_win.obj
 0001:00004510       ?getPrinter@@YAXAEBV?$FunctionCallbackInfo@VValue@v8@@@v8@@@Z 0000000180005510 f   node_printer_win.obj
 0001:00004900       ?getPrinterDriverOptions@@YAXAEBV?$FunctionCallbackInfo@VValue@v8@@@v8@@@Z 0000000180005900 f   node_printer_win.obj
 0001:00004970       ?getJob@@YAXAEBV?$FunctionCallbackInfo@VValue@v8@@@v8@@@Z 0000000180005970 f   node_printer_win.obj
 0001:00004dc0       ?setJob@@YAXAEBV?$FunctionCallbackInfo@VValue@v8@@@v8@@@Z 0000000180005dc0 f   node_printer_win.obj
 0001:00005330       ?getSupportedJobCommands@@YAXAEBV?$FunctionCallbackInfo@VValue@v8@@@v8@@@Z 0000000180006330 f   node_printer_win.obj
 0001:00005460       ?getSupportedPrintFormats@@YAXAEBV?$FunctionCallbackInfo@VValue@v8@@@v8@@@Z 0000000180006460 f   node_printer_win.obj
 0001:00005960       ?PrintDirect@@YAXAEBV?$FunctionCallbackInfo@VValue@v8@@@v8@@@Z 0000000180006960 f   node_printer_win.obj
 0001:00005f40       ?PrintFile@@YAXAEBV?$FunctionCallbackInfo@VValue@v8@@@v8@@@Z 0000000180006f40 f   node_printer_win.obj
 0001:00005fb0       ??1?$basic_string@DU?$char_traits@D@std@@V?$allocator@D@2@@std@@QEAA@XZ 0000000180006fb0 f i node_printer_win.obj
 0001:00006040       ??1?$basic_ostringstream@DU?$char_traits@D@std@@V?$allocator@D@2@@std@@UEAA@XZ 0000000180007040 f i node_printer_win.obj
 0001:00006120       ?seekpos@?$basic_stringbuf@DU?$char_traits@D@std@@V?$allocator@D@2@@std@@MEAA?AV?$fpos@U_Mbstatet@@@2@V32@H@Z 0000000180007120 f i node_printer_win.obj
 0001:00006230       ?seekoff@?$basic_stringbuf@DU?$char_traits@D@std@@V?$allocator@D@2@@std@@MEAA?AV?$fpos@U_Mbstatet@@@2@_JHH@Z 0000000180007230 f i node_printer_win.obj
 0001:000063c0       ?underflow@?$basic_stringbuf@DU?$char_traits@D@std@@V?$allocator@D@2@@std@@MEAAHXZ 00000001800073c0 f i node_printer_win.obj
 0001:00006420       ?pbackfail@?$basic_stringbuf@DU?$char_traits@D@std@@V?$allocator@D@2@@std@@MEAAHH@Z 0000000180007420 f i node_printer_win.obj
 0001:00006470       ?overflow@?$basic_stringbuf@DU?$char_traits@D@std@@V?$allocator@D@2@@std@@MEAAHH@Z 0000000180007470 f i node_printer_win.obj
 0001:000066e0       ??6?$basic_ostream@DU?$char_traits@D@std@@@std@@QEAAAEAV01@K@Z 00000001800076e0 f i node_printer_win.obj
 0001:000068c0       ?sync@?$basic_streambuf@DU?$char_traits@D@std@@@std@@MEAAHXZ 00000001800078c0 f i node_printer_win.obj
 0001:000068c0       ?showmanyc@?$basic_streambuf@DU?$char_traits@D@std@@@std@@MEAA_JXZ 00000001800078c0 f i node_printer_win.obj
 0001:000068d0       ?setbuf@?$basic_streambuf@DU?$char_traits@D@std@@@std@@MEAAPEAV12@PEAD_J@Z 00000001800078d0 f i node_printer_win.obj
 0001:000068e0       ?seekoff@?$basic_streambuf@DU?$char_traits@D@std@@@std@@MEAA?AV?$fpos@U_Mbstatet@@@2@_JHH@Z 00000001800078e0 f i node_printer_win.obj
 0001:000068e0       ?seekpos@?$basic_streambuf@DU?$char_traits@D@std@@@std@@MEAA?AV?$fpos@U_Mbstatet@@@2@V32@H@Z 00000001800078e0 f i node_printer_win.obj
 0001:00006900       ?xsputn@?$basic_streambuf@DU?$char_traits@D@std@@@std@@MEAA_JPEBD_J@Z 0000000180007900 f i node_printer_win.obj
 0001:000069c0       ?xsgetn@?$basic_streambuf@DU?$char_traits@D@std@@@std@@MEAA_JPEAD_J@Z 00000001800079c0 f i node_printer_win.obj
 0001:00006ac0       ?uflow@?$basic_streambuf@DU?$char_traits@D@std@@@std@@MEAAHXZ 0000000180007ac0 f i node_printer_win.obj
 0001:00006b00       ?underflow@?$basic_streambuf@DU?$char_traits@D@std@@@std@@MEAAHXZ 0000000180007b00 f i node_printer_win.obj
 0001:00006b00       ?pbackfail@?$basic_streambuf@DU?$char_traits@D@std@@@std@@MEAAHH@Z 0000000180007b00 f i node_printer_win.obj
 0001:00006b00       ?overflow@?$basic_streambuf@DU?$char_traits@D@std@@@std@@MEAAHH@Z 0000000180007b00 f i node_printer_win.obj
 0001:00006b10       ??_G?$basic_ostringstream@DU?$char_traits@D@std@@V?$allocator@D@2@@std@@UEAAPEAXI@Z 0000000180007b10 f i node_printer_win.obj
 0001:00006b10       ??_E?$basic_ostringstream@DU?$char_traits@D@std@@V?$allocator@D@2@@std@@UEAAPEAXI@Z 0000000180007b10 f i * CIL library *:* CIL module *
 0001:00006b60       ??_E?$basic_stringbuf@DU?$char_traits@D@std@@V?$allocator@D@2@@std@@UEAAPEAXI@Z 0000000180007b60 f i * CIL library *:* CIL module *
 0001:00006b60       ??_G?$basic_stringbuf@DU?$char_traits@D@std@@V?$allocator@D@2@@std@@UEAAPEAXI@Z 0000000180007b60 f i node_printer_win.obj
 0001:00006bf0       ??_E?$basic_ostream@DU?$char_traits@D@std@@@std@@UEAAPEAXI@Z 0000000180007bf0 f i * CIL library *:* CIL module *
 0001:00006bf0       ??_G?$basic_ostream@DU?$char_traits@D@std@@@std@@UEAAPEAXI@Z 0000000180007bf0 f i node_printer_win.obj
 0001:00006c60       ??_E?$basic_streambuf@DU?$char_traits@D@std@@@std@@UEAAPEAXI@Z 0000000180007c60 f i * CIL library *:* CIL module *
 0001:00006c60       ??_G?$basic_streambuf@DU?$char_traits@D@std@@@std@@UEAAPEAXI@Z 0000000180007c60 f i node_printer_win.obj
 0001:00006ce0       ??_Glocale@std@@QEAAPEAXI@Z 0000000180007ce0 f i node_printer_win.obj
 0001:00006d40       ??0sentry@?$basic_ostream@DU?$char_traits@D@std@@@std@@QEAA@AEAV12@@Z 0000000180007d40 f i node_printer_win.obj
 0001:00006dc0       ?do_put@?$num_put@DV?$ostreambuf_iterator@DU?$char_traits@D@std@@@std@@@std@@MEBA?AV?$ostreambuf_iterator@DU?$char_traits@D@std@@@2@V32@AEAVios_base@2@DPEBX@Z 0000000180007dc0 f i node_printer_win.obj
 0001:00006e60       ?do_put@?$num_put@DV?$ostreambuf_iterator@DU?$char_traits@D@std@@@std@@@std@@MEBA?AV?$ostreambuf_iterator@DU?$char_traits@D@std@@@2@V32@AEAVios_base@2@DO@Z 0000000180007e60 f i node_printer_win.obj
 0001:000070d0       ?do_put@?$num_put@DV?$ostreambuf_iterator@DU?$char_traits@D@std@@@std@@@std@@MEBA?AV?$ostreambuf_iterator@DU?$char_traits@D@std@@@2@V32@AEAVios_base@2@DN@Z 00000001800080d0 f i node_printer_win.obj
 0001:00007340       ?do_put@?$num_put@DV?$ostreambuf_iterator@DU?$char_traits@D@std@@@std@@@std@@MEBA?AV?$ostreambuf_iterator@DU?$char_traits@D@std@@@2@V32@AEAVios_base@2@D_K@Z 0000000180008340 f i node_printer_win.obj
 0001:00007440       ?do_put@?$num_put@DV?$ostreambuf_iterator@DU?$char_traits@D@std@@@std@@@std@@MEBA?AV?$ostreambuf_iterator@DU?$char_traits@D@std@@@2@V32@AEAVios_base@2@D_J@Z 0000000180008440 f i node_printer_win.obj
 0001:00007540       ?do_put@?$num_put@DV?$ostreambuf_iterator@DU?$char_traits@D@std@@@std@@@std@@MEBA?AV?$ostreambuf_iterator@DU?$char_traits@D@std@@@2@V32@AEAVios_base@2@DK@Z 0000000180008540 f i node_printer_win.obj
 0001:00007640       ?do_put@?$num_put@DV?$ostreambuf_iterator@DU?$char_traits@D@std@@@std@@@std@@MEBA?AV?$ostreambuf_iterator@DU?$char_traits@D@std@@@2@V32@AEAVios_base@2@DJ@Z 0000000180008640 f i node_printer_win.obj
 0001:00007740       ?do_put@?$num_put@DV?$ostreambuf_iterator@DU?$char_traits@D@std@@@std@@@std@@MEBA?AV?$ostreambuf_iterator@DU?$char_traits@D@std@@@2@V32@AEAVios_base@2@D_N@Z 0000000180008740 f i node_printer_win.obj
 0001:00007cf0       ??R?$less@V?$basic_string@DU?$char_traits@D@std@@V?$allocator@D@2@@std@@@std@@QEBA_NAEBV?$basic_string@DU?$char_traits@D@std@@V?$allocator@D@2@@1@0@Z 0000000180008cf0 f i node_printer_win.obj
 0001:00007d70       ?assign@?$basic_string@DU?$char_traits@D@std@@V?$allocator@D@2@@std@@QEAAAEAV12@_KD@Z 0000000180008d70 f i node_printer_win.obj
 0001:00007e70       ?append@?$basic_string@DU?$char_traits@D@std@@V?$allocator@D@2@@std@@QEAAAEAV12@PEBD_K@Z 0000000180008e70 f i node_printer_win.obj
 0001:00007fc0       ?append@?$basic_string@DU?$char_traits@D@std@@V?$allocator@D@2@@std@@QEAAAEAV12@AEBV12@_K1@Z 0000000180008fc0 f i node_printer_win.obj
 0001:000080f0       ?_Assign_rv@?$basic_string@DU?$char_traits@D@std@@V?$allocator@D@2@@std@@QEAAX$$QEAV12@@Z 00000001800090f0 f i node_printer_win.obj
 0001:00008170       ?_Tidy@?$basic_stringbuf@DU?$char_traits@D@std@@V?$allocator@D@2@@std@@IEAAXXZ 0000000180009170 f i node_printer_win.obj
 0001:00008230       ?str@?$basic_stringbuf@DU?$char_traits@D@std@@V?$allocator@D@2@@std@@QEBA?AV?$basic_string@DU?$char_traits@D@std@@V?$allocator@D@2@@2@XZ 0000000180009230 f i node_printer_win.obj
 0001:000083c0       ?_Pnavail@?$basic_streambuf@DU?$char_traits@D@std@@@std@@IEBA_JXZ 00000001800093c0 f i node_printer_win.obj
 0001:000083e0       ?_Gnavail@?$basic_streambuf@DU?$char_traits@D@std@@@std@@IEBA_JXZ 00000001800093e0 f i node_printer_win.obj
 0001:00008400       ??_E?$num_put@DV?$ostreambuf_iterator@DU?$char_traits@D@std@@@std@@@std@@MEAAPEAXI@Z 0000000180009400 f i * CIL library *:* CIL module *
 0001:00008400       ??_G?$num_put@DV?$ostreambuf_iterator@DU?$char_traits@D@std@@@std@@@std@@MEAAPEAXI@Z 0000000180009400 f i node_printer_win.obj
 0001:00008430       ?do_truename@?$numpunct@D@std@@MEBA?AV?$basic_string@DU?$char_traits@D@std@@V?$allocator@D@2@@2@XZ 0000000180009430 f i node_printer_win.obj
 0001:00008480       ?do_falsename@?$numpunct@D@std@@MEBA?AV?$basic_string@DU?$char_traits@D@std@@V?$allocator@D@2@@2@XZ 0000000180009480 f i node_printer_win.obj
 0001:000084d0       ?do_grouping@?$numpunct@D@std@@MEBA?AV?$basic_string@DU?$char_traits@D@std@@V?$allocator@D@2@@2@XZ 00000001800094d0 f i node_printer_win.obj
 0001:00008520       ?do_thousands_sep@?$numpunct@D@std@@MEBADXZ 0000000180009520 f i node_printer_win.obj
 0001:00008530       ?do_decimal_point@?$numpunct@D@std@@MEBADXZ 0000000180009530 f i node_printer_win.obj
 0001:00008540       ?_Iput@?$num_put@DV?$ostreambuf_iterator@DU?$char_traits@D@std@@@std@@@std@@AEBA?AV?$ostreambuf_iterator@DU?$char_traits@D@std@@@2@V32@AEAVios_base@2@DPEAD_K@Z 0000000180009540 f i node_printer_win.obj
 0001:00008d20       ?_Fput@?$num_put@DV?$ostreambuf_iterator@DU?$char_traits@D@std@@@std@@@std@@AEBA?AV?$ostreambuf_iterator@DU?$char_traits@D@std@@@2@V32@AEAVios_base@2@DPEBD_K@Z 0000000180009d20 f i node_printer_win.obj
 0001:00009580       ?append@?$basic_string@DU?$char_traits@D@std@@V?$allocator@D@2@@std@@QEAAAEAV12@_KD@Z 000000018000a580 f i node_printer_win.obj
 0001:00009690       ?flush@?$basic_ostream@DU?$char_traits@D@std@@@std@@QEAAAEAV12@XZ 000000018000a690 f i node_printer_win.obj
 0001:000097b0       ??0?$basic_streambuf@DU?$char_traits@D@std@@@std@@IEAA@XZ 000000018000a7b0 f i node_printer_win.obj
 0001:00009850       ?init@?$basic_ios@DU?$char_traits@D@std@@@std@@IEAAXPEAV?$basic_streambuf@DU?$char_traits@D@std@@@2@_N@Z 000000018000a850 f i node_printer_win.obj
 0001:000098f0       ??_G?$numpunct@D@std@@MEAAPEAXI@Z 000000018000a8f0 f i node_printer_win.obj
 0001:000098f0       ??_E?$numpunct@D@std@@MEAAPEAXI@Z 000000018000a8f0 f i * CIL library *:* CIL module *
 0001:00009950       ?widen@?$basic_ios@DU?$char_traits@D@std@@@std@@QEBADD@Z 000000018000a950 f i node_printer_win.obj
 0001:000099d0       ?_Erase@?$_Tree@V?$_Tmap_traits@V?$basic_string@DU?$char_traits@D@std@@V?$allocator@D@2@@std@@KU?$less@V?$basic_string@DU?$char_traits@D@std@@V?$allocator@D@2@@std@@@2@V?$allocator@U?$pair@$$CBV?$basic_string@DU?$char_traits@D@std@@V?$allocator@D@2@@std@@K@std@@@2@$0A@@std@@@std@@IEAAXPEAU?$_Tree_node@U?$pair@$$CBV?$basic_string@DU?$char_traits@D@std@@V?$allocator@D@2@@std@@K@std@@PEAX@2@@Z 000000018000a9d0 f i node_printer_win.obj
 0001:00009ab0       ??$use_facet@V?$ctype@D@std@@@std@@YAAEBV?$ctype@D@0@AEBVlocale@0@@Z 000000018000aab0 f i node_printer_win.obj
 0001:00009be0       ??$_Immortalize@V_Iostream_error_category@std@@@std@@YAAEAV_Iostream_error_category@0@XZ 000000018000abe0 f i node_printer_win.obj
 0001:00009c60       ??$?6U?$char_traits@D@std@@@std@@YAAEAV?$basic_ostream@DU?$char_traits@D@std@@@0@AEAV10@PEBD@Z 000000018000ac60 f i node_printer_win.obj
 0001:00009ee0       ??$?6DU?$char_traits@D@std@@V?$allocator@D@1@@std@@YAAEAV?$basic_ostream@DU?$char_traits@D@std@@@0@AEAV10@AEBV?$basic_string@DU?$char_traits@D@std@@V?$allocator@D@2@@0@@Z 000000018000aee0 f i node_printer_win.obj
 0001:0000a160       ??$use_facet@V?$num_put@DV?$ostreambuf_iterator@DU?$char_traits@D@std@@@std@@@std@@@std@@YAAEBV?$num_put@DV?$ostreambuf_iterator@DU?$char_traits@D@std@@@std@@@0@AEBVlocale@0@@Z 000000018000b160 f i node_printer_win.obj
 0001:0000a2e0       ??$use_facet@V?$numpunct@D@std@@@std@@YAAEBV?$numpunct@D@0@AEBVlocale@0@@Z 000000018000b2e0 f i node_printer_win.obj
 0001:0000a410       ?_Getcat@?$numpunct@D@std@@SA_KPEAPEBVfacet@locale@2@PEBV42@@Z 000000018000b410 f i node_printer_win.obj
 0001:0000a4d0       ?_Init@?$numpunct@D@std@@IEAAXAEBV_Locinfo@2@_N@Z 000000018000b4d0 f i node_printer_win.obj
 0001:0000a650       ??$emplace@U?$pair@PEBDH@std@@@?$_Tree@V?$_Tmap_traits@V?$basic_string@DU?$char_traits@D@std@@V?$allocator@D@2@@std@@KU?$less@V?$basic_string@DU?$char_traits@D@std@@V?$allocator@D@2@@std@@@2@V?$allocator@U?$pair@$$CBV?$basic_string@DU?$char_traits@D@std@@V?$allocator@D@2@@std@@K@std@@@2@$0A@@std@@@std@@QEAA?AU?$pair@V?$_Tree_iterator@V?$_Tree_val@U?$_Tree_simple_types@U?$pair@$$CBV?$basic_string@DU?$char_traits@D@std@@V?$allocator@D@2@@std@@K@std@@@std@@@std@@@std@@_N@1@$$QEAU?$pair@PEBDH@1@@Z 000000018000b650 f i node_printer_win.obj
 0001:0000a720       ??$_Insert_nohint@AEAU?$pair@$$CBV?$basic_string@DU?$char_traits@D@std@@V?$allocator@D@2@@std@@K@std@@PEAU?$_Tree_node@U?$pair@$$CBV?$basic_string@DU?$char_traits@D@std@@V?$allocator@D@2@@std@@K@std@@PEAX@2@@?$_Tree@V?$_Tmap_traits@V?$basic_string@DU?$char_traits@D@std@@V?$allocator@D@2@@std@@KU?$less@V?$basic_string@DU?$char_traits@D@std@@V?$allocator@D@2@@std@@@2@V?$allocator@U?$pair@$$CBV?$basic_string@DU?$char_traits@D@std@@V?$allocator@D@2@@std@@K@std@@@2@$0A@@std@@@std@@IEAA?AU?$pair@V?$_Tree_iterator@V?$_Tree_val@U?$_Tree_simple_types@U?$pair@$$CBV?$basic_string@DU?$char_traits@D@std@@V?$allocator@D@2@@std@@K@std@@@std@@@std@@@std@@_N@1@_NAEAU?$pair@$$CBV?$basic_string@DU?$char_traits@D@std@@V?$allocator@D@2@@std@@K@1@PEAU?$_Tree_node@U?$pair@$$CBV?$basic_string@DU?$char_traits@D@std@@V?$allocator@D@2@@std@@K@std@@PEAX@1@@Z 000000018000b720 f i node_printer_win.obj
 0001:0000a8f0       ??$_Insert_at@AEAU?$pair@$$CBV?$basic_string@DU?$char_traits@D@std@@V?$allocator@D@2@@std@@K@std@@PEAU?$_Tree_node@U?$pair@$$CBV?$basic_string@DU?$char_traits@D@std@@V?$allocator@D@2@@std@@K@std@@PEAX@2@@?$_Tree@V?$_Tmap_traits@V?$basic_string@DU?$char_traits@D@std@@V?$allocator@D@2@@std@@KU?$less@V?$basic_string@DU?$char_traits@D@std@@V?$allocator@D@2@@std@@@2@V?$allocator@U?$pair@$$CBV?$basic_string@DU?$char_traits@D@std@@V?$allocator@D@2@@std@@K@std@@@2@$0A@@std@@@std@@IEAA?AV?$_Tree_iterator@V?$_Tree_val@U?$_Tree_simple_types@U?$pair@$$CBV?$basic_string@DU?$char_traits@D@std@@V?$allocator@D@2@@std@@K@std@@@std@@@std@@@1@_NPEAU?$_Tree_node@U?$pair@$$CBV?$basic_string@DU?$char_traits@D@std@@V?$allocator@D@2@@std@@K@std@@PEAX@1@AEAU?$pair@$$CBV?$basic_string@DU?$char_traits@D@std@@V?$allocator@D@2@@std@@K@1@1@Z 000000018000b8f0 f i node_printer_win.obj
 0001:0000ab9c       ??_E?$basic_ostream@DU?$char_traits@D@std@@@std@@$4PPPPPPPM@A@EAAPEAXI@Z 000000018000bb9c f i node_printer_win.obj
 0001:0000aba8       ??_E?$basic_ostringstream@DU?$char_traits@D@std@@V?$allocator@D@2@@std@@$4PPPPPPPM@A@EAAPEAXI@Z 000000018000bba8 f i node_printer_win.obj
 0001:0000ac0c       __imp_load_?GetCurrent@Isolate@v8@@SAPEAV12@XZ 000000018000bc0c f   node:node.exe
 0001:0000ac18       __tailMerge_node_exe       000000018000bc18 f i node:node.exe
 0001:0000ac91       __imp_load_??1HandleScope@v8@@QEAA@XZ 000000018000bc91 f   node:node.exe
 0001:0000ac9d       __imp_load_??0HandleScope@v8@@QEAA@PEAVIsolate@1@@Z 000000018000bc9d f   node:node.exe
 0001:0000aca9       __imp_load_?GetFunction@FunctionTemplate@v8@@QEAA?AV?$Local@VFunction@v8@@@2@XZ 000000018000bca9 f   node:node.exe
 0001:0000acb5       __imp_load_?New@FunctionTemplate@v8@@SA?AV?$Local@VFunctionTemplate@v8@@@2@PEAVIsolate@2@P6AXAEBV?$FunctionCallbackInfo@VValue@v8@@@2@@ZV?$Local@VValue@v8@@@2@V?$Local@VSignature@v8@@@2@H@Z 000000018000bcb5 f   node:node.exe
 0001:0000acc1       __imp_load_?IsObject@Value@v8@@QEBA_NXZ 000000018000bcc1 f   node:node.exe
 0001:0000accd       __imp_load_??1Utf8Value@String@v8@@QEAA@XZ 000000018000bccd f   node:node.exe
 0001:0000acd9       __imp_load_??0Utf8Value@String@v8@@QEAA@V?$Local@VValue@v8@@@2@@Z 000000018000bcd9 f   node:node.exe
 0001:0000ace5       __imp_load_?NewFromUtf8@String@v8@@SA?AV?$Local@VString@v8@@@2@PEAVIsolate@2@PEBDW4NewStringType@12@H@Z 000000018000bce5 f   node:node.exe
 0001:0000acf1       __imp_load_?Set@Object@v8@@QEAA_NV?$Local@VValue@v8@@@2@0@Z 000000018000bcf1 f   node:node.exe
 0001:0000acfd       __imp_load_?SetName@Function@v8@@QEAAXV?$Local@VString@v8@@@2@@Z 000000018000bcfd f   node:node.exe
 0001:0000ad09       __imp_load_node_module_register 000000018000bd09 f   node:node.exe
 0001:0000ad15       __imp_load_?HasInstance@Buffer@node@@YA_NV?$Local@VValue@v8@@@v8@@@Z 000000018000bd15 f   node:node.exe
 0001:0000ad21       __imp_load_?Data@Buffer@node@@YAPEADV?$Local@VValue@v8@@@v8@@@Z 000000018000bd21 f   node:node.exe
 0001:0000ad2d       __imp_load_?Length@Buffer@node@@YA_KV?$Local@VValue@v8@@@v8@@@Z 000000018000bd2d f   node:node.exe
 0001:0000ad39       __imp_load_?ToString@Value@v8@@QEBA?AV?$Local@VString@v8@@@2@XZ 000000018000bd39 f   node:node.exe
 0001:0000ad45       __imp_load_?ThrowException@Isolate@v8@@QEAA?AV?$Local@VValue@v8@@@2@V32@@Z 000000018000bd45 f   node:node.exe
 0001:0000ad51       __imp_load_?TypeError@Exception@v8@@SA?AV?$Local@VValue@v8@@@2@V?$Local@VString@v8@@@2@@Z 000000018000bd51 f   node:node.exe
 0001:0000ad5d       __imp_load_?New@Array@v8@@SA?AV?$Local@VArray@v8@@@2@PEAVIsolate@2@H@Z 000000018000bd5d f   node:node.exe
 0001:0000ad69       __imp_load_?Int32Value@Value@v8@@QEBAHXZ 000000018000bd69 f   node:node.exe
 0001:0000ad75       __imp_load_?IsInt32@Value@v8@@QEBA_NXZ 000000018000bd75 f   node:node.exe
 0001:0000ad81       __imp_load_??1Value@String@v8@@QEAA@XZ 000000018000bd81 f   node:node.exe
 0001:0000ad8d       __imp_load_??0Value@String@v8@@QEAA@V?$Local@VValue@v8@@@2@@Z 000000018000bd8d f   node:node.exe
 0001:0000ad99       __imp_load_?NewFromTwoByte@String@v8@@SA?AV?$Local@VString@v8@@@2@PEAVIsolate@2@PEBGW4NewStringType@12@H@Z 000000018000bd99 f   node:node.exe
 0001:0000ada5       __imp_load_?New@Number@v8@@SA?AV?$Local@VNumber@v8@@@2@PEAVIsolate@2@N@Z 000000018000bda5 f   node:node.exe
 0001:0000adb1       __imp_load_?New@Object@v8@@SA?AV?$Local@VObject@v8@@@2@PEAVIsolate@2@@Z 000000018000bdb1 f   node:node.exe
 0001:0000adbd       __imp_load_?Set@Object@v8@@QEAA_NIV?$Local@VValue@v8@@@2@@Z 000000018000bdbd f   node:node.exe
 0001:0000adcc       ??0bad_alloc@std@@QEAA@AEBV01@@Z 000000018000bdcc f i libcpmt:xthrow.obj
 0001:0000ae0c       ??0bad_alloc@std@@QEAA@XZ  000000018000be0c f i libcpmt:xthrow.obj
 0001:0000ae2c       ??0exception@std@@QEAA@AEBV01@@Z 000000018000be2c f i libcpmt:xthrow.obj
 0001:0000ae64       ??0length_error@std@@QEAA@AEBV01@@Z 000000018000be64 f i libcpmt:xthrow.obj
 0001:0000aea4       ??0length_error@std@@QEAA@PEBD@Z 000000018000bea4 f i libcpmt:xthrow.obj
 0001:0000aef0       ??0logic_error@std@@QEAA@AEBV01@@Z 000000018000bef0 f i libcpmt:xthrow.obj
 0001:0000af30       ??0out_of_range@std@@QEAA@AEBV01@@Z 000000018000bf30 f i libcpmt:xthrow.obj
 0001:0000af70       ??0out_of_range@std@@QEAA@PEBD@Z 000000018000bf70 f i libcpmt:xthrow.obj
 0001:0000afbc       ??_Gbad_exception@std@@UEAAPEAXI@Z 000000018000bfbc f i libvcruntime:frame.obj
 0001:0000afbc       ??_Gbad_alloc@std@@UEAAPEAXI@Z 000000018000bfbc f i libcpmt:xthrow.obj
 0001:0000afbc       ??_Ebad_alloc@std@@UEAAPEAXI@Z 000000018000bfbc f i libcpmt:xthrow.obj
 0001:0000afbc       ??_Elogic_error@std@@UEAAPEAXI@Z 000000018000bfbc f i libcpmt:xthrow.obj
 0001:0000afbc       ??_Glogic_error@std@@UEAAPEAXI@Z 000000018000bfbc f i libcpmt:xthrow.obj
 0001:0000afbc       ??_Eexception@std@@UEAAPEAXI@Z 000000018000bfbc f i libcpmt:xthrow.obj
 0001:0000afbc       ??_Gexception@std@@UEAAPEAXI@Z 000000018000bfbc f i libcpmt:xthrow.obj
 0001:0000afbc       ??_Ebad_array_new_length@std@@UEAAPEAXI@Z 000000018000bfbc f i LIBCMT:throw_bad_alloc.obj
 0001:0000afbc       ??_Eout_of_range@std@@UEAAPEAXI@Z 000000018000bfbc f i libcpmt:xthrow.obj
 0001:0000afbc       ??_Elength_error@std@@UEAAPEAXI@Z 000000018000bfbc f i libcpmt:xthrow.obj
 0001:0000afbc       ??_Ebad_exception@std@@UEAAPEAXI@Z 000000018000bfbc f i libvcruntime:frame.obj
 0001:0000afbc       ??_Gbad_array_new_length@std@@UEAAPEAXI@Z 000000018000bfbc f i LIBCMT:throw_bad_alloc.obj
 0001:0000afbc       ??_Gout_of_range@std@@UEAAPEAXI@Z 000000018000bfbc f i libcpmt:xthrow.obj
 0001:0000afbc       ??_Glength_error@std@@UEAAPEAXI@Z 000000018000bfbc f i libcpmt:xthrow.obj
 0001:0000b000       ?_Xbad_alloc@std@@YAXXZ    000000018000c000 f   libcpmt:xthrow.obj
 0001:0000b000       ?__scrt_throw_std_bad_alloc@@YAXXZ 000000018000c000 f   LIBCMT:throw_bad_alloc.obj
 0001:0000b020       ?_Xlength_error@std@@YAXPEBD@Z 000000018000c020 f   libcpmt:xthrow.obj
 0001:0000b044       ?_Xout_of_range@std@@YAXPEBD@Z 000000018000c044 f   libcpmt:xthrow.obj
 0001:0000b068       ?what@exception@std@@UEBAPEBDXZ 000000018000c068 f i libcpmt:xthrow.obj
 0001:0000b07c       ??0_Init_locks@std@@QEAA@XZ 000000018000c07c f   libcpmt:xlock.obj
 0001:0000b0c8       ??0_Lockit@std@@QEAA@H@Z   000000018000c0c8 f   libcpmt:xlock.obj
 0001:0000b104       ??1_Init_locks@std@@QEAA@XZ 000000018000c104 f   libcpmt:xlock.obj
 0001:0000b148       ??1_Lockit@std@@QEAA@XZ    000000018000c148 f   libcpmt:xlock.obj
 0001:0000b17c       ??4?$_Yarn@D@std@@QEAAAEAV01@PEBD@Z 000000018000c17c f i libcpmt:locale0.obj
 0001:0000b1f4       ??_G_Fac_node@std@@QEAAPEAXI@Z 000000018000c1f4 f i libcpmt:locale0.obj
 0001:0000b280       ??_E_Locimp@locale@std@@MEAAPEAXI@Z 000000018000c280 f i libcpmt:locale0.obj
 0001:0000b280       ??_G_Locimp@locale@std@@MEAAPEAXI@Z 000000018000c280 f i libcpmt:locale0.obj
 0001:0000b2ec       ?_Facet_Register@std@@YAXPEAV_Facet_base@1@@Z 000000018000c2ec f   libcpmt:locale0.obj
 0001:0000b324       ?_Getgloballocale@locale@std@@CAPEAV_Locimp@12@XZ 000000018000c324 f   libcpmt:locale0.obj
 0001:0000b32c       ?_Init@locale@std@@CAPEAV_Locimp@12@_N@Z 000000018000c32c f   libcpmt:locale0.obj
 0001:0000b3e8       ?_Locimp_dtor@_Locimp@locale@std@@CAXPEAV123@@Z 000000018000c3e8 f   libcpmt:locale0.obj
 0001:0000b490       ?_Locinfo_ctor@_Locinfo@std@@SAXPEAV12@PEBD@Z 000000018000c490 f   libcpmt:locale0.obj
 0001:0000b4fc       ?_Locinfo_dtor@_Locinfo@std@@SAXPEAV12@@Z 000000018000c4fc f   libcpmt:locale0.obj
 0001:0000b520       ?_New_Locimp@_Locimp@locale@std@@CAPEAV123@_N@Z 000000018000c520 f   libcpmt:locale0.obj
 0001:0000b590       ?_Setgloballocale@locale@std@@CAXPEAX@Z 000000018000c590 f   libcpmt:locale0.obj
 0001:0000b5c4       _Deletegloballocale        000000018000c5c4 f   libcpmt:locale0.obj
 0001:0000b64c       ?_Ios_base_dtor@ios_base@std@@CAXPEAV12@@Z 000000018000c64c f   libcpmt:ios.obj
 0001:0000b690       ?_Tidy@ios_base@std@@AEAAXXZ 000000018000c690 f i libcpmt:ios.obj
 0001:0000b720       ?_Syserror_map@std@@YAPEBDH@Z 000000018000c720 f   libcpmt:syserror.obj
 0001:0000b748       _Getctype                  000000018000c748 f   libcpmt:_tolower.obj
 0001:0000b808       _Tolower                   000000018000c808 f   libcpmt:_tolower.obj
 0001:0000b930       _Getcvt                    000000018000c930 f   libcpmt:xwctomb.obj
 0001:0000b9c0       _Toupper                   000000018000c9c0 f   libcpmt:_toupper.obj
 0001:0000baf8       _Mtxdst                    000000018000caf8 f   libcpmt:xmtx.obj
 0001:0000bb00       _Mtxinit                   000000018000cb00 f   libcpmt:xmtx.obj
 0001:0000bb10       _Mtxlock                   000000018000cb10 f   libcpmt:xmtx.obj
 0001:0000bb18       _Mtxunlock                 000000018000cb18 f   libcpmt:xmtx.obj
 0001:0000bb20       ?_Atexit@@YAXP6AXXZ@Z      000000018000cb20 f   libcpmt:iosptrs.obj
 0001:0000bb60       __crtLCMapStringA          000000018000cb60 f   libcpmt:StlLCMapStringA.obj
 0001:0000c31c       __crtInitializeCriticalSectionEx 000000018000d31c f   libcpmt:winapisupp.obj
 0001:0000c37c       GetTableIndexFromLocaleName 000000018000d37c f   libcpmt:winapinls.obj
 0001:0000c408       __crtDownlevelLocaleNameToLCID 000000018000d408 f   libcpmt:winapinls.obj
 0001:0000c43c       __crtLCMapStringEx         000000018000d43c f   libcpmt:winapinls.obj
 0001:0000c4f8       __wcsnicmp_ascii           000000018000d4f8 f   libcpmt:winapinls.obj
 0001:0000c560       __security_check_cookie    000000018000d560 f   LIBCMT:_amdsecgs_.obj
 0001:0000c584       ??2@YAPEAX_K@Z             000000018000d584 f   LIBCMT:new_scalar.obj
 0001:0000c5c0       ??3@YAXPEAX@Z              000000018000d5c0 f   LIBCMT:delete_scalar.obj
 0001:0000c5c8       ??_V@YAXPEAX@Z             000000018000d5c8 f   LIBCMT:delete_array.obj
 0001:0000c5c8       ??3@YAXPEAX_K@Z            000000018000d5c8 f   LIBCMT:delete_scalar_size.obj
 0001:0000c718       _Init_thread_footer        000000018000d718 f   LIBCMT:thread_safe_statics.obj
 0001:0000c778       _Init_thread_header        000000018000d778 f   LIBCMT:thread_safe_statics.obj
 0001:0000c7e0       _Init_thread_notify        000000018000d7e0 f   LIBCMT:thread_safe_statics.obj
 0001:0000c83c       _Init_thread_wait          000000018000d83c f   LIBCMT:thread_safe_statics.obj
 0001:0000c8d4       __scrt_acquire_startup_lock 000000018000d8d4 f   LIBCMT:utility.obj
 0001:0000c910       __scrt_dllmain_after_initialize_c 000000018000d910 f   LIBCMT:utility.obj
 0001:0000c944       __scrt_dllmain_before_initialize_c 000000018000d944 f   LIBCMT:utility.obj
 0001:0000c95c       __scrt_dllmain_crt_thread_attach 000000018000d95c f   LIBCMT:utility.obj
 0001:0000c984       __scrt_dllmain_crt_thread_detach 000000018000d984 f   LIBCMT:utility.obj
 0001:0000c99c       __scrt_dllmain_exception_filter 000000018000d99c f   LIBCMT:utility.obj
 0001:0000ca00       __scrt_dllmain_uninitialize_c 000000018000da00 f   LIBCMT:utility.obj
 0001:0000ca30       __scrt_dllmain_uninitialize_critical 000000018000da30 f   LIBCMT:utility.obj
 0001:0000ca44       __scrt_initialize_crt      000000018000da44 f   LIBCMT:utility.obj
 0001:0000ca90       __scrt_initialize_onexit_tables 000000018000da90 f   LIBCMT:utility.obj
 0001:0000cb5c       __scrt_is_nonwritable_in_current_image 000000018000db5c f   LIBCMT:utility.obj
 0001:0000cbf8       __scrt_release_startup_lock 000000018000dbf8 f   LIBCMT:utility.obj
 0001:0000cc1c       __scrt_uninitialize_crt    000000018000dc1c f   LIBCMT:utility.obj
 0001:0000cc48       _onexit                    000000018000dc48 f   LIBCMT:utility.obj
 0001:0000cc98       atexit                     000000018000dc98 f   LIBCMT:utility.obj
 0001:0000cffc       _DllMainCRTStartup         000000018000dffc f   LIBCMT:dll_dllmain.obj
 0001:0000d03c       ??_Etype_info@@UEAAPEAXI@Z 000000018000e03c f i LIBCMT:std_type_info_static.obj
 0001:0000d03c       ??_Gtype_info@@UEAAPEAXI@Z 000000018000e03c f i LIBCMT:std_type_info_static.obj
 0001:0000d068       _guard_check_icall         000000018000e068 f i LIBCMT:checkcfg.obj
 0001:0000d070       __GSHandlerCheck           000000018000e070 f   LIBCMT:_gshandler_.obj
 0001:0000d090       __GSHandlerCheckCommon     000000018000e090 f   LIBCMT:_gshandler_.obj
 0001:0000d100       _alloca_probe              000000018000e100 f   LIBCMT:_chkstk_.obj
 0001:0000d100       __chkstk                   000000018000e100 f   LIBCMT:_chkstk_.obj
 0001:0000d154       __raise_securityfailure    000000018000e154 f   LIBCMT:gs_report.obj
 0001:0000d188       __report_gsfailure         000000018000e188 f   LIBCMT:gs_report.obj
 0001:0000d25c       __report_rangecheckfailure 000000018000e25c f   LIBCMT:gs_report.obj
 0001:0000d270       __report_securityfailure   000000018000e270 f   LIBCMT:gs_report.obj
 0001:0000d3f0       ??0bad_array_new_length@std@@QEAA@AEBV01@@Z 000000018000e3f0 f i LIBCMT:throw_bad_alloc.obj
 0001:0000d430       ??0bad_array_new_length@std@@QEAA@XZ 000000018000e430 f i LIBCMT:throw_bad_alloc.obj
 0001:0000d450       ?__scrt_throw_std_bad_array_new_length@@YAXXZ 000000018000e450 f   LIBCMT:throw_bad_alloc.obj
 0001:0000d470       __crt_debugger_hook        000000018000e470 f   LIBCMT:utility_desktop.obj
 0001:0000d478       __scrt_fastfail            000000018000e478 f   LIBCMT:utility_desktop.obj
 0001:0000d5c0       __isa_available_init       000000018000e5c0 f   LIBCMT:_cpu_disp_.obj
 0001:0000d788       __scrt_is_ucrt_dll_in_use  000000018000e788 f   LIBCMT:ucrt_detection.obj
 0001:0000d794       __security_init_cookie     000000018000e794 f   LIBCMT:gs_support.obj
 0001:0000d840       DllMain                    000000018000e840 f   LIBCMT:dll_dllmain_stub.obj
 0001:0000d840       _get_startup_argv_mode     000000018000e840 f   LIBCMT:argv_mode.obj
 0001:0000d848       ?__scrt_initialize_type_info@@YAXXZ 000000018000e848 f   LIBCMT:tncleanup.obj
 0001:0000d858       ?__scrt_uninitialize_type_info@@YAXXZ 000000018000e858 f   LIBCMT:tncleanup.obj
 0001:0000d864       __local_stdio_scanf_options 000000018000e864 f i LIBCMT:default_local_stdio_options.obj
 0001:0000d86c       __scrt_initialize_default_local_stdio_options 000000018000e86c f   LIBCMT:default_local_stdio_options.obj
 0001:0000d888       __scrt_get_dyn_tls_init_callback 000000018000e888 f   LIBCMT:dyn_tls_init.obj
 0001:0000d890       _RTC_Initialize            000000018000e890 f   LIBCMT:_initsect_.obj
 0001:0000d8dc       _RTC_Terminate             000000018000e8dc f   LIBCMT:_initsect_.obj
 0001:0000d940       memcpy                     000000018000e940 f   libvcruntime:memcpy.obj
 0001:0000d940       memmove                    000000018000e940 f   libvcruntime:memcpy.obj
 0001:0000dd78       _purecall                  000000018000ed78 f   libvcruntime:purevirt.obj
 0001:0000ddb4       __std_exception_copy       000000018000edb4 f   libvcruntime:std_exception.obj
 0001:0000de44       __std_exception_destroy    000000018000ee44 f   libvcruntime:std_exception.obj
 0001:0000de6c       _CxxThrowException         000000018000ee6c f   libvcruntime:throw.obj
 0001:0000df44       __DestructExceptionObject  000000018000ef44 f   libvcruntime:frame.obj
 0001:0000dfcc       ??0bad_exception@std@@QEAA@AEBV01@@Z 000000018000efcc f i libvcruntime:frame.obj
 0001:0000e00c       ??0bad_exception@std@@QEAA@XZ 000000018000f00c f i libvcruntime:frame.obj
 0001:0000e02c       ??1bad_array_new_length@std@@UEAA@XZ 000000018000f02c f i LIBCMT:throw_bad_alloc.obj
 0001:0000e02c       ??1length_error@std@@UEAA@XZ 000000018000f02c f i libcpmt:xthrow.obj
 0001:0000e02c       ??1out_of_range@std@@UEAA@XZ 000000018000f02c f i libcpmt:xthrow.obj
 0001:0000e02c       ??1bad_exception@std@@UEAA@XZ 000000018000f02c f i libvcruntime:frame.obj
 0001:0000e02c       ??1bad_alloc@std@@UEAA@XZ  000000018000f02c f i libcpmt:xthrow.obj
 0001:0000e99c       ?_CallMemberFunction0@@YAXPEAXP6AX0@Z@Z 000000018000f99c f i libvcruntime:frame.obj
 0001:0000e9a0       ?_CallMemberFunction1@@YAXPEAXP6AX0@Z0@Z 000000018000f9a0 f i libvcruntime:frame.obj
 0001:0000e9ac       ?_CallMemberFunction2@@YAXPEAXP6AX0@Z0H@Z 000000018000f9ac f i libvcruntime:frame.obj
 0001:0000e9bc       __AdjustPointer            000000018000f9bc f   libvcruntime:frame.obj
 0001:0000e9e0       __BuildCatchObject         000000018000f9e0 f   libvcruntime:frame.obj
 0001:0000eaa4       __BuildCatchObjectHelper   000000018000faa4 f   libvcruntime:frame.obj
 0001:0000ec84       __CxxCallCatchBlock        000000018000fc84 f   libvcruntime:frame.obj
 0001:0000ee70       __FrameUnwindFilter        000000018000fe70 f   libvcruntime:frame.obj
 0001:0000eebc       __FrameUnwindToState       000000018000febc f   libvcruntime:frame.obj
 0001:0000f050       __InternalCxxFrameHandler  0000000180010050 f   libvcruntime:frame.obj
 0001:0000f2a8       __TypeMatch                00000001800102a8 f   libvcruntime:frame.obj
 0001:0000f3e8       __std_terminate            00000001800103e8 f   libvcruntime:frame.obj
 0001:0000f3f4       ?_ExecutionInCatch@@YAHPEAU_xDISPATCHER_CONTEXT@@PEBU_s_FuncInfo@@@Z 00000001800103f4 f   libvcruntime:trnsctrl.obj
 0001:0000f468       ?_GetEstablisherFrame@@YAPEA_KPEA_KPEAU_xDISPATCHER_CONTEXT@@PEBU_s_FuncInfo@@0@Z 0000000180010468 f   libvcruntime:trnsctrl.obj
 0001:0000f534       ?_GetRangeOfTrysToCheck@@YAPEBU_s_TryBlockMapEntry@@PEA_KPEBU_s_FuncInfo@@HHPEAI2PEAU_xDISPATCHER_CONTEXT@@@Z 0000000180010534 f   libvcruntime:trnsctrl.obj
 0001:0000f660       ?__FrameUnwindToEmptyState@@YAXPEA_KPEAU_xDISPATCHER_CONTEXT@@PEBU_s_FuncInfo@@@Z 0000000180010660 f   libvcruntime:trnsctrl.obj
 0001:0000f6f4       ?__SehTransFilter@@YAHPEAU_EXCEPTION_POINTERS@@PEAUEHExceptionRecord@@PEA_KPEAU_CONTEXT@@PEAU_xDISPATCHER_CONTEXT@@PEBU_s_FuncInfo@@PEAH@Z 00000001800106f4 f   libvcruntime:trnsctrl.obj
 0001:0000f78c       _CallSETranslator          000000018001078c f   libvcruntime:trnsctrl.obj
 0001:0000f7e4       _CreateFrameInfo           00000001800107e4 f   libvcruntime:trnsctrl.obj
 0001:0000f820       _FindAndUnlinkFrame        0000000180010820 f   libvcruntime:trnsctrl.obj
 0001:0000f878       _GetImageBase              0000000180010878 f   libvcruntime:trnsctrl.obj
 0001:0000f88c       _GetThrowImageBase         000000018001088c f   libvcruntime:trnsctrl.obj
 0001:0000f8a0       _IsExceptionObjectToBeDestroyed 00000001800108a0 f   libvcruntime:trnsctrl.obj
 0001:0000f8d0       _SetImageBase              00000001800108d0 f   libvcruntime:trnsctrl.obj
 0001:0000f8e8       _SetThrowImageBase         00000001800108e8 f   libvcruntime:trnsctrl.obj
 0001:0000f900       _UnwindNestedFrames        0000000180010900 f   libvcruntime:trnsctrl.obj
 0001:0000fa24       __CxxFrameHandler3         0000000180010a24 f   libvcruntime:trnsctrl.obj
 0001:0000fac0       memset                     0000000180010ac0 f   libvcruntime:memset.obj
 0001:0000fc70       memcmp                     0000000180010c70 f   libvcruntime:memcmp.obj
 0001:0000ff00       __vcrt_FlsAlloc            0000000180010f00 f   libvcruntime:winapi_downlevel.obj
 0001:0000ff54       __vcrt_FlsFree             0000000180010f54 f   libvcruntime:winapi_downlevel.obj
 0001:0000ffa8       __vcrt_FlsGetValue         0000000180010fa8 f   libvcruntime:winapi_downlevel.obj
 0001:0000fffc       __vcrt_FlsSetValue         0000000180010ffc f   libvcruntime:winapi_downlevel.obj
 0001:00010064       __vcrt_InitializeCriticalSectionEx 0000000180011064 f   libvcruntime:winapi_downlevel.obj
 0001:000100dc       __vcrt_initialize_winapi_thunks 00000001800110dc f   libvcruntime:winapi_downlevel.obj
 0001:00010128       __vcrt_uninitialize_winapi_thunks 0000000180011128 f   libvcruntime:winapi_downlevel.obj
 0001:00010168       __vcrt_initialize          0000000180011168 f   libvcruntime:initialization.obj
 0001:0001019c       __vcrt_thread_attach       000000018001119c f   libvcruntime:initialization.obj
 0001:000101b0       __vcrt_thread_detach       00000001800111b0 f   libvcruntime:initialization.obj
 0001:000101c4       __vcrt_uninitialize        00000001800111c4 f   libvcruntime:initialization.obj
 0001:000101e4       __vcrt_uninitialize_critical 00000001800111e4 f   libvcruntime:initialization.obj
 0001:000101f4       __C_specific_handler       00000001800111f4 f   libvcruntime:_chandler_.obj
 0001:000103f0       __std_type_info_compare    00000001800113f0 f   libvcruntime:std_type_info.obj
 0001:00010418       __std_type_info_destroy_list 0000000180011418 f   libvcruntime:std_type_info.obj
 0001:00010444       __vcrt_initialize_pure_virtual_call_handler 0000000180011444 f   libvcruntime:purevirt_data.obj
 0001:00010468       __vcrt_freefls             0000000180011468 f   libvcruntime:per_thread_data.obj
 0001:00010488       __vcrt_freeptd             0000000180011488 f   libvcruntime:per_thread_data.obj
 0001:000104d8       __vcrt_getptd              00000001800114d8 f   libvcruntime:per_thread_data.obj
 0001:000104f4       __vcrt_getptd_noexit       00000001800114f4 f   libvcruntime:per_thread_data.obj
 0001:000105ac       __vcrt_initialize_ptd      00000001800115ac f   libvcruntime:per_thread_data.obj
 0001:000105ec       __vcrt_uninitialize_ptd    00000001800115ec f   libvcruntime:per_thread_data.obj
 0001:00010610       ?__GetCurrentState@@YAHPEA_KPEAU_xDISPATCHER_CONTEXT@@PEBU_s_FuncInfo@@@Z 0000000180011610 f   libvcruntime:ehstate.obj
 0001:00010638       ?__GetUnwindTryBlock@@YAHPEA_KPEAU_xDISPATCHER_CONTEXT@@PEBU_s_FuncInfo@@@Z 0000000180011638 f   libvcruntime:ehstate.obj
 0001:00010664       ?__SetState@@YAXPEA_KPEAU_xDISPATCHER_CONTEXT@@PEBU_s_FuncInfo@@H@Z 0000000180011664 f   libvcruntime:ehstate.obj
 0001:00010670       ?__SetUnwindTryBlock@@YAXPEA_KPEAU_xDISPATCHER_CONTEXT@@PEBU_s_FuncInfo@@H@Z 0000000180011670 f   libvcruntime:ehstate.obj
 0001:000106ac       ?__StateFromControlPc@@YAHPEBU_s_FuncInfo@@PEAU_xDISPATCHER_CONTEXT@@@Z 00000001800116ac f   libvcruntime:ehstate.obj
 0001:000106b4       ?__StateFromIp@@YAHPEBU_s_FuncInfo@@PEAU_xDISPATCHER_CONTEXT@@_J@Z 00000001800116b4 f   libvcruntime:ehstate.obj
 0001:00010730       _CallSettingFrame          0000000180011730 f   libvcruntime:handlers.obj
 0001:00010780       _local_unwind              0000000180011780 f   libvcruntime:_jmpuwind_.obj
 0001:000107b0       _NLG_Notify                00000001800117b0 f   libvcruntime:_jmpuwind_.obj
 0001:000107d0       __NLG_Dispatch2            00000001800117d0 f   libvcruntime:_jmpuwind_.obj
 0001:000107e0       __NLG_Return2              00000001800117e0 f   libvcruntime:_jmpuwind_.obj
 0001:000107e4       __vcrt_initialize_locks    00000001800117e4 f   libvcruntime:locks.obj
 0001:0001082c       __vcrt_uninitialize_locks  000000018001182c f   libvcruntime:locks.obj
 0001:00010864       __acrt_call_reportfault    0000000180011864 f   libucrt:invalid_parameter.obj
 0001:000109c0       __acrt_initialize_invalid_parameter_handler 00000001800119c0 f   libucrt:invalid_parameter.obj
 0001:000109c8       _invalid_parameter         00000001800119c8 f   libucrt:invalid_parameter.obj
 0001:00010a70       _invalid_parameter_noinfo  0000000180011a70 f   libucrt:invalid_parameter.obj
 0001:00010a90       _invalid_parameter_noinfo_noreturn 0000000180011a90 f   libucrt:invalid_parameter.obj
 0001:00010ac0       _invoke_watson             0000000180011ac0 f   libucrt:invalid_parameter.obj
 0001:00010b08       abort                      0000000180011b08 f   libucrt:abort.obj
 0001:00010b60       calloc                     0000000180011b60 f   libucrt:calloc.obj
 0001:00010b68       strcspn                    0000000180011b68 f   libucrt:strcspn.obj
 0001:00010db0       ??$ensure_buffer_is_big_enough@D@formatting_buffer@__crt_stdio_output@@QEAA_N_K@Z 0000000180011db0 f i libucrt:output.obj
 0001:00010e5c       ??$is_wide_character_specifier@D@__crt_stdio_output@@YA_N_KDW4length_modifier@0@@Z 0000000180011e5c f i libucrt:output.obj
 0001:00010e8c       ??$type_case_integer_parse_into_buffer@I@?$output_processor@DV?$string_output_adapter@D@__crt_stdio_output@@V?$format_validation_base@DV?$string_output_adapter@D@__crt_stdio_output@@@2@@__crt_stdio_output@@AEAAXII_N@Z 0000000180011e8c f i libucrt:output.obj
 0001:00010f28       ??$type_case_integer_parse_into_buffer@_K@?$output_processor@DV?$string_output_adapter@D@__crt_stdio_output@@V?$format_validation_base@DV?$string_output_adapter@D@__crt_stdio_output@@@2@@__crt_stdio_output@@AEAAX_KI_N@Z 0000000180011f28 f i libucrt:output.obj
 0001:00010fc4       ??$write_multiple_characters@V?$string_output_adapter@D@__crt_stdio_output@@D@__crt_stdio_output@@YAXAEBV?$string_output_adapter@D@0@DHQEAH@Z 0000000180011fc4 f i libucrt:output.obj
 0001:00011020       ??0?$output_processor@DV?$string_output_adapter@D@__crt_stdio_output@@V?$format_validation_base@DV?$string_output_adapter@D@__crt_stdio_output@@@2@@__crt_stdio_output@@QEAA@AEBV?$string_output_adapter@D@1@_KQEBDQEAU__crt_locale_pointers@@QEAD@Z 0000000180012020 f i libucrt:output.obj
 0001:0001109c       ??0_LocaleUpdate@@QEAA@QEAU__crt_locale_pointers@@@Z 000000018001209c f i libucrt:output.obj
 0001:0001112c       ?force_decimal_point@__crt_stdio_output@@YAXPEADQEAU__crt_locale_pointers@@@Z 000000018001212c f i libucrt:output.obj
 0001:0001119c       ?parse_int_from_format_string@?$output_processor@DV?$string_output_adapter@D@__crt_stdio_output@@V?$format_validation_base@DV?$string_output_adapter@D@__crt_stdio_output@@@2@@__crt_stdio_output@@AEAA_NQEAH@Z 000000018001219c f i libucrt:output.obj
 0001:00011220       ?process@?$output_processor@DV?$string_output_adapter@D@__crt_stdio_output@@V?$format_validation_base@DV?$string_output_adapter@D@__crt_stdio_output@@@2@@__crt_stdio_output@@QEAAHXZ 0000000180012220 f i libucrt:output.obj
 0001:00011434       ?state_case_normal@?$output_processor@DV?$string_output_adapter@D@__crt_stdio_output@@V?$format_validation_base@DV?$string_output_adapter@D@__crt_stdio_output@@@2@@__crt_stdio_output@@AEAA_NXZ 0000000180012434 f i libucrt:output.obj
 0001:000114a8       ?state_case_normal_tchar@?$output_processor@DV?$string_output_adapter@D@__crt_stdio_output@@V?$format_validation_base@DV?$string_output_adapter@D@__crt_stdio_output@@@2@@__crt_stdio_output@@AEAA_ND@Z 00000001800124a8 f i libucrt:output.obj
 0001:00011540       ?state_case_size@?$output_processor@DV?$string_output_adapter@D@__crt_stdio_output@@V?$format_validation_base@DV?$string_output_adapter@D@__crt_stdio_output@@@2@@__crt_stdio_output@@AEAA_NXZ 0000000180012540 f i libucrt:output.obj
 0001:000116bc       ?state_case_type@?$output_processor@DV?$string_output_adapter@D@__crt_stdio_output@@V?$format_validation_base@DV?$string_output_adapter@D@__crt_stdio_output@@@2@@__crt_stdio_output@@AEAA_NXZ 00000001800126bc f i libucrt:output.obj
 0001:00011938       ?type_case_Z@?$output_processor@DV?$string_output_adapter@D@__crt_stdio_output@@V?$format_validation_base@DV?$string_output_adapter@D@__crt_stdio_output@@@2@@__crt_stdio_output@@AEAA_NXZ 0000000180012938 f i libucrt:output.obj
 0001:000119b8       ?type_case_a@?$output_processor@DV?$string_output_adapter@D@__crt_stdio_output@@V?$format_validation_base@DV?$string_output_adapter@D@__crt_stdio_output@@@2@@__crt_stdio_output@@AEAA_NXZ 00000001800129b8 f i libucrt:output.obj
 0001:00011bd4       ?type_case_c_tchar@?$output_processor@DV?$string_output_adapter@D@__crt_stdio_output@@V?$format_validation_base@DV?$string_output_adapter@D@__crt_stdio_output@@@2@@__crt_stdio_output@@AEAA_ND@Z 0000000180012bd4 f i libucrt:output.obj
 0001:00011c88       ?type_case_integer@?$output_processor@DV?$string_output_adapter@D@__crt_stdio_output@@V?$format_validation_base@DV?$string_output_adapter@D@__crt_stdio_output@@@2@@__crt_stdio_output@@AEAA_NI_N@Z 0000000180012c88 f i libucrt:output.obj
 0001:00011e28       ?type_case_n@?$output_processor@DV?$string_output_adapter@D@__crt_stdio_output@@V?$format_validation_base@DV?$string_output_adapter@D@__crt_stdio_output@@@2@@__crt_stdio_output@@AEAA_NXZ 0000000180012e28 f i libucrt:output.obj
 0001:00011f04       ?type_case_s@?$output_processor@DV?$string_output_adapter@D@__crt_stdio_output@@V?$format_validation_base@DV?$string_output_adapter@D@__crt_stdio_output@@@2@@__crt_stdio_output@@AEAA_NXZ 0000000180012f04 f i libucrt:output.obj
 0001:00011f94       ?write_stored_string_tchar@?$output_processor@DV?$string_output_adapter@D@__crt_stdio_output@@V?$format_validation_base@DV?$string_output_adapter@D@__crt_stdio_output@@@2@@__crt_stdio_output@@AEAA_ND@Z 0000000180012f94 f i libucrt:output.obj
 0001:0001206c       ?write_string@?$string_output_adapter@D@__crt_stdio_output@@QEBAXQEBDHQEAH1@Z 000000018001306c f i libucrt:output.obj
 0001:00012128       __stdio_common_vsprintf_s  0000000180013128 f   libucrt:output.obj
 0001:0001218c       localeconv                 000000018001318c f   libucrt:localeconv.obj
 0001:000121c0       free                       00000001800131c0 f   libucrt:free.obj
 0001:000121c8       frexp                      00000001800131c8 f   libucrt:frexp.obj
 0001:000122c0       malloc                     00000001800132c0 f   libucrt:malloc.obj
 0001:000122c8       __ascii_stricmp            00000001800132c8 f   libucrt:stricmp.obj
 0001:00012304       _stricmp                   0000000180013304 f   libucrt:stricmp.obj
 0001:0001234c       _stricmp_l                 000000018001334c f   libucrt:stricmp.obj
 0001:00012400       __acrt_initialize_locks    0000000180013400 f   libucrt:locks.obj
 0001:00012448       __acrt_lock                0000000180013448 f   libucrt:locks.obj
 0001:00012464       __acrt_uninitialize_locks  0000000180013464 f   libucrt:locks.obj
 0001:0001249c       __acrt_unlock              000000018001349c f   libucrt:locks.obj
 0001:000124b8       _lock_locales              00000001800134b8 f   libucrt:locks.obj
 0001:000124c8       _unlock_locales            00000001800134c8 f   libucrt:locks.obj
 0001:000125c0       setlocale                  00000001800135c0 f   libucrt:setlocale.obj
 0001:0001278c       _calloc_base               000000018001378c f   libucrt:calloc_base.obj
 0001:00012804       __pctype_func              0000000180013804 f   libucrt:ctype.obj
 0001:00012834       isdigit                    0000000180013834 f i libucrt:_ctype.obj
 0001:000128a8       islower                    00000001800138a8 f i libucrt:_ctype.obj
 0001:0001291c       isupper                    000000018001391c f i libucrt:_ctype.obj
 0001:00012990       _wcsdup                    0000000180013990 f   libucrt:wcsdup.obj
 0001:00012a14       ___lc_codepage_func        0000000180013a14 f   libucrt:initctype.obj
 0001:00012a44       ___lc_locale_name_func     0000000180013a44 f   libucrt:initctype.obj
 0001:00012a78       ___mb_cur_max_func         0000000180013a78 f   libucrt:initctype.obj
 0001:00012aa8       __acrt_locale_initialize_ctype 0000000180013aa8 f   libucrt:initctype.obj
 0001:0001307c       __acrt_errno_from_os_error 000000018001407c f   libucrt:errno.obj
 0001:000130c4       __acrt_errno_map_os_error  00000001800140c4 f   libucrt:errno.obj
 0001:00013114       __doserrno                 0000000180014114 f   libucrt:errno.obj
 0001:00013134       _errno                     0000000180014134 f   libucrt:errno.obj
 0001:000131cc       _ismbblead                 00000001800141cc f   libucrt:ismbbyte.obj
 0001:000131e0       _malloc_base               00000001800141e0 f   libucrt:malloc_base.obj
 0001:00013240       _realloc_base              0000000180014240 f   libucrt:realloc_base.obj
 0001:000132c4       ??$make_c_string_character_source@_W$$T@__crt_strtox@@YA?AV?$c_string_character_source@_W@0@QEB_W$$T@Z 00000001800142c4 f i libucrt:atox.obj
 0001:000132c4       ??$make_c_string_character_source@DPEAPEAD@__crt_strtox@@YA?AV?$c_string_character_source@D@0@QEBDQEAPEAD@Z 00000001800142c4 f i libucrt:strtod.obj
 0001:000132e0       ?divide@__crt_strtox@@YA_KAEAUbig_integer@1@AEBU21@@Z 00000001800142e0 f i libucrt:strtod.obj
 0001:00013840       pow                        0000000180014840 f   libucrt:pow.obj
 0001:00014ee0       powf                       0000000180015ee0 f   libucrt:powf.obj
 0001:00015da8       __strncnt                  0000000180016da8 f   libucrt:strncnt.obj
 0001:00015dc0       _free_base                 0000000180016dc0 f   libucrt:free_base.obj
 0001:00015e50       _tolower_l                 0000000180016e50 f   libucrt:tolower_toupper.obj
 0001:00015f90       tolower                    0000000180016f90 f   libucrt:tolower_toupper.obj
 0001:00015fbc       wcscpy_s                   0000000180016fbc f   libucrt:wcscpy_s.obj
 0001:00016024       strnlen                    0000000180017024 f   libucrt:strnlen.obj
 0001:00016180       wcsnlen                    0000000180017180 f   libucrt:strnlen.obj
 0001:00016370       __acrt_initialize_new_handler 0000000180017370 f   libucrt:new_handler.obj
 0001:00016378       _callnewh                  0000000180017378 f   libucrt:new_handler.obj
 0001:000163b8       _query_new_handler         00000001800173b8 f   libucrt:new_handler.obj
 0001:000163ec       _seh_filter_dll            00000001800173ec f   libucrt:exception_filter.obj
 0001:00016400       _seh_filter_exe            0000000180017400 f   libucrt:exception_filter.obj
 0001:000167c0       __acrt_initialize_thread_local_exit_callback 00000001800177c0 f   libucrt:exit.obj
 0001:000167c8       _cexit                     00000001800177c8 f   libucrt:exit.obj
 0001:000167d8       _exit                      00000001800177d8 f   libucrt:exit.obj
 0001:000167e4       _is_c_termination_complete 00000001800177e4 f   libucrt:exit.obj
 0001:000169a8       __acrt_allocate_buffer_for_argv 00000001800179a8 f   libucrt:argv_parsing.obj
 0001:00016a0c       _configure_narrow_argv     0000000180017a0c f   libucrt:argv_parsing.obj
 0001:00016d68       __dcrt_uninitialize_environments_nolock 0000000180017d68 f   libucrt:environment_initialization.obj
 0001:00016da0       _initialize_narrow_environment 0000000180017da0 f   libucrt:environment_initialization.obj
 0001:00016da8       ??$?RV<lambda_b8c45f8f788dd370798f47cfe8ac3a86>@@AEAV<lambda_4e60a939b0d047cfe11ddc22648dfba9>@@V<lambda_332c3edc96d0294ec56c57d38c1cdfd5>@@@?$__crt_seh_guarded_call@H@@QEAAH$$QEAV<lambda_b8c45f8f788dd370798f47cfe8ac3a86>@@AEAV<lambda_4e60a939b0d047cfe11ddc22648dfba9>@@$$QEAV<lambda_332c3edc96d0294ec56c57d38c1cdfd5>@@@Z 0000000180017da8 f i libucrt:onexit.obj
 0001:00016de4       ??$?RV<lambda_e24bbb7b643b32fcea6fa61b31d4c984>@@AEAV<lambda_275893d493268fdec8709772e3fcec0e>@@V<lambda_9d71df4d7cf3f480f8d633942495c3b0>@@@?$__crt_seh_guarded_call@H@@QEAAH$$QEAV<lambda_e24bbb7b643b32fcea6fa61b31d4c984>@@AEAV<lambda_275893d493268fdec8709772e3fcec0e>@@$$QEAV<lambda_9d71df4d7cf3f480f8d633942495c3b0>@@@Z 0000000180017de4 f i libucrt:onexit.obj
 0001:00017160       _crt_atexit                0000000180018160 f   libucrt:onexit.obj
 0001:00017170       _execute_onexit_table      0000000180018170 f   libucrt:onexit.obj
 0001:000171ac       _initialize_onexit_table   00000001800181ac f   libucrt:onexit.obj
 0001:000171ec       _register_onexit_function  00000001800181ec f   libucrt:onexit.obj
 0001:0001727c       __acrt_uninitialize_command_line 000000018001827c f   libucrt:argv_data.obj
 0001:0001736c       __acrt_initialize          000000018001836c f   libucrt:initialization.obj
 0001:00017380       __acrt_thread_attach       0000000180018380 f   libucrt:initialization.obj
 0001:00017394       __acrt_thread_detach       0000000180018394 f   libucrt:initialization.obj
 0001:000173a4       __acrt_uninitialize        00000001800183a4 f   libucrt:initialization.obj
 0001:000173b8       __acrt_uninitialize_critical 00000001800183b8 f   libucrt:initialization.obj
 0001:000173c8       _initterm                  00000001800183c8 f   libucrt:initterm.obj
 0001:00017440       _initterm_e                0000000180018440 f   libucrt:initterm.obj
 0001:0001748c       terminate                  000000018001848c f   libucrt:terminate.obj
 0001:000174b4       strcpy_s                   00000001800184b4 f   libucrt:strcpy_s.obj
 0001:00017514       ??$is_overflow_condition@K@__crt_strtox@@YA_NIK@Z 0000000180018514 f i libucrt:atox.obj
 0001:00017540       ??$parse_integer@KV?$c_string_character_source@D@__crt_strtox@@@__crt_strtox@@YAKQEAU__crt_locale_pointers@@V?$c_string_character_source@D@0@H_N@Z 0000000180018540 f i libucrt:atox.obj
 0001:00017854       ??$parse_integer@KV?$c_string_character_source@_W@__crt_strtox@@@__crt_strtox@@YAKQEAU__crt_locale_pointers@@V?$c_string_character_source@_W@0@H_N@Z 0000000180018854 f i libucrt:atox.obj
 0001:00017f28       _wtol                      0000000180018f28 f   libucrt:atox.obj
 0001:00017f54       ??$?RV<lambda_46352004c1216016012b18bd6f87e700>@@AEAV<lambda_3bd07e1a1191394380780325891bf33f>@@V<lambda_334532d3f185bcaa59b5be82d7d22bff>@@@?$__crt_seh_guarded_call@X@@QEAAX$$QEAV<lambda_46352004c1216016012b18bd6f87e700>@@AEAV<lambda_3bd07e1a1191394380780325891bf33f>@@$$QEAV<lambda_334532d3f185bcaa59b5be82d7d22bff>@@@Z 0000000180018f54 f i libucrt:per_thread_data.obj
 0001:00017fb4       ??$?RV<lambda_5e887d1dcbef67a5eb4283622ba103bf>@@AEAV<lambda_4466841279450cc726390878d4a41900>@@V<lambda_341c25c0346d94847f1f3c463c57e077>@@@?$__crt_seh_guarded_call@X@@QEAAX$$QEAV<lambda_5e887d1dcbef67a5eb4283622ba103bf>@@AEAV<lambda_4466841279450cc726390878d4a41900>@@$$QEAV<lambda_341c25c0346d94847f1f3c463c57e077>@@@Z 0000000180018fb4 f i libucrt:per_thread_data.obj
 0001:00017ffc       ??$?RV<lambda_72d1df2b273a38828b1ce30cbf4cdab5>@@AEAV<lambda_876a65b173b8412d3a47c70a915b0cf4>@@V<lambda_41932305e351933ebe8f8be3ed8bb5dc>@@@?$__crt_seh_guarded_call@X@@QEAAX$$QEAV<lambda_72d1df2b273a38828b1ce30cbf4cdab5>@@AEAV<lambda_876a65b173b8412d3a47c70a915b0cf4>@@$$QEAV<lambda_41932305e351933ebe8f8be3ed8bb5dc>@@@Z 0000000180018ffc f i libucrt:per_thread_data.obj
 0001:0001803c       ??$?RV<lambda_fb3a7dec4e47f37f22dae91bb15c9095>@@AEAV<lambda_698284760c8add0bfb0756c19673e34b>@@V<lambda_dfb8eca1e75fef3034a8fb18dd509707>@@@?$__crt_seh_guarded_call@X@@QEAAX$$QEAV<lambda_fb3a7dec4e47f37f22dae91bb15c9095>@@AEAV<lambda_698284760c8add0bfb0756c19673e34b>@@$$QEAV<lambda_dfb8eca1e75fef3034a8fb18dd509707>@@@Z 000000018001903c f i libucrt:per_thread_data.obj
 0001:000182cc       __acrt_freeptd             00000001800192cc f   libucrt:per_thread_data.obj
 0001:00018310       __acrt_getptd              0000000180019310 f   libucrt:per_thread_data.obj
 0001:000183a4       __acrt_getptd_noexit       00000001800193a4 f   libucrt:per_thread_data.obj
 0001:00018444       __acrt_initialize_ptd      0000000180019444 f   libucrt:per_thread_data.obj
 0001:00018480       __acrt_uninitialize_ptd    0000000180019480 f   libucrt:per_thread_data.obj
 0001:000184a4       ??$?RV<lambda_c36588078e9f5dfd39652860aa6b3aaf>@@AEAV<lambda_ec61778202f4f5fc7e7711acc23c3bca>@@V<lambda_dc9d2797ccde5d239b4a0efae8ebd7db>@@@?$__crt_seh_guarded_call@P6AXH@Z@@QEAAP6AXH@Z$$QEAV<lambda_c36588078e9f5dfd39652860aa6b3aaf>@@AEAV<lambda_ec61778202f4f5fc7e7711acc23c3bca>@@$$QEAV<lambda_dc9d2797ccde5d239b4a0efae8ebd7db>@@@Z 00000001800194a4 f i libucrt:signal.obj
 0001:000184ec       __acrt_get_sigabrt_handler 00000001800194ec f   libucrt:signal.obj
 0001:0001851c       __acrt_initialize_signal_handlers 000000018001951c f   libucrt:signal.obj
 0001:0001853c       raise                      000000018001953c f   libucrt:signal.obj
 0001:000187d8       strtol                     00000001800197d8 f   libucrt:strtox.obj
 0001:00018808       _mbtowc_l                  0000000180019808 f   libucrt:mbtowc.obj
 0001:00018950       mbtowc                     0000000180019950 f   libucrt:mbtowc.obj
 0001:00018958       _wctomb_s_l                0000000180019958 f   libucrt:wctomb.obj
 0001:00018adc       wctomb_s                   0000000180019adc f   libucrt:wctomb.obj
 0001:00018af0       __acrt_update_locale_info  0000000180019af0 f   libucrt:locale_update.obj
 0001:00018b24       __acrt_update_multibyte_info 0000000180019b24 f   libucrt:locale_update.obj
 0001:00018b58       ?__acrt_fp_classify@@YA?AW4__acrt_fp_class@@AEBN@Z 0000000180019b58 f i libucrt:cvt.obj
 0001:00019590       __acrt_fp_format           000000018001a590 f   libucrt:cvt.obj
 0001:000197d4       _fileno                    000000018001a7d4 f   libucrt:fileno.obj
 0001:000197fc       __acrt_initialize_stdio    000000018001a7fc f   libucrt:_file.obj
 0001:0001991c       __acrt_uninitialize_stdio  000000018001a91c f   libucrt:_file.obj
 0001:00019978       _lock_file                 000000018001a978 f   libucrt:_file.obj
 0001:00019984       _unlock_file               000000018001a984 f   libucrt:_file.obj
 0001:00019990       _get_printf_count_output   000000018001a990 f   libucrt:printf_count_output.obj
 0001:000199a8       ??$?RV<lambda_5df02c53a8f32f81fd64e5bbb78039f1>@@AEAV<lambda_2af78c5f5901b1372d98f9ab3177dfa6>@@AEAV<lambda_f51fe5fd7c79a33db34fc9310f277369>@@@?$__crt_seh_guarded_call@X@@QEAAX$$QEAV<lambda_5df02c53a8f32f81fd64e5bbb78039f1>@@AEAV<lambda_2af78c5f5901b1372d98f9ab3177dfa6>@@AEAV<lambda_f51fe5fd7c79a33db34fc9310f277369>@@@Z 000000018001a9a8 f i libucrt:wsetlocale.obj
 0001:000199d4       ??$?RV<lambda_d67e8342c384adda8f857579ab50b2ae>@@AEAV<lambda_30712929f77e709619002f448b6a9510>@@V<lambda_4525336fd7e478d965fb7ca7a337cad8>@@@?$__crt_seh_guarded_call@X@@QEAAX$$QEAV<lambda_d67e8342c384adda8f857579ab50b2ae>@@AEAV<lambda_30712929f77e709619002f448b6a9510>@@$$QEAV<lambda_4525336fd7e478d965fb7ca7a337cad8>@@@Z 000000018001a9d4 f i libucrt:wsetlocale.obj
 0001:00019ba0       __acrt_copy_locale_name    000000018001aba0 f   libucrt:wsetlocale.obj
 0001:00019c24       __acrt_set_locale_changed  000000018001ac24 f   libucrt:wsetlocale.obj
 0001:00019c30       __acrt_uninitialize_locale 000000018001ac30 f   libucrt:wsetlocale.obj
 0001:00019c78       __lc_lctowcs               000000018001ac78 f   libucrt:wsetlocale.obj
 0001:00019d1c       __lc_wcstolc               000000018001ad1c f   libucrt:wsetlocale.obj
 0001:00019f94       _expandlocale              000000018001af94 f   libucrt:wsetlocale.obj
 0001:0001a390       _wcscats                   000000018001b390 f   libucrt:wsetlocale.obj
 0001:0001a3f8       _wsetlocale                000000018001b3f8 f   libucrt:wsetlocale.obj
 0001:0001ae2c       __acrt_initialize_lowio    000000018001be2c f   libucrt:ioinit.obj
 0001:0001ae68       __acrt_uninitialize_lowio  000000018001be68 f   libucrt:ioinit.obj
 0001:0001aea8       _dsign                     000000018001bea8 f   libucrt:nan.obj
 0001:0001aec0       _errcode                   000000018001bec0 f   libucrt:fpexcept.obj
 0001:0001af04       _except1                   000000018001bf04 f   libucrt:fpexcept.obj
 0001:0001aff8       _handle_exc                000000018001bff8 f   libucrt:fpexcept.obj
 0001:0001b260       _raise_exc                 000000018001c260 f   libucrt:fpexcept.obj
 0001:0001b288       _raise_exc_ex              000000018001c288 f   libucrt:fpexcept.obj
 0001:0001b590       _raise_excf                000000018001c590 f   libucrt:fpexcept.obj
 0001:0001b5bc       _set_errno_from_matherr    000000018001c5bc f   libucrt:fpexcept.obj
 0001:0001b5ec       _umatherr                  000000018001c5ec f   libucrt:fpexcept.obj
 0001:0001b6c0       _decomp                    000000018001c6c0 f   libucrt:util.obj
 0001:0001b7f4       _sptype                    000000018001c7f4 f   libucrt:util.obj
 0001:0001b868       _clrfp                     000000018001c868 f   libucrt:fpctrl.obj
 0001:0001b888       _ctrlfp                    000000018001c888 f   libucrt:fpctrl.obj
 0001:0001b904       _set_statfp                000000018001c904 f   libucrt:fpctrl.obj
 0001:0001b924       _statfp                    000000018001c924 f   libucrt:fpctrl.obj
 0001:0001b97c       ??$?RV<lambda_630b2aca97f6d20d5b5ea6529ea6b6af>@@AEAV<lambda_af91936f1d075d609f72d9d8cba980af>@@V<lambda_e82fa975f615b5c7c7b0e4d178fdae67>@@@?$__crt_seh_guarded_call@H@@QEAAH$$QEAV<lambda_630b2aca97f6d20d5b5ea6529ea6b6af>@@AEAV<lambda_af91936f1d075d609f72d9d8cba980af>@@$$QEAV<lambda_e82fa975f615b5c7c7b0e4d178fdae67>@@@Z 000000018001c97c f i libucrt:winapi_thunks.obj
 0001:0001bbb4       __acrt_EnumSystemLocalesEx 000000018001cbb4 f   libucrt:winapi_thunks.obj
 0001:0001bc5c       __acrt_FlsAlloc            000000018001cc5c f   libucrt:winapi_thunks.obj
 0001:0001bcb4       __acrt_FlsFree             000000018001ccb4 f   libucrt:winapi_thunks.obj
 0001:0001bd0c       __acrt_FlsGetValue         000000018001cd0c f   libucrt:winapi_thunks.obj
 0001:0001bd64       __acrt_FlsSetValue         000000018001cd64 f   libucrt:winapi_thunks.obj
 0001:0001bdcc       __acrt_GetLocaleInfoEx     000000018001cdcc f   libucrt:winapi_thunks.obj
 0001:0001be64       __acrt_GetUserDefaultLocaleName 000000018001ce64 f   libucrt:winapi_thunks.obj
 0001:0001bed8       __acrt_InitializeCriticalSectionEx 000000018001ced8 f   libucrt:winapi_thunks.obj
 0001:0001bf50       __acrt_IsValidLocaleName   000000018001cf50 f   libucrt:winapi_thunks.obj
 0001:0001bfb8       __acrt_LCIDToLocaleName    000000018001cfb8 f   libucrt:winapi_thunks.obj
 0001:0001c044       __acrt_LCMapStringEx       000000018001d044 f   libucrt:winapi_thunks.obj
 0001:0001c134       __acrt_LocaleNameToLCID    000000018001d134 f   libucrt:winapi_thunks.obj
 0001:0001c19c       __acrt_can_use_vista_locale_apis 000000018001d19c f   libucrt:winapi_thunks.obj
 0001:0001c1cc       __acrt_initialize_winapi_thunks 000000018001d1cc f   libucrt:winapi_thunks.obj
 0001:0001c204       __acrt_is_packaged_app     000000018001d204 f   libucrt:winapi_thunks.obj
 0001:0001c28c       __acrt_uninitialize_winapi_thunks 000000018001d28c f   libucrt:winapi_thunks.obj
 0001:0001c4ac       _mbstowcs_s_l              000000018001d4ac f   libucrt:mbstowcs.obj
 0001:0001c5dc       mbstowcs_s                 000000018001d5dc f   libucrt:mbstowcs.obj
 0001:0001c930       _wcstombs_s_l              000000018001d930 f   libucrt:wcstombs.obj
 0001:0001ca1c       _query_new_mode            000000018001da1c f   libucrt:new_mode.obj
 0001:0001ca24       __acrt_initialize_heap     000000018001da24 f   libucrt:heap_handle.obj
 0001:0001ca40       __acrt_uninitialize_heap   000000018001da40 f   libucrt:heap_handle.obj
 0001:0001ca4c       _isctype_l                 000000018001da4c f   libucrt:isctype.obj
 0001:0001ccfc       __acrt_GetLocaleInfoA      000000018001dcfc f   libucrt:getlocaleinfoa.obj
 0001:0001cec4       __acrt_GetStringTypeA      000000018001dec4 f   libucrt:getstringtypea.obj
 0001:0001d3d4       __acrt_LCMapStringA        000000018001e3d4 f   libucrt:lcmapstringa.obj
 0001:0001d46c       iswctype                   000000018001e46c f   libucrt:iswctype.obj
 0001:0001d4e0       __acrt_initialize_fma3     000000018001e4e0 f   libucrt:fma3_available.obj
 0001:0001d550       _pow_special               000000018001e550 f   libucrt:pow_special.obj
 0001:0001d674       _powf_special              000000018001e674 f   libucrt:pow_special.obj
 0001:0001d800       _wcsicmp                   000000018001e800 f   libucrt:wcsicmp.obj
 0001:0001d888       _wcsicmp_l                 000000018001e888 f   libucrt:wcsicmp.obj
 0001:0001d978       __acrt_initialize_timeset  000000018001e978 f   libucrt:timeset.obj
 0001:0001d9a8       _isleadbyte_l              000000018001e9a8 f i libucrt:_wctype.obj
 0001:0001dec4       ?expand_if_necessary@?$argument_list@D@?A0xca0879c4@@AEAAHXZ 000000018001eec4 f i libucrt:argv_wildcards.obj
 0001:0001df8c       __acrt_expand_narrow_argv_wildcards 000000018001ef8c f   libucrt:argv_wildcards.obj
 0001:0001df94       ??$?RV<lambda_99476a1ad63dd22509b5d3e65b0ffc95>@@AEAV<lambda_ad1ced32f4ac17aa236e5ef05d6b3b7c>@@V<lambda_f7424dd8d45958661754dc4f2697e9c3>@@@?$__crt_seh_guarded_call@X@@QEAAX$$QEAV<lambda_99476a1ad63dd22509b5d3e65b0ffc95>@@AEAV<lambda_ad1ced32f4ac17aa236e5ef05d6b3b7c>@@$$QEAV<lambda_f7424dd8d45958661754dc4f2697e9c3>@@@Z 000000018001ef94 f i libucrt:mbctype.obj
 0001:0001e690       __acrt_initialize_multibyte 000000018001f690 f   libucrt:mbctype.obj
 0001:0001e6b8       __acrt_update_thread_multibyte_data 000000018001f6b8 f   libucrt:mbctype.obj
 0001:0001e778       _setmbcp_nolock            000000018001f778 f   libucrt:mbctype.obj
 0001:0001ea20       __acrt_initialize_command_line 000000018001fa20 f   libucrt:argv_data.obj
 0001:0001ea48       __dcrt_get_narrow_environment_from_os 000000018001fa48 f   libucrt:get_environment_from_os.obj
 0001:0001eb4c       _recalloc                  000000018001fb4c f   libucrt:recalloc.obj
 0001:0001eb54       _recalloc_base             000000018001fb54 f   libucrt:recalloc.obj
 0001:0001ebec       __acrt_execute_initializers 000000018001fbec f   libucrt:shared_initialization.obj
 0001:0001ec80       __acrt_execute_uninitializers 000000018001fc80 f   libucrt:shared_initialization.obj
 0001:0001ecd0       __acrt_has_user_matherr    000000018001fcd0 f   libucrt:matherr.obj
 0001:0001ecf0       __acrt_initialize_user_matherr 000000018001fcf0 f   libucrt:matherr.obj
 0001:0001ecf8       __acrt_invoke_user_matherr 000000018001fcf8 f   libucrt:matherr.obj
 0001:0001ed40       __acrt_add_locale_ref      000000018001fd40 f   libucrt:locale_refcounting.obj
 0001:0001edcc       __acrt_free_locale         000000018001fdcc f   libucrt:locale_refcounting.obj
 0001:0001ef44       __acrt_locale_add_lc_time_reference 000000018001ff44 f   libucrt:locale_refcounting.obj
 0001:0001ef6c       __acrt_locale_free_lc_time_if_unreferenced 000000018001ff6c f   libucrt:locale_refcounting.obj
 0001:0001efa4       __acrt_locale_release_lc_time_reference 000000018001ffa4 f   libucrt:locale_refcounting.obj
 0001:0001efcc       __acrt_release_locale_ref  000000018001ffcc f   libucrt:locale_refcounting.obj
 0001:0001f074       __acrt_update_thread_locale_data 0000000180020074 f   libucrt:locale_refcounting.obj
 0001:0001f0e4       _updatetlocinfoEx_nolock   00000001800200e4 f   libucrt:locale_refcounting.obj
 0001:0001f14c       __acrt_fp_strflt_to_string 000000018002014c f   libucrt:_fptostr.obj
 0001:0001f20c       __acrt_fltout              000000018002020c f   libucrt:cfout.obj
 0001:00020578       _fcloseall                 0000000180021578 f   libucrt:closeall.obj
 0001:0002062c       __acrt_stdio_flush_nolock  000000018002162c f   libucrt:fflush.obj
 0001:000206a4       _fflush_nolock             00000001800216a4 f   libucrt:fflush.obj
 0001:000206f0       _flushall                  00000001800216f0 f   libucrt:fflush.obj
 0001:000207e0       __acrt_stdio_free_buffer_nolock 00000001800217e0 f   libucrt:_freebuf.obj
 0001:00020820       _isatty                    0000000180021820 f   libucrt:isatty.obj
 0001:00020880       __acrt_locale_free_monetary 0000000180021880 f   libucrt:initmon.obj
 0001:0002098c       __acrt_locale_initialize_monetary 000000018002198c f   libucrt:initmon.obj
 0001:00020ec4       __acrt_locale_free_numeric 0000000180021ec4 f   libucrt:initnum.obj
 0001:00020f30       __acrt_locale_initialize_numeric 0000000180021f30 f   libucrt:initnum.obj
 0001:000215b4       __acrt_locale_free_time    00000001800225b4 f   libucrt:inittime.obj
 0001:000216bc       __acrt_locale_initialize_time 00000001800226bc f   libucrt:inittime.obj
 0001:00021750       wcscat_s                   0000000180022750 f   libucrt:wcscat_s.obj
 0001:000217d0       wcsncpy_s                  00000001800227d0 f   libucrt:wcsncpy_s.obj
 0001:000218b4       wcscspn                    00000001800228b4 f   libucrt:wcscspn.obj
 0001:000218f4       wcsncmp                    00000001800228f4 f   libucrt:wcsncmp.obj
 0001:00021920       wcspbrk                    0000000180022920 f   libucrt:wcspbrk.obj
 0001:000221c4       __acrt_get_qualified_locale 00000001800231c4 f   libucrt:get_qualified_locale.obj
 0001:00022bb0       __acrt_get_qualified_locale_downlevel 0000000180023bb0 f   libucrt:getqloc_downlevel.obj
 0001:00022e40       __acrt_lowio_create_handle_array 0000000180023e40 f   libucrt:osfinfo.obj
 0001:00022ed8       __acrt_lowio_destroy_handle_array 0000000180023ed8 f   libucrt:osfinfo.obj
 0001:00022f28       __acrt_lowio_ensure_fh_exists 0000000180023f28 f   libucrt:osfinfo.obj
 0001:00022fe0       __acrt_lowio_lock_fh       0000000180023fe0 f   libucrt:osfinfo.obj
 0001:00023004       __acrt_lowio_unlock_fh     0000000180024004 f   libucrt:osfinfo.obj
 0001:00023028       _free_osfhnd               0000000180024028 f   libucrt:osfinfo.obj
 0001:000230e4       _get_osfhandle             00000001800240e4 f   libucrt:osfinfo.obj
 0001:00023170       _get_fpsr                  0000000180024170 f   libucrt:fpsr.obj
 0001:00023180       _set_fpsr                  0000000180024180 f   libucrt:fpsr.obj
 0001:0002318a       _fclrf                     000000018002418a f   libucrt:fpsr.obj
 0001:0002319e       _frnd                      000000018002419e f   libucrt:fpsr.obj
 0001:00023288       __acrt_DownlevelLCIDToLocaleName 0000000180024288 f   libucrt:lcidtoname_downlevel.obj
 0001:0002336c       __acrt_DownlevelLocaleNameToLCID 000000018002436c f   libucrt:lcidtoname_downlevel.obj
 0001:000233a0       strncpy_s                  00000001800243a0 f   libucrt:strncpy_s.obj
 0001:00023474       _getfpcontrolword          0000000180024474 f   libucrt:_fenvutils.obj
 0001:0002348c       _getfpstatusword           000000018002448c f   libucrt:_fenvutils.obj
 0001:000234a0       _setfpcontrolword          00000001800244a0 f   libucrt:_fenvutils.obj
 0001:000234ac       _setfpstatusword           00000001800244ac f   libucrt:_fenvutils.obj
 0001:00023620       _handle_error              0000000180024620 f   libucrt:libm_error.obj
 0001:00023748       _handle_errorf             0000000180024748 f   libucrt:libm_error.obj
 0001:0002387c       _handle_nan                000000018002487c f   libucrt:libm_error.obj
 0001:00023898       _handle_nanf               0000000180024898 f   libucrt:libm_error.obj
 0001:000238a8       _towlower_l                00000001800248a8 f   libucrt:towlower.obj
 0001:00023a40       qsort                      0000000180024a40 f   libucrt:qsort.obj
 0001:00023d74       strpbrk                    0000000180024d74 f   libucrt:strpbrk.obj
 0001:00023e14       _mbsdec                    0000000180024e14 f   libucrt:mbsdec.obj
 0001:00023e1c       _mbsdec_l                  0000000180024e1c f   libucrt:mbsdec.obj
 0001:00023ecc       _msize                     0000000180024ecc f   libucrt:msize.obj
 0001:00023f08       fegetenv                   0000000180024f08 f   libucrt:fegetenv.obj
 0001:00023f28       fesetenv                   0000000180024f28 f   libucrt:fesetenv.obj
 0001:00023f74       feholdexcept               0000000180024f74 f   libucrt:feholdexcept.obj
 0001:00023fc4       ceil                       0000000180024fc4 f   libucrt:ceil.obj
 0001:00024090       log10                      0000000180025090 f   libucrt:log10.obj
 0001:00024bdc       _write                     0000000180025bdc f   libucrt:write.obj
 0001:00024cc8       _write_nolock              0000000180025cc8 f   libucrt:write.obj
 0001:00025048       _lseeki64_nolock           0000000180026048 f   libucrt:lseek.obj
 0001:00025050       _fclose_nolock             0000000180026050 f   libucrt:fclose.obj
 0001:000250d4       fclose                     00000001800260d4 f   libucrt:fclose.obj
 0001:00025140       ??$?RV<lambda_b521505b218e5242e90febf6bfebc422>@@AEAV<lambda_6978c1fb23f02e42e1d9e99668cc68aa>@@V<lambda_314360699dd331753a4119843814e9a7>@@@?$__crt_seh_guarded_call@H@@QEAAH$$QEAV<lambda_b521505b218e5242e90febf6bfebc422>@@AEAV<lambda_6978c1fb23f02e42e1d9e99668cc68aa>@@$$QEAV<lambda_314360699dd331753a4119843814e9a7>@@@Z 0000000180026140 f i libucrt:commit.obj
 0001:000251cc       _commit                    00000001800261cc f   libucrt:commit.obj
 0001:00025388       _itow_s                    0000000180026388 f   libucrt:xtoa.obj
 0001:000253a8       _wcsnicmp                  00000001800263a8 f   libucrt:wcsnicmp.obj
 0001:00025444       _wcsnicmp_l                0000000180026444 f   libucrt:wcsnicmp.obj
 0001:0002555c       wcscmp                     000000018002655c f   libucrt:wcscmp.obj
 0001:00025594       _query_app_type            0000000180026594 f   libucrt:report_runtime_error.obj
 0001:0002559c       _clearfp                   000000018002659c f   libucrt:ieee.obj
 0001:000255f0       _controlfp                 00000001800265f0 f   libucrt:ieee.obj
 0001:000255fc       _statusfp                  00000001800265fc f   libucrt:ieee.obj
 0001:000258dc       __acrt_LCMapStringW        00000001800268dc f   libucrt:lcmapstringw.obj
 0001:00025970       _log10_special             0000000180026970 f   libucrt:log_special.obj
 0001:00025a28       _putwch_nolock             0000000180026a28 f   libucrt:putwch.obj
 0001:00025a84       ??$?RV<lambda_bfedae4ebbf01fab1bb6dcc6a9e276e0>@@AEAV<lambda_2fe9b910cf3cbf4a0ab98a02ba45b3ec>@@V<lambda_237c231691f317818eb88cc1d5d642d6>@@@?$__crt_seh_guarded_call@H@@QEAAH$$QEAV<lambda_bfedae4ebbf01fab1bb6dcc6a9e276e0>@@AEAV<lambda_2fe9b910cf3cbf4a0ab98a02ba45b3ec>@@$$QEAV<lambda_237c231691f317818eb88cc1d5d642d6>@@@Z 0000000180026a84 f i libucrt:close.obj
 0001:00025af8       _close                     0000000180026af8 f   libucrt:close.obj
 0001:00025b9c       _close_nolock              0000000180026b9c f   libucrt:close.obj
 0001:00025c58       ?__acrt_stdio_free_stream@@YAXV__crt_stdio_stream@@@Z 0000000180026c58 f   libucrt:stream.obj
 0001:00025c9c       __dcrt_lowio_initialize_console_output 0000000180026c9c f   libucrt:initcon.obj
 0001:00025cd8       __dcrt_terminate_console_output 0000000180026cd8 f   libucrt:initcon.obj
 0001:00025cf8       IsProcessorFeaturePresent  0000000180026cf8 f   kernel32:KERNEL32.dll
 0001:00025cfe       RtlUnwindEx                0000000180026cfe f   kernel32:KERNEL32.dll
 0001:00025d04       ?DloadAcquireSectionWriteAccess@@YAXXZ 0000000180026d04 f i DelayImp:delayhlp.obj
 0001:00025dc0       ?DloadGetSRWLockFunctionPointers@@YAEXZ 0000000180026dc0 f i DelayImp:delayhlp.obj
 0001:00025e5c       ?DloadMakePermanentImageCommit@@YAXPEAX_K@Z 0000000180026e5c f i DelayImp:delayhlp.obj
 0001:00025ef4       ?DloadObtainSection@@YAPEAXPEAK0@Z 0000000180026ef4 f i DelayImp:delayhlp.obj
 0001:00025f8c       ?DloadProtectSection@@YAXKPEAK@Z 0000000180026f8c f i DelayImp:delayhlp.obj
 0001:0002601c       ?DloadReleaseSectionWriteAccess@@YAXXZ 000000018002701c f i DelayImp:delayhlp.obj
 0001:000260c0       __delayLoadHelper2         00000001800270c0 f   DelayImp:delayhlp.obj
 0001:000263c0       _FindPESection             00000001800273c0 f   LIBCMT:pesect.obj
 0001:00026410       _IsNonwritableInCurrentImage 0000000180027410 f   LIBCMT:pesect.obj
 0001:00026460       _ValidateImageBase         0000000180027460 f   LIBCMT:pesect.obj
 0001:00026490       strrchr                    0000000180027490 f   libvcruntime:strrchr.obj
 0001:000265d0       wcschr                     00000001800275d0 f   libvcruntime:wcschr.obj
 0001:00026680       _guard_dispatch_icall_nop  0000000180027680 f   LIBCMT:_guard_dispatch_.obj
 0001:00026c30       ??__F_Static@?1???$_Immortalize@V_Iostream_error_category@std@@@std@@YAAEAV_Iostream_error_category@0@XZ@YAXXZ 0000000180027c30 f i node_printer_win.obj
 0002:00000000       __imp_GetLastError         0000000180028000     kernel32:KERNEL32.dll
 0002:00000008       __imp_LocalFree            0000000180028008     kernel32:KERNEL32.dll
 0002:00000010       __imp_FormatMessageA       0000000180028010     kernel32:KERNEL32.dll
 0002:00000018       __imp_GetModuleHandleA     0000000180028018     kernel32:KERNEL32.dll
 0002:00000020       __imp_VirtualQuery         0000000180028020     kernel32:KERNEL32.dll
 0002:00000028       __imp_VirtualProtect       0000000180028028     kernel32:KERNEL32.dll
 0002:00000030       __imp_GetSystemInfo        0000000180028030     kernel32:KERNEL32.dll
 0002:00000038       __imp_CreateFileW          0000000180028038     kernel32:KERNEL32.dll
 0002:00000040       __imp_WriteConsoleW        0000000180028040     kernel32:KERNEL32.dll
 0002:00000048       __imp_FlushFileBuffers     0000000180028048     kernel32:KERNEL32.dll
 0002:00000050       __imp_SetFilePointerEx     0000000180028050     kernel32:KERNEL32.dll
 0002:00000058       __imp_GetConsoleMode       0000000180028058     kernel32:KERNEL32.dll
 0002:00000060       __imp_GetConsoleCP         0000000180028060     kernel32:KERNEL32.dll
 0002:00000068       __imp_WriteFile            0000000180028068     kernel32:KERNEL32.dll
 0002:00000070       __imp_HeapSize             0000000180028070     kernel32:KERNEL32.dll
 0002:00000078       __imp_SetStdHandle         0000000180028078     kernel32:KERNEL32.dll
 0002:00000080       __imp_WideCharToMultiByte  0000000180028080     kernel32:KERNEL32.dll
 0002:00000088       __imp_EnterCriticalSection 0000000180028088     kernel32:KERNEL32.dll
 0002:00000090       __imp_LeaveCriticalSection 0000000180028090     kernel32:KERNEL32.dll
 0002:00000098       __imp_DeleteCriticalSection 0000000180028098     kernel32:KERNEL32.dll
 0002:000000a0       __imp_EncodePointer        00000001800280a0     kernel32:KERNEL32.dll
 0002:000000a8       __imp_DecodePointer        00000001800280a8     kernel32:KERNEL32.dll
 0002:000000b0       __imp_MultiByteToWideChar  00000001800280b0     kernel32:KERNEL32.dll
 0002:000000b8       __imp_SetLastError         00000001800280b8     kernel32:KERNEL32.dll
 0002:000000c0       __imp_InitializeCriticalSectionAndSpinCount 00000001800280c0     kernel32:KERNEL32.dll
 0002:000000c8       __imp_CreateEventW         00000001800280c8     kernel32:KERNEL32.dll
 0002:000000d0       __imp_TlsAlloc             00000001800280d0     kernel32:KERNEL32.dll
 0002:000000d8       __imp_TlsGetValue          00000001800280d8     kernel32:KERNEL32.dll
 0002:000000e0       __imp_TlsSetValue          00000001800280e0     kernel32:KERNEL32.dll
 0002:000000e8       __imp_TlsFree              00000001800280e8     kernel32:KERNEL32.dll
 0002:000000f0       __imp_GetSystemTimeAsFileTime 00000001800280f0     kernel32:KERNEL32.dll
 0002:000000f8       __imp_GetModuleHandleW     00000001800280f8     kernel32:KERNEL32.dll
 0002:00000100       __imp_GetProcAddress       0000000180028100     kernel32:KERNEL32.dll
 0002:00000108       __imp_LCMapStringW         0000000180028108     kernel32:KERNEL32.dll
 0002:00000110       __imp_GetLocaleInfoW       0000000180028110     kernel32:KERNEL32.dll
 0002:00000118       __imp_GetStringTypeW       0000000180028118     kernel32:KERNEL32.dll
 0002:00000120       __imp_GetCPInfo            0000000180028120     kernel32:KERNEL32.dll
 0002:00000128       __imp_CloseHandle          0000000180028128     kernel32:KERNEL32.dll
 0002:00000130       __imp_SetEvent             0000000180028130     kernel32:KERNEL32.dll
 0002:00000138       __imp_ResetEvent           0000000180028138     kernel32:KERNEL32.dll
 0002:00000140       __imp_WaitForSingleObjectEx 0000000180028140     kernel32:KERNEL32.dll
 0002:00000148       __imp_RtlCaptureContext    0000000180028148     kernel32:KERNEL32.dll
 0002:00000150       __imp_RtlLookupFunctionEntry 0000000180028150     kernel32:KERNEL32.dll
 0002:00000158       __imp_RtlVirtualUnwind     0000000180028158     kernel32:KERNEL32.dll
 0002:00000160       __imp_UnhandledExceptionFilter 0000000180028160     kernel32:KERNEL32.dll
 0002:00000168       __imp_SetUnhandledExceptionFilter 0000000180028168     kernel32:KERNEL32.dll
 0002:00000170       __imp_GetCurrentProcess    0000000180028170     kernel32:KERNEL32.dll
 0002:00000178       __imp_TerminateProcess     0000000180028178     kernel32:KERNEL32.dll
 0002:00000180       __imp_IsProcessorFeaturePresent 0000000180028180     kernel32:KERNEL32.dll
 0002:00000188       __imp_IsDebuggerPresent    0000000180028188     kernel32:KERNEL32.dll
 0002:00000190       __imp_GetStartupInfoW      0000000180028190     kernel32:KERNEL32.dll
 0002:00000198       __imp_QueryPerformanceCounter 0000000180028198     kernel32:KERNEL32.dll
 0002:000001a0       __imp_GetCurrentProcessId  00000001800281a0     kernel32:KERNEL32.dll
 0002:000001a8       __imp_GetCurrentThreadId   00000001800281a8     kernel32:KERNEL32.dll
 0002:000001b0       __imp_InitializeSListHead  00000001800281b0     kernel32:KERNEL32.dll
 0002:000001b8       __imp_RtlPcToFileHeader    00000001800281b8     kernel32:KERNEL32.dll
 0002:000001c0       __imp_RaiseException       00000001800281c0     kernel32:KERNEL32.dll
 0002:000001c8       __imp_RtlUnwindEx          00000001800281c8     kernel32:KERNEL32.dll
 0002:000001d0       __imp_FreeLibrary          00000001800281d0     kernel32:KERNEL32.dll
 0002:000001d8       __imp_LoadLibraryExW       00000001800281d8     kernel32:KERNEL32.dll
 0002:000001e0       __imp_InterlockedFlushSList 00000001800281e0     kernel32:KERNEL32.dll
 0002:000001e8       __imp_HeapAlloc            00000001800281e8     kernel32:KERNEL32.dll
 0002:000001f0       __imp_HeapReAlloc          00000001800281f0     kernel32:KERNEL32.dll
 0002:000001f8       __imp_HeapFree             00000001800281f8     kernel32:KERNEL32.dll
 0002:00000200       __imp_ExitProcess          0000000180028200     kernel32:KERNEL32.dll
 0002:00000208       __imp_GetModuleHandleExW   0000000180028208     kernel32:KERNEL32.dll
 0002:00000210       __imp_GetModuleFileNameA   0000000180028210     kernel32:KERNEL32.dll
 0002:00000218       __imp_GetACP               0000000180028218     kernel32:KERNEL32.dll
 0002:00000220       __imp_GetStdHandle         0000000180028220     kernel32:KERNEL32.dll
 0002:00000228       __imp_GetFileType          0000000180028228     kernel32:KERNEL32.dll
 0002:00000230       __imp_IsValidLocale        0000000180028230     kernel32:KERNEL32.dll
 0002:00000238       __imp_GetUserDefaultLCID   0000000180028238     kernel32:KERNEL32.dll
 0002:00000240       __imp_EnumSystemLocalesW   0000000180028240     kernel32:KERNEL32.dll
 0002:00000248       __imp_GetProcessHeap       0000000180028248     kernel32:KERNEL32.dll
 0002:00000250       __imp_FindClose            0000000180028250     kernel32:KERNEL32.dll
 0002:00000258       __imp_FindFirstFileExA     0000000180028258     kernel32:KERNEL32.dll
 0002:00000260       __imp_FindNextFileA        0000000180028260     kernel32:KERNEL32.dll
 0002:00000268       __imp_IsValidCodePage      0000000180028268     kernel32:KERNEL32.dll
 0002:00000270       __imp_GetOEMCP             0000000180028270     kernel32:KERNEL32.dll
 0002:00000278       __imp_GetCommandLineA      0000000180028278     kernel32:KERNEL32.dll
 0002:00000280       __imp_GetCommandLineW      0000000180028280     kernel32:KERNEL32.dll
 0002:00000288       __imp_GetEnvironmentStringsW 0000000180028288     kernel32:KERNEL32.dll
 0002:00000290       __imp_FreeEnvironmentStringsW 0000000180028290     kernel32:KERNEL32.dll
 0002:00000298       __imp_LoadLibraryExA       0000000180028298     kernel32:KERNEL32.dll
 0002:000002a0       \177KERNEL32_NULL_THUNK_DATA 00000001800282a0     kernel32:KERNEL32.dll
 0002:000002a8       __imp_OpenPrinterW         00000001800282a8     winspool:WINSPOOL.DRV
 0002:000002b0       __imp_GetPrinterW          00000001800282b0     winspool:WINSPOOL.DRV
 0002:000002b8       __imp_StartDocPrinterW     00000001800282b8     winspool:WINSPOOL.DRV
 0002:000002c0       __imp_GetJobW              00000001800282c0     winspool:WINSPOOL.DRV
 0002:000002c8       __imp_EndPagePrinter       00000001800282c8     winspool:WINSPOOL.DRV
 0002:000002d0       __imp_EnumPrintProcessorDatatypesW 00000001800282d0     winspool:WINSPOOL.DRV
 0002:000002d8       __imp_EndDocPrinter        00000001800282d8     winspool:WINSPOOL.DRV
 0002:000002e0       __imp_SetJobW              00000001800282e0     winspool:WINSPOOL.DRV
 0002:000002e8       __imp_GetDefaultPrinterW   00000001800282e8     winspool:WINSPOOL.DRV
 0002:000002f0       __imp_EnumJobsW            00000001800282f0     winspool:WINSPOOL.DRV
 0002:000002f8       __imp_StartPagePrinter     00000001800282f8     winspool:WINSPOOL.DRV
 0002:00000300       __imp_EnumPrintProcessorsW 0000000180028300     winspool:WINSPOOL.DRV
 0002:00000308       __imp_ClosePrinter         0000000180028308     winspool:WINSPOOL.DRV
 0002:00000310       __imp_WritePrinter         0000000180028310     winspool:WINSPOOL.DRV
 0002:00000318       __imp_EnumPrintersW        0000000180028318     winspool:WINSPOOL.DRV
 0002:00000320       \177WINSPOOL_NULL_THUNK_DATA 0000000180028320     winspool:WINSPOOL.DRV
 0002:00000328       __guard_check_icall_fptr   0000000180028328     LIBCMT:guard_support.obj
 0002:00000330       __guard_dispatch_icall_fptr 0000000180028330     LIBCMT:guard_support.obj
 0002:00000338       __xc_a                     0000000180028338     LIBCMT:initializers.obj
 0002:00000368       _register_node_printer_    0000000180028368     node_printer.obj
 0002:00000370       __xc_z                     0000000180028370     LIBCMT:initializers.obj
 0002:00000378       __xi_a                     0000000180028378     LIBCMT:initializers.obj
 0002:00000390       __acrt_stdio_initializer   0000000180028390     libucrt:stdio_initializer.obj
 0002:00000398       __acrt_tran_fma3_initializer 0000000180028398     libucrt:fma3_initializer.obj
 0002:000003a0       __acrt_timeset_initializer 00000001800283a0     libucrt:timeset_initializer.obj
 0002:000003a8       __acrt_multibyte_initializer 00000001800283a8     libucrt:multibyte_initializer.obj
 0002:000003b0       __xi_z                     00000001800283b0     LIBCMT:initializers.obj
 0002:000003b8       __xl_a                     00000001800283b8     LIBCMT:tlssup.obj
 0002:000003c0       __xl_z                     00000001800283c0     LIBCMT:tlssup.obj
 0002:000003c8       __xp_a                     00000001800283c8     LIBCMT:initializers.obj
 0002:000003d0       __acrt_locale_terminator   00000001800283d0     libucrt:locale_initializer.obj
 0002:000003d8       __dcrt_console_output_terminator 00000001800283d8     libucrt:console_output_initializer.obj
 0002:000003e0       __acrt_stdio_terminator    00000001800283e0     libucrt:stdio_initializer.obj
 0002:000003e8       __xp_z                     00000001800283e8     LIBCMT:initializers.obj
 0002:000003f0       __xt_a                     00000001800283f0     LIBCMT:initializers.obj
 0002:000003f8       __xt_z                     00000001800283f8     LIBCMT:initializers.obj
 0002:00000400       __sz_node_exe              0000000180028400     node:node.exe
 0002:00000418       ??_7exception@std@@6B@     0000000180028418     libcpmt:xthrow.obj
 0002:00000428       ??_C@_0BC@EOODALEL@Unknown?5exception?$AA@ 0000000180028428     libcpmt:xthrow.obj
 0002:00000448       ??_7bad_alloc@std@@6B@     0000000180028448     libcpmt:xthrow.obj
 0002:00000458       ??_C@_0P@GHFPNOJB@bad?5allocation?$AA@ 0000000180028458     libcpmt:xthrow.obj
 0002:00000470       ??_7logic_error@std@@6B@   0000000180028470     libcpmt:xthrow.obj
 0002:00000488       ??_7length_error@std@@6B@  0000000180028488     libcpmt:xthrow.obj
 0002:000004a0       ??_7out_of_range@std@@6B@  00000001800284a0     libcpmt:xthrow.obj
 0002:000004b8       ??_7runtime_error@std@@6B@ 00000001800284b8     libcpmt:xthrow.obj
 0002:00000598       ??_7_Facet_base@std@@6B@   0000000180028598     libcpmt:locale0.obj
 0002:000005b8       ??_7_Locimp@locale@std@@6B@ 00000001800285b8     libcpmt:locale0.obj
 0002:000005d0       ??_C@_01NBENCBCI@?$CK?$AA@ 00000001800285d0     libcpmt:locale0.obj
 0002:000005d4       ??_C@_01GFHCPBMG@C?$AA@    00000001800285d4     libcpmt:locale0.obj
 0002:000005d8       ?_BADOFF@std@@3_JB         00000001800285d8     libcpmt:ios.obj
 0002:00000d10       ??_C@_0BN@LKKBCCDB@address?5family?5not?5supported?$AA@ 0000000180028d10     libcpmt:syserror.obj
 0002:00000d30       ??_C@_0P@LDMLAFHI@address?5in?5use?$AA@ 0000000180028d30     libcpmt:syserror.obj
 0002:00000d40       ??_C@_0BG@DHPCNBJB@address?5not?5available?$AA@ 0000000180028d40     libcpmt:syserror.obj
 0002:00000d58       ??_C@_0BC@DFIBIBIL@already?5connected?$AA@ 0000000180028d58     libcpmt:syserror.obj
 0002:00000d70       ??_C@_0BH@CAKOHOMI@argument?5list?5too?5long?$AA@ 0000000180028d70     libcpmt:syserror.obj
 0002:00000d88       ??_C@_0BH@CGIMPKIM@argument?5out?5of?5domain?$AA@ 0000000180028d88     libcpmt:syserror.obj
 0002:00000da0       ??_C@_0M@KGHGGJGL@bad?5address?$AA@ 0000000180028da0     libcpmt:syserror.obj
 0002:00000db0       ??_C@_0BE@MPJPGCEO@bad?5file?5descriptor?$AA@ 0000000180028db0     libcpmt:syserror.obj
 0002:00000dc8       ??_C@_0M@PMMIEFCP@bad?5message?$AA@ 0000000180028dc8     libcpmt:syserror.obj
 0002:00000dd8       ??_C@_0M@KPHOFDBE@broken?5pipe?$AA@ 0000000180028dd8     libcpmt:syserror.obj
 0002:00000de8       ??_C@_0BD@MGNDDEGM@connection?5aborted?$AA@ 0000000180028de8     libcpmt:syserror.obj
 0002:00000e00       ??_C@_0BP@KAIHPOGN@connection?5already?5in?5progress?$AA@ 0000000180028e00     libcpmt:syserror.obj
 0002:00000e20       ??_C@_0BD@PJLIIJEL@connection?5refused?$AA@ 0000000180028e20     libcpmt:syserror.obj
 0002:00000e38       ??_C@_0BB@IECNJNOI@connection?5reset?$AA@ 0000000180028e38     libcpmt:syserror.obj
 0002:00000e50       ??_C@_0BC@PPHBOELF@cross?5device?5link?$AA@ 0000000180028e50     libcpmt:syserror.obj
 0002:00000e68       ??_C@_0BN@KDMIFEIP@destination?5address?5required?$AA@ 0000000180028e68     libcpmt:syserror.obj
 0002:00000e88       ??_C@_0BI@NGCEHDD@device?5or?5resource?5busy?$AA@ 0000000180028e88     libcpmt:syserror.obj
 0002:00000ea0       ??_C@_0BE@JIDOCPHM@directory?5not?5empty?$AA@ 0000000180028ea0     libcpmt:syserror.obj
 0002:00000eb8       ??_C@_0BI@BNCLIGPB@executable?5format?5error?$AA@ 0000000180028eb8     libcpmt:syserror.obj
 0002:00000ed0       ??_C@_0M@MIDIAGJP@file?5exists?$AA@ 0000000180028ed0     libcpmt:syserror.obj
 0002:00000ee0       ??_C@_0P@DNAJLBJK@file?5too?5large?$AA@ 0000000180028ee0     libcpmt:syserror.obj
 0002:00000ef0       ??_C@_0BC@EJHOMAAK@filename?5too?5long?$AA@ 0000000180028ef0     libcpmt:syserror.obj
 0002:00000f08       ??_C@_0BH@KEFGLDAF@function?5not?5supported?$AA@ 0000000180028f08     libcpmt:syserror.obj
 0002:00000f20       ??_C@_0BB@DHFDFGDM@host?5unreachable?$AA@ 0000000180028f20     libcpmt:syserror.obj
 0002:00000f38       ??_C@_0BD@JPHBMONG@identifier?5removed?$AA@ 0000000180028f38     libcpmt:syserror.obj
 0002:00000f50       ??_C@_0BG@CDNPAGJK@illegal?5byte?5sequence?$AA@ 0000000180028f50     libcpmt:syserror.obj
 0002:00000f68       ??_C@_0CD@BNPLBMNA@inappropriate?5io?5control?5operati@ 0000000180028f68     libcpmt:syserror.obj
 0002:00000f90       ??_C@_0M@EGEKIIMP@interrupted?$AA@ 0000000180028f90     libcpmt:syserror.obj
 0002:00000fa0       ??_C@_0BB@FCMFBGOM@invalid?5argument?$AA@ 0000000180028fa0     libcpmt:syserror.obj
 0002:00000fb8       ??_C@_0N@OHAFKDEK@invalid?5seek?$AA@ 0000000180028fb8     libcpmt:syserror.obj
 0002:00000fc8       ??_C@_08GLNPIFBN@io?5error?$AA@ 0000000180028fc8     libcpmt:syserror.obj
 0002:00000fd8       ??_C@_0P@FLLDBIDK@is?5a?5directory?$AA@ 0000000180028fd8     libcpmt:syserror.obj
 0002:00000fe8       ??_C@_0N@IFLPBIOP@message?5size?$AA@ 0000000180028fe8     libcpmt:syserror.obj
 0002:00000ff8       ??_C@_0N@KIIEAAIO@network?5down?$AA@ 0000000180028ff8     libcpmt:syserror.obj
 0002:00001008       ??_C@_0O@FNPDBHEE@network?5reset?$AA@ 0000000180029008     libcpmt:syserror.obj
 0002:00001018       ??_C@_0BE@IFNCKGE@network?5unreachable?$AA@ 0000000180029018     libcpmt:syserror.obj
 0002:00001030       ??_C@_0BA@PFFCAOFK@no?5buffer?5space?$AA@ 0000000180029030     libcpmt:syserror.obj
 0002:00001040       ??_C@_0BB@IEPBLJHK@no?5child?5process?$AA@ 0000000180029040     libcpmt:syserror.obj
 0002:00001058       ??_C@_07PLECNNKG@no?5link?$AA@ 0000000180029058     libcpmt:syserror.obj
 0002:00001060       ??_C@_0BC@NJECKMKE@no?5lock?5available?$AA@ 0000000180029060     libcpmt:syserror.obj
 0002:00001078       ??_C@_0BF@PBGGPKKE@no?5message?5available?$AA@ 0000000180029078     libcpmt:syserror.obj
 0002:00001090       ??_C@_0L@EDOLMPAK@no?5message?$AA@ 0000000180029090     libcpmt:syserror.obj
 0002:000010a0       ??_C@_0BD@EAMBFIDF@no?5protocol?5option?$AA@ 00000001800290a0     libcpmt:syserror.obj
 0002:000010b8       ??_C@_0BD@IJDJKDEA@no?5space?5on?5device?$AA@ 00000001800290b8     libcpmt:syserror.obj
 0002:000010d0       ??_C@_0BE@MKFDAFMP@no?5stream?5resources?$AA@ 00000001800290d0     libcpmt:syserror.obj
 0002:000010e8       ??_C@_0BK@IMCPHCBI@no?5such?5device?5or?5address?$AA@ 00000001800290e8     libcpmt:syserror.obj
 0002:00001108       ??_C@_0P@FDINDDOK@no?5such?5device?$AA@ 0000000180029108     libcpmt:syserror.obj
 0002:00001118       ??_C@_0BK@NDOCBPGE@no?5such?5file?5or?5directory?$AA@ 0000000180029118     libcpmt:syserror.obj
 0002:00001138       ??_C@_0BA@ENLPPKBN@no?5such?5process?$AA@ 0000000180029138     libcpmt:syserror.obj
 0002:00001148       ??_C@_0BA@DOCPFFJG@not?5a?5directory?$AA@ 0000000180029148     libcpmt:syserror.obj
 0002:00001158       ??_C@_0N@POEIPGGF@not?5a?5socket?$AA@ 0000000180029158     libcpmt:syserror.obj
 0002:00001168       ??_C@_0N@LGAPMMPI@not?5a?5stream?$AA@ 0000000180029168     libcpmt:syserror.obj
 0002:00001178       ??_C@_0O@GLMIBBEG@not?5connected?$AA@ 0000000180029178     libcpmt:syserror.obj
 0002:00001188       ??_C@_0BC@ENOOLCNF@not?5enough?5memory?$AA@ 0000000180029188     libcpmt:syserror.obj
 0002:000011a0       ??_C@_0O@NHEDABJP@not?5supported?$AA@ 00000001800291a0     libcpmt:syserror.obj
 0002:000011b0       ??_C@_0BD@MOLBPMEA@operation?5canceled?$AA@ 00000001800291b0     libcpmt:syserror.obj
 0002:000011c8       ??_C@_0BG@KDKHOPCO@operation?5in?5progress?$AA@ 00000001800291c8     libcpmt:syserror.obj
 0002:000011e0       ??_C@_0BI@OHIEJAAB@operation?5not?5permitted?$AA@ 00000001800291e0     libcpmt:syserror.obj
 0002:000011f8       ??_C@_0BI@LNEGIFLN@operation?5not?5supported?$AA@ 00000001800291f8     libcpmt:syserror.obj
 0002:00001210       ??_C@_0BG@OEMDKMEE@operation?5would?5block?$AA@ 0000000180029210     libcpmt:syserror.obj
 0002:00001228       ??_C@_0L@BLPOFLNJ@owner?5dead?$AA@ 0000000180029228     libcpmt:syserror.obj
 0002:00001238       ??_C@_0BC@CIJDGCDI@permission?5denied?$AA@ 0000000180029238     libcpmt:syserror.obj
 0002:00001250       ??_C@_0P@FNPOCJBE@protocol?5error?$AA@ 0000000180029250     libcpmt:syserror.obj
 0002:00001260       ??_C@_0BH@JPPPLHJB@protocol?5not?5supported?$AA@ 0000000180029260     libcpmt:syserror.obj
 0002:00001278       ??_C@_0BG@EICBIHDP@read?5only?5file?5system?$AA@ 0000000180029278     libcpmt:syserror.obj
 0002:00001290       ??_C@_0BO@BJBOMOEJ@resource?5deadlock?5would?5occur?$AA@ 0000000180029290     libcpmt:syserror.obj
 0002:000012b0       ??_C@_0BP@LKNGHENJ@resource?5unavailable?5try?5again?$AA@ 00000001800292b0     libcpmt:syserror.obj
 0002:000012d0       ??_C@_0BE@GOIPJJHG@result?5out?5of?5range?$AA@ 00000001800292d0     libcpmt:syserror.obj
 0002:000012e8       ??_C@_0BG@MPLKFPAE@state?5not?5recoverable?$AA@ 00000001800292e8     libcpmt:syserror.obj
 0002:00001300       ??_C@_0P@DIIFGFCG@stream?5timeout?$AA@ 0000000180029300     libcpmt:syserror.obj
 0002:00001310       ??_C@_0P@IPFDMIFL@text?5file?5busy?$AA@ 0000000180029310     libcpmt:syserror.obj
 0002:00001320       ??_C@_09KJPPMAOI@timed?5out?$AA@ 0000000180029320     libcpmt:syserror.obj
 0002:00001330       ??_C@_0BO@HACHBEKI@too?5many?5files?5open?5in?5system?$AA@ 0000000180029330     libcpmt:syserror.obj
 0002:00001350       ??_C@_0BE@GHAFMPAH@too?5many?5files?5open?$AA@ 0000000180029350     libcpmt:syserror.obj
 0002:00001368       ??_C@_0P@HCOMKFCC@too?5many?5links?$AA@ 0000000180029368     libcpmt:syserror.obj
 0002:00001378       ??_C@_0BO@EFGOJEF@too?5many?5symbolic?5link?5levels?$AA@ 0000000180029378     libcpmt:syserror.obj
 0002:00001398       ??_C@_0BA@KGKGOOJA@value?5too?5large?$AA@ 0000000180029398     libcpmt:syserror.obj
 0002:000013a8       ??_C@_0BE@MIEJDDNH@wrong?5protocol?5type?$AA@ 00000001800293a8     libcpmt:syserror.obj
 0002:000013c0       ??_C@_0O@BFJCFAAK@unknown?5error?$AA@ 00000001800293c0     libcpmt:syserror.obj
 0002:00001400       ??_7?$ctype@D@std@@6B@     0000000180029400     libcpmt:locale.obj
 0002:00001460       ??_7?$num_put@DV?$ostreambuf_iterator@DU?$char_traits@D@std@@@std@@@std@@6B@ 0000000180029460     libcpmt:locale.obj
 0002:000014c0       ??_7?$numpunct@D@std@@6B@  00000001800294c0     libcpmt:locale.obj
 0002:00001500       ??_C@_1BK@MGMFAEKH@?$AAk?$AAe?$AAr?$AAn?$AAe?$AAl?$AA3?$AA2?$AA?4?$AAd?$AAl?$AAl?$AA?$AA@ 0000000180029500     libcpmt:winapisupp.obj
 0002:00001520       ??_C@_08KNHFBNJ@FlsAlloc?$AA@ 0000000180029520     libcpmt:winapisupp.obj
 0002:00001530       ??_C@_07PEJMOBNF@FlsFree?$AA@ 0000000180029530     libcpmt:winapisupp.obj
 0002:00001538       ??_C@_0M@GDNOONDI@FlsGetValue?$AA@ 0000000180029538     libcpmt:winapisupp.obj
 0002:00001548       ??_C@_0M@JCPCPOEF@FlsSetValue?$AA@ 0000000180029548     libcpmt:winapisupp.obj
 0002:00001558       ??_C@_0BM@HCFOFFN@InitializeCriticalSectionEx?$AA@ 0000000180029558     libcpmt:winapisupp.obj
 0002:00001578       ??_C@_0BE@GPLMMCMH@InitOnceExecuteOnce?$AA@ 0000000180029578     libcpmt:winapisupp.obj
 0002:00001590       ??_C@_0P@DLHPPCNH@CreateEventExW?$AA@ 0000000180029590     libcpmt:winapisupp.obj
 0002:000015a0       ??_C@_0BB@MEFPJLHN@CreateSemaphoreW?$AA@ 00000001800295a0     libcpmt:winapisupp.obj
 0002:000015b8       ??_C@_0BD@KIEEOEEH@CreateSemaphoreExW?$AA@ 00000001800295b8     libcpmt:winapisupp.obj
 0002:000015d0       ??_C@_0BG@OGFAJCKC@CreateThreadpoolTimer?$AA@ 00000001800295d0     libcpmt:winapisupp.obj
 0002:000015e8       ??_C@_0BD@LPLEMMDI@SetThreadpoolTimer?$AA@ 00000001800295e8     libcpmt:winapisupp.obj
 0002:00001600       ??_C@_0CA@FMNJENH@WaitForThreadpoolTimerCallbacks?$AA@ 0000000180029600     libcpmt:winapisupp.obj
 0002:00001620       ??_C@_0BF@DCFCCNOC@CloseThreadpoolTimer?$AA@ 0000000180029620     libcpmt:winapisupp.obj
 0002:00001638       ??_C@_0BF@FLABGKKM@CreateThreadpoolWait?$AA@ 0000000180029638     libcpmt:winapisupp.obj
 0002:00001650       ??_C@_0BC@MGCOHNA@SetThreadpoolWait?$AA@ 0000000180029650     libcpmt:winapisupp.obj
 0002:00001668       ??_C@_0BE@OCIOMIMP@CloseThreadpoolWait?$AA@ 0000000180029668     libcpmt:winapisupp.obj
 0002:00001680       ??_C@_0BJ@LKGHFHBO@FlushProcessWriteBuffers?$AA@ 0000000180029680     libcpmt:winapisupp.obj
 0002:000016a0       ??_C@_0BP@KALKKPMO@FreeLibraryWhenCallbackReturns?$AA@ 00000001800296a0     libcpmt:winapisupp.obj
 0002:000016c0       ??_C@_0BK@DFNBACLA@GetCurrentProcessorNumber?$AA@ 00000001800296c0     libcpmt:winapisupp.obj
 0002:000016e0       ??_C@_0BE@FKKLLFLM@CreateSymbolicLinkW?$AA@ 00000001800296e0     libcpmt:winapisupp.obj
 0002:000016f8       ??_C@_0BE@JOGNEJCI@GetCurrentPackageId?$AA@ 00000001800296f8     libcpmt:winapisupp.obj
 0002:00001710       ??_C@_0P@CDHHOHKP@GetTickCount64?$AA@ 0000000180029710     libcpmt:winapisupp.obj
 0002:00001720       ??_C@_0BN@NEEHBBPO@GetFileInformationByHandleEx?$AA@ 0000000180029720     libcpmt:winapisupp.obj
 0002:00001740       ??_C@_0BL@KBBHGKCM@SetFileInformationByHandle?$AA@ 0000000180029740     libcpmt:winapisupp.obj
 0002:00001760       ??_C@_0BP@FPNJPEJC@GetSystemTimePreciseAsFileTime?$AA@ 0000000180029760     libcpmt:winapisupp.obj
 0002:00001780       ??_C@_0BM@HLJJNPAH@InitializeConditionVariable?$AA@ 0000000180029780     libcpmt:winapisupp.obj
 0002:000017a0       ??_C@_0BG@BFNILBLN@WakeConditionVariable?$AA@ 00000001800297a0     libcpmt:winapisupp.obj
 0002:000017b8       ??_C@_0BJ@PGPPEPCC@WakeAllConditionVariable?$AA@ 00000001800297b8     libcpmt:winapisupp.obj
 0002:000017d8       ??_C@_0BJ@JEBJOJFJ@SleepConditionVariableCS?$AA@ 00000001800297d8     libcpmt:winapisupp.obj
 0002:000017f8       ??_C@_0BC@MMLHEBPB@InitializeSRWLock?$AA@ 00000001800297f8     libcpmt:winapisupp.obj
 0002:00001810       ??_C@_0BI@OMNLIJDB@AcquireSRWLockExclusive?$AA@ 0000000180029810     libcpmt:winapisupp.obj
 0002:00001828       ??_C@_0BL@OGHFEMNA@TryAcquireSRWLockExclusive?$AA@ 0000000180029828     libcpmt:winapisupp.obj
 0002:00001848       ??_C@_0BI@HMIEPCNJ@ReleaseSRWLockExclusive?$AA@ 0000000180029848     libcpmt:winapisupp.obj
 0002:00001860       ??_C@_0BK@LGACAGIC@SleepConditionVariableSRW?$AA@ 0000000180029860     libcpmt:winapisupp.obj
 0002:00001880       ??_C@_0BF@GGPHFPJA@CreateThreadpoolWork?$AA@ 0000000180029880     libcpmt:winapisupp.obj
 0002:00001898       ??_C@_0BF@NHDAIMMO@SubmitThreadpoolWork?$AA@ 0000000180029898     libcpmt:winapisupp.obj
 0002:000018b0       ??_C@_0BE@NPHIPNPD@CloseThreadpoolWork?$AA@ 00000001800298b0     libcpmt:winapisupp.obj
 0002:000018c8       ??_C@_0BA@IHGNDAEB@CompareStringEx?$AA@ 00000001800298c8     libcpmt:winapisupp.obj
 0002:000018d8       ??_C@_0BA@ONOKGCMP@GetLocaleInfoEx?$AA@ 00000001800298d8     libcpmt:winapisupp.obj
 0002:000018e8       ??_C@_0O@KKBNKAPF@LCMapStringEx?$AA@ 00000001800298e8     libcpmt:winapisupp.obj
 0002:000018f8       ??_C@_11LOCGONAA@?$AA?$AA@ 00000001800298f8     libcpmt:wlocale.obj
 0002:000018fc       ??_C@_01JOAMLHOP@?9?$AA@   00000001800298fc     libcpmt:wlocale.obj
 0002:00001900       __xmm@80000000000000008000000000000000 0000000180029900     libcpmt:wlocale.obj
 0002:000019b0       ??_C@_1M@JKFFICHJ@?$AAe?$AAs?$AA?9?$AAv?$AAe?$AA?$AA@ 00000001800299b0     libcpmt:winapinls.obj
 0002:000019c0       ??_C@_1M@PNMLOJDF@?$AAe?$AAt?$AA?9?$AAe?$AAe?$AA?$AA@ 00000001800299c0     libcpmt:winapinls.obj
 0002:000019d0       ??_C@_1M@GHHLIKEI@?$AAe?$AAu?$AA?9?$AAe?$AAs?$AA?$AA@ 00000001800299d0     libcpmt:winapinls.obj
 0002:000019e0       ??_C@_1M@PBNONODE@?$AAf?$AAa?$AA?9?$AAi?$AAr?$AA?$AA@ 00000001800299e0     libcpmt:winapinls.obj
 0002:000019f0       ??_C@_1M@JEEHPMIL@?$AAf?$AAi?$AA?9?$AAf?$AAi?$AA?$AA@ 00000001800299f0     libcpmt:winapinls.obj
 0002:00001a00       ??_C@_1M@LMDCNDBA@?$AAf?$AAo?$AA?9?$AAf?$AAo?$AA?$AA@ 0000000180029a00     libcpmt:winapinls.obj
 0002:00001a10       ??_C@_1M@JKEOHLDK@?$AAf?$AAr?$AA?9?$AAb?$AAe?$AA?$AA@ 0000000180029a10     libcpmt:winapinls.obj
 0002:00001a20       ??_C@_1M@NOHADPMI@?$AAf?$AAr?$AA?9?$AAc?$AAa?$AA?$AA@ 0000000180029a20     libcpmt:winapinls.obj
 0002:00001a30       ??_C@_1M@KDHIHAEC@?$AAf?$AAr?$AA?9?$AAc?$AAh?$AA?$AA@ 0000000180029a30     libcpmt:winapinls.obj
 0002:00001a40       ??_C@_1M@MMBBFGAK@?$AAf?$AAr?$AA?9?$AAf?$AAr?$AA?$AA@ 0000000180029a40     libcpmt:winapinls.obj
 0002:00001a50       ??_C@_1M@PAFNENNF@?$AAf?$AAr?$AA?9?$AAl?$AAu?$AA?$AA@ 0000000180029a50     libcpmt:winapinls.obj
 0002:00001a60       ??_C@_1M@EOHDJGDD@?$AAf?$AAr?$AA?9?$AAm?$AAc?$AA?$AA@ 0000000180029a60     libcpmt:winapinls.obj
 0002:00001a70       ??_C@_1M@FAPLLOPF@?$AAg?$AAl?$AA?9?$AAe?$AAs?$AA?$AA@ 0000000180029a70     libcpmt:winapinls.obj
 0002:00001a80       ??_C@_1M@FOPBFLOO@?$AAg?$AAu?$AA?9?$AAi?$AAn?$AA?$AA@ 0000000180029a80     libcpmt:winapinls.obj
 0002:00001a90       ??_C@_1M@KBMCINPM@?$AAh?$AAe?$AA?9?$AAi?$AAl?$AA?$AA@ 0000000180029a90     libcpmt:winapinls.obj
 0002:00001aa0       ??_C@_1M@BBPHKFPJ@?$AAh?$AAi?$AA?9?$AAi?$AAn?$AA?$AA@ 0000000180029aa0     libcpmt:winapinls.obj
 0002:00001ab0       ??_C@_1M@PMBNDPHD@?$AAh?$AAr?$AA?9?$AAb?$AAa?$AA?$AA@ 0000000180029ab0     libcpmt:winapinls.obj
 0002:00001ac0       ??_C@_1M@BPCKOEGE@?$AAh?$AAr?$AA?9?$AAh?$AAr?$AA?$AA@ 0000000180029ac0     libcpmt:winapinls.obj
 0002:00001ad0       ??_C@_1M@GACBMHKE@?$AAh?$AAu?$AA?9?$AAh?$AAu?$AA?$AA@ 0000000180029ad0     libcpmt:winapinls.obj
 0002:00001ae0       ??_C@_1M@MILPAJJC@?$AAh?$AAy?$AA?9?$AAa?$AAm?$AA?$AA@ 0000000180029ae0     libcpmt:winapinls.obj
 0002:00001af0       ??_C@_1M@BABBICEC@?$AAi?$AAd?$AA?9?$AAi?$AAd?$AA?$AA@ 0000000180029af0     libcpmt:winapinls.obj
 0002:00001b00       ??_C@_1M@BIKNHHPF@?$AAi?$AAs?$AA?9?$AAi?$AAs?$AA?$AA@ 0000000180029b00     libcpmt:winapinls.obj
 0002:00001b10       ??_C@_1M@NMPCJPHE@?$AAi?$AAt?$AA?9?$AAc?$AAh?$AA?$AA@ 0000000180029b10     libcpmt:winapinls.obj
 0002:00001b20       ??_C@_1M@GHKGFEDF@?$AAi?$AAt?$AA?9?$AAi?$AAt?$AA?$AA@ 0000000180029b20     libcpmt:winapinls.obj
 0002:00001b30       ??_C@_1M@NIEJCJJA@?$AAj?$AAa?$AA?9?$AAj?$AAp?$AA?$AA@ 0000000180029b30     libcpmt:winapinls.obj
 0002:00001b40       ??_C@_1M@JILFNBIM@?$AAk?$AAa?$AA?9?$AAg?$AAe?$AA?$AA@ 0000000180029b40     libcpmt:winapinls.obj
 0002:00001b50       ??_C@_1M@PACPMGPH@?$AAk?$AAk?$AA?9?$AAk?$AAz?$AA?$AA@ 0000000180029b50     libcpmt:winapinls.obj
 0002:00001b60       ??_C@_1M@IELFGMHA@?$AAk?$AAn?$AA?9?$AAi?$AAn?$AA?$AA@ 0000000180029b60     libcpmt:winapinls.obj
 0002:00001b70       ??_C@_1M@DMHAEOGC@?$AAk?$AAo?$AA?9?$AAk?$AAr?$AA?$AA@ 0000000180029b70     libcpmt:winapinls.obj
 0002:00001b80       ??_C@_1O@IBBJHCH@?$AAk?$AAo?$AAk?$AA?9?$AAi?$AAn?$AA?$AA@ 0000000180029b80     libcpmt:winapinls.obj
 0002:00001b90       ??_C@_1M@HBAHBIGA@?$AAk?$AAy?$AA?9?$AAk?$AAg?$AA?$AA@ 0000000180029b90     libcpmt:winapinls.obj
 0002:00001ba0       ??_C@_1M@KPMILCJG@?$AAl?$AAt?$AA?9?$AAl?$AAt?$AA?$AA@ 0000000180029ba0     libcpmt:winapinls.obj
 0002:00001bb0       ??_C@_1M@BDEKKCA@?$AAl?$AAv?$AA?9?$AAl?$AAv?$AA?$AA@ 0000000180029bb0     libcpmt:winapinls.obj
 0002:00001bc0       ??_C@_1M@ELCKCCJJ@?$AAm?$AAi?$AA?9?$AAn?$AAz?$AA?$AA@ 0000000180029bc0     libcpmt:winapinls.obj
 0002:00001bd0       ??_C@_1M@CBOOLAPA@?$AAm?$AAk?$AA?9?$AAm?$AAk?$AA?$AA@ 0000000180029bd0     libcpmt:winapinls.obj
 0002:00001be0       ??_C@_1M@GPHNBJKN@?$AAm?$AAl?$AA?9?$AAi?$AAn?$AA?$AA@ 0000000180029be0     libcpmt:winapinls.obj
 0002:00001bf0       ??_C@_1M@PABJILIG@?$AAm?$AAn?$AA?9?$AAm?$AAn?$AA?$AA@ 0000000180029bf0     libcpmt:winapinls.obj
 0002:00001c00       ??_C@_1M@FGBKKIPG@?$AAm?$AAr?$AA?9?$AAi?$AAn?$AA?$AA@ 0000000180029c00     libcpmt:winapinls.obj
 0002:00001c10       ??_C@_1M@NDBPDDAL@?$AAm?$AAs?$AA?9?$AAb?$AAn?$AA?$AA@ 0000000180029c10     libcpmt:winapinls.obj
 0002:00001c20       ??_C@_1M@OPIHOOPI@?$AAm?$AAs?$AA?9?$AAm?$AAy?$AA?$AA@ 0000000180029c20     libcpmt:winapinls.obj
 0002:00001c30       ??_C@_1M@PPDBCNFM@?$AAm?$AAt?$AA?9?$AAm?$AAt?$AA?$AA@ 0000000180029c30     libcpmt:winapinls.obj
 0002:00001c40       ??_C@_1M@KDJDKMDD@?$AAn?$AAb?$AA?9?$AAn?$AAo?$AA?$AA@ 0000000180029c40     libcpmt:winapinls.obj
 0002:00001c50       ??_C@_1M@KFCFLMJP@?$AAn?$AAl?$AA?9?$AAb?$AAe?$AA?$AA@ 0000000180029c50     libcpmt:winapinls.obj
 0002:00001c60       ??_C@_1M@KPOPDDGO@?$AAn?$AAl?$AA?9?$AAn?$AAl?$AA?$AA@ 0000000180029c60     libcpmt:winapinls.obj
 0002:00001c70       ??_C@_1M@LJKPEMLN@?$AAn?$AAn?$AA?9?$AAn?$AAo?$AA?$AA@ 0000000180029c70     libcpmt:winapinls.obj
 0002:00001c80       ??_C@_1M@BDGHHBFL@?$AAn?$AAs?$AA?9?$AAz?$AAa?$AA?$AA@ 0000000180029c80     libcpmt:winapinls.obj
 0002:00001c90       ??_C@_1M@IDEHOAP@?$AAp?$AAa?$AA?9?$AAi?$AAn?$AA?$AA@ 0000000180029c90     libcpmt:winapinls.obj
 0002:00001ca0       ??_C@_1M@HDBKGOGH@?$AAp?$AAl?$AA?9?$AAp?$AAl?$AA?$AA@ 0000000180029ca0     libcpmt:winapinls.obj
 0002:00001cb0       ??_C@_1M@LJLLCMEH@?$AAp?$AAt?$AA?9?$AAb?$AAr?$AA?$AA@ 0000000180029cb0     libcpmt:winapinls.obj
 0002:00001cc0       ??_C@_1M@NCMONAAL@?$AAp?$AAt?$AA?9?$AAp?$AAt?$AA?$AA@ 0000000180029cc0     libcpmt:winapinls.obj
 0002:00001cd0       ??_C@_1O@EAKMAJDN@?$AAq?$AAu?$AAz?$AA?9?$AAb?$AAo?$AA?$AA@ 0000000180029cd0     libcpmt:winapinls.obj
 0002:00001ce0       ??_C@_1O@BHHPIGDN@?$AAq?$AAu?$AAz?$AA?9?$AAe?$AAc?$AA?$AA@ 0000000180029ce0     libcpmt:winapinls.obj
 0002:00001cf0       ??_C@_1O@GBAPEKMJ@?$AAq?$AAu?$AAz?$AA?9?$AAp?$AAe?$AA?$AA@ 0000000180029cf0     libcpmt:winapinls.obj
 0002:00001d00       ??_C@_1M@CLGLEFBO@?$AAr?$AAo?$AA?9?$AAr?$AAo?$AA?$AA@ 0000000180029d00     libcpmt:winapinls.obj
 0002:00001d10       ??_C@_1M@CEEDODME@?$AAr?$AAu?$AA?9?$AAr?$AAu?$AA?$AA@ 0000000180029d10     libcpmt:winapinls.obj
 0002:00001d20       ??_C@_1M@HPKKKMPP@?$AAs?$AAa?$AA?9?$AAi?$AAn?$AA?$AA@ 0000000180029d20     libcpmt:winapinls.obj
 0002:00001d30       ??_C@_1M@BKMAIGOJ@?$AAs?$AAe?$AA?9?$AAf?$AAi?$AA?$AA@ 0000000180029d30     libcpmt:winapinls.obj
 0002:00001d40       ??_C@_1M@NDPIFLFI@?$AAs?$AAe?$AA?9?$AAn?$AAo?$AA?$AA@ 0000000180029d40     libcpmt:winapinls.obj
 0002:00001d50       ??_C@_1M@DANKKHJ@?$AAs?$AAe?$AA?9?$AAs?$AAe?$AA?$AA@ 0000000180029d50     libcpmt:winapinls.obj
 0002:00001d60       ??_C@_1M@PNBLONPJ@?$AAs?$AAk?$AA?9?$AAs?$AAk?$AA?$AA@ 0000000180029d60     libcpmt:winapinls.obj
 0002:00001d70       ??_C@_1M@LFMODOAL@?$AAs?$AAl?$AA?9?$AAs?$AAi?$AA?$AA@ 0000000180029d70     libcpmt:winapinls.obj
 0002:00001d80       ??_C@_1O@DFKOMPG@?$AAs?$AAm?$AAa?$AA?9?$AAn?$AAo?$AA?$AA@ 0000000180029d80     libcpmt:winapinls.obj
 0002:00001d90       ??_C@_1O@NDKPBNNH@?$AAs?$AAm?$AAa?$AA?9?$AAs?$AAe?$AA?$AA@ 0000000180029d90     libcpmt:winapinls.obj
 0002:00001da0       ??_C@_1O@PLLKBHAB@?$AAs?$AAm?$AAj?$AA?9?$AAn?$AAo?$AA?$AA@ 0000000180029da0     libcpmt:winapinls.obj
 0002:00001db0       ??_C@_1O@CLEPOGCA@?$AAs?$AAm?$AAj?$AA?9?$AAs?$AAe?$AA?$AA@ 0000000180029db0     libcpmt:winapinls.obj
 0002:00001dc0       ??_C@_1O@DLGJGKMK@?$AAs?$AAm?$AAn?$AA?9?$AAf?$AAi?$AA?$AA@ 0000000180029dc0     libcpmt:winapinls.obj
 0002:00001dd0       ??_C@_1O@OJDJGAJC@?$AAs?$AAm?$AAs?$AA?9?$AAf?$AAi?$AA?$AA@ 0000000180029dd0     libcpmt:winapinls.obj
 0002:00001de0       ??_C@_1M@BOFOGHPB@?$AAs?$AAq?$AA?9?$AAa?$AAl?$AA?$AA@ 0000000180029de0     libcpmt:winapinls.obj
 0002:00001df0       ??_C@_1BG@LJBBIPGB@?$AAs?$AAr?$AA?9?$AAb?$AAa?$AA?9?$AAc?$AAy?$AAr?$AAl?$AA?$AA@ 0000000180029df0     libcpmt:winapinls.obj
 0002:00001e08       ??_C@_1BG@JLBENFOE@?$AAs?$AAr?$AA?9?$AAb?$AAa?$AA?9?$AAl?$AAa?$AAt?$AAn?$AA?$AA@ 0000000180029e08     libcpmt:winapinls.obj
 0002:00001e20       ??_C@_1BG@KODPNHE@?$AAs?$AAr?$AA?9?$AAs?$AAp?$AA?9?$AAc?$AAy?$AAr?$AAl?$AA?$AA@ 0000000180029e20     libcpmt:winapinls.obj
 0002:00001e38       ??_C@_1BG@CIOGKHPB@?$AAs?$AAr?$AA?9?$AAs?$AAp?$AA?9?$AAl?$AAa?$AAt?$AAn?$AA?$AA@ 0000000180029e38     libcpmt:winapinls.obj
 0002:00001e50       ??_C@_1M@NGFJLMAC@?$AAs?$AAv?$AA?9?$AAf?$AAi?$AA?$AA@ 0000000180029e50     libcpmt:winapinls.obj
 0002:00001e60       ??_C@_1M@MPJEJAJC@?$AAs?$AAv?$AA?9?$AAs?$AAe?$AA?$AA@ 0000000180029e60     libcpmt:winapinls.obj
 0002:00001e70       ??_C@_1M@MPNDHLFK@?$AAs?$AAw?$AA?9?$AAk?$AAe?$AA?$AA@ 0000000180029e70     libcpmt:winapinls.obj
 0002:00001e80       ??_C@_1O@KOHBJJI@?$AAs?$AAy?$AAr?$AA?9?$AAs?$AAy?$AA?$AA@ 0000000180029e80     libcpmt:winapinls.obj
 0002:00001e90       ??_C@_1M@LDCEFHA@?$AAt?$AAa?$AA?9?$AAi?$AAn?$AA?$AA@ 0000000180029e90     libcpmt:winapinls.obj
 0002:00001ea0       ??_C@_1M@CNJOFAK@?$AAt?$AAe?$AA?9?$AAi?$AAn?$AA?$AA@ 0000000180029ea0     libcpmt:winapinls.obj
 0002:00001eb0       ??_C@_1M@GNAECACD@?$AAt?$AAh?$AA?9?$AAt?$AAh?$AA?$AA@ 0000000180029eb0     libcpmt:winapinls.obj
 0002:00001ec0       ??_C@_1M@CHBIHOJO@?$AAt?$AAn?$AA?9?$AAz?$AAa?$AA?$AA@ 0000000180029ec0     libcpmt:winapinls.obj
 0002:00001ed0       ??_C@_1M@GCCMIGPJ@?$AAt?$AAr?$AA?9?$AAt?$AAr?$AA?$AA@ 0000000180029ed0     libcpmt:winapinls.obj
 0002:00001ee0       ??_C@_1M@CELMCNBK@?$AAt?$AAt?$AA?9?$AAr?$AAu?$AA?$AA@ 0000000180029ee0     libcpmt:winapinls.obj
 0002:00001ef0       ??_C@_1M@KLMCELGA@?$AAu?$AAk?$AA?9?$AAu?$AAa?$AA?$AA@ 0000000180029ef0     libcpmt:winapinls.obj
 0002:00001f00       ??_C@_1M@EPAJJAJF@?$AAu?$AAr?$AA?9?$AAp?$AAk?$AA?$AA@ 0000000180029f00     libcpmt:winapinls.obj
 0002:00001f10       ??_C@_1BG@GEGPMCDJ@?$AAu?$AAz?$AA?9?$AAu?$AAz?$AA?9?$AAc?$AAy?$AAr?$AAl?$AA?$AA@ 0000000180029f10     libcpmt:winapinls.obj
 0002:00001f28       ??_C@_1BG@EGGKJILM@?$AAu?$AAz?$AA?9?$AAu?$AAz?$AA?9?$AAl?$AAa?$AAt?$AAn?$AA?$AA@ 0000000180029f28     libcpmt:winapinls.obj
 0002:00001f40       ??_C@_1M@GFOCLFF@?$AAv?$AAi?$AA?9?$AAv?$AAn?$AA?$AA@ 0000000180029f40     libcpmt:winapinls.obj
 0002:00001f50       ??_C@_1M@CPAMEDFI@?$AAx?$AAh?$AA?9?$AAz?$AAa?$AA?$AA@ 0000000180029f50     libcpmt:winapinls.obj
 0002:00001f60       ??_C@_1O@EBKIFIGN@?$AAz?$AAh?$AA?9?$AAc?$AAh?$AAs?$AA?$AA@ 0000000180029f60     libcpmt:winapinls.obj
 0002:00001f70       ??_C@_1O@NMHPGANE@?$AAz?$AAh?$AA?9?$AAc?$AAh?$AAt?$AA?$AA@ 0000000180029f70     libcpmt:winapinls.obj
 0002:00001f80       ??_C@_1M@LPINJOMC@?$AAz?$AAh?$AA?9?$AAc?$AAn?$AA?$AA@ 0000000180029f80     libcpmt:winapinls.obj
 0002:00001f90       ??_C@_1M@OCJEJODD@?$AAz?$AAh?$AA?9?$AAh?$AAk?$AA?$AA@ 0000000180029f90     libcpmt:winapinls.obj
 0002:00001fa0       ??_C@_1M@DNDLJINH@?$AAz?$AAh?$AA?9?$AAm?$AAo?$AA?$AA@ 0000000180029fa0     libcpmt:winapinls.obj
 0002:00001fb0       ??_C@_1M@MBFDNDND@?$AAz?$AAh?$AA?9?$AAs?$AAg?$AA?$AA@ 0000000180029fb0     libcpmt:winapinls.obj
 0002:00001fc0       ??_C@_1M@IMEPLEPE@?$AAz?$AAh?$AA?9?$AAt?$AAw?$AA?$AA@ 0000000180029fc0     libcpmt:winapinls.obj
 0002:00001fd0       ??_C@_1M@BBGHNHJP@?$AAz?$AAu?$AA?9?$AAz?$AAa?$AA?$AA@ 0000000180029fd0     libcpmt:winapinls.obj
 0002:00003c60       ??_C@_15EMKDOKLE@?$AAa?$AAr?$AA?$AA@ 000000018002bc60     libcpmt:winapinls.obj
 0002:00003c68       ??_C@_15KNPADPLH@?$AAb?$AAg?$AA?$AA@ 000000018002bc68     libcpmt:winapinls.obj
 0002:00003c70       ??_C@_15EDMHLDMO@?$AAc?$AAa?$AA?$AA@ 000000018002bc70     libcpmt:winapinls.obj
 0002:00003c78       ??_C@_1O@BPEAJADD@?$AAz?$AAh?$AA?9?$AAC?$AAH?$AAS?$AA?$AA@ 000000018002bc78     libcpmt:winapinls.obj
 0002:00003c88       ??_C@_15LJNHCMNK@?$AAc?$AAs?$AA?$AA@ 000000018002bc88     libcpmt:winapinls.obj
 0002:00003c90       ??_C@_15FOMCIDHG@?$AAd?$AAa?$AA?$AA@ 000000018002bc90     libcpmt:winapinls.obj
 0002:00003c98       ??_C@_15NBKABECB@?$AAd?$AAe?$AA?$AA@ 000000018002bc98     libcpmt:winapinls.obj
 0002:00003ca0       ??_C@_15GHPEIIAO@?$AAe?$AAl?$AA?$AA@ 000000018002bca0     libcpmt:winapinls.obj
 0002:00003ca8       ??_C@_15MNPNEAIF@?$AAe?$AAn?$AA?$AA@ 000000018002bca8     libcpmt:winapinls.obj
 0002:00003cb0       ??_C@_15GPIOMPMH@?$AAe?$AAs?$AA?$AA@ 000000018002bcb0     libcpmt:winapinls.obj
 0002:00003cb8       ??_C@_15NGLOAKJC@?$AAf?$AAi?$AA?$AA@ 000000018002bcb8     libcpmt:winapinls.obj
 0002:00003cc0       ??_C@_15FBKGNKAM@?$AAf?$AAr?$AA?$AA@ 000000018002bcc0     libcpmt:winapinls.obj
 0002:00003cc8       ??_C@_15KGGCNEFK@?$AAh?$AAe?$AA?$AA@ 000000018002bcc8     libcpmt:winapinls.obj
 0002:00003cd0       ??_C@_15PGHLIDMF@?$AAh?$AAu?$AA?$AA@ 000000018002bcd0     libcpmt:winapinls.obj
 0002:00003cd8       ??_C@_15BIEMAPLM@?$AAi?$AAs?$AA?$AA@ 000000018002bcd8     libcpmt:winapinls.obj
 0002:00003ce0       ??_C@_15IFJLDHAF@?$AAi?$AAt?$AA?$AA@ 000000018002bce0     libcpmt:winapinls.obj
 0002:00003ce8       ??_C@_15GEMIOCAG@?$AAj?$AAa?$AA?$AA@ 000000018002bce8     libcpmt:winapinls.obj
 0002:00003cf0       ??_C@_15EPELEGJA@?$AAk?$AAo?$AA?$AA@ 000000018002bcf0     libcpmt:winapinls.obj
 0002:00003cf8       ??_C@_15NDDHIMN@?$AAn?$AAl?$AA?$AA@ 000000018002bcf8     libcpmt:winapinls.obj
 0002:00003d00       ??_C@_15BPIGNHCD@?$AAn?$AAo?$AA?$AA@ 000000018002bd00     libcpmt:winapinls.obj
 0002:00003d08       ??_C@_15DEOPBLCG@?$AAp?$AAl?$AA?$AA@ 000000018002bd08     libcpmt:winapinls.obj
 0002:00003d10       ??_C@_15KBECGEFG@?$AAp?$AAt?$AA?$AA@ 000000018002bd10     libcpmt:winapinls.obj
 0002:00003d18       ??_C@_15GLJCBFMD@?$AAr?$AAo?$AA?$AA@ 000000018002bd18     libcpmt:winapinls.obj
 0002:00003d20       ??_C@_15FEDGKCDI@?$AAr?$AAu?$AA?$AA@ 000000018002bd20     libcpmt:winapinls.obj
 0002:00003d28       ??_C@_15GLKMLLHM@?$AAh?$AAr?$AA?$AA@ 000000018002bd28     libcpmt:winapinls.obj
 0002:00003d30       ??_C@_15CPKMFBDB@?$AAs?$AAk?$AA?$AA@ 000000018002bd30     libcpmt:winapinls.obj
 0002:00003d38       ??_C@_15BAAIOGMK@?$AAs?$AAq?$AA?$AA@ 000000018002bd38     libcpmt:winapinls.obj
 0002:00003d40       ??_C@_15INNPNOHD@?$AAs?$AAv?$AA?$AA@ 000000018002bd40     libcpmt:winapinls.obj
 0002:00003d48       ??_C@_15CABMMOGH@?$AAt?$AAh?$AA?$AA@ 000000018002bd48     libcpmt:winapinls.obj
 0002:00003d50       ??_C@_15BPLIHJJM@?$AAt?$AAr?$AA?$AA@ 000000018002bd50     libcpmt:winapinls.obj
 0002:00003d58       ??_C@_15NEOEKKDJ@?$AAu?$AAr?$AA?$AA@ 000000018002bd58     libcpmt:winapinls.obj
 0002:00003d60       ??_C@_15NFICGAJK@?$AAi?$AAd?$AA?$AA@ 000000018002bd60     libcpmt:winapinls.obj
 0002:00003d68       ??_C@_15PJPFLCCM@?$AAu?$AAk?$AA?$AA@ 000000018002bd68     libcpmt:winapinls.obj
 0002:00003d70       ??_C@_15HPJPHDM@?$AAb?$AAe?$AA?$AA@ 000000018002bd70     libcpmt:winapinls.obj
 0002:00003d78       ??_C@_15LCHLGJII@?$AAs?$AAl?$AA?$AA@ 000000018002bd78     libcpmt:winapinls.obj
 0002:00003d80       ??_C@_15PCFJPHHO@?$AAe?$AAt?$AA?$AA@ 000000018002bd80     libcpmt:winapinls.obj
 0002:00003d88       ??_C@_15HPFPGODN@?$AAl?$AAv?$AA?$AA@ 000000018002bd88     libcpmt:winapinls.obj
 0002:00003d90       ??_C@_15NFFGKGLG@?$AAl?$AAt?$AA?$AA@ 000000018002bd90     libcpmt:winapinls.obj
 0002:00003d98       ??_C@_15BDAKCCHN@?$AAf?$AAa?$AA?$AA@ 000000018002bd98     libcpmt:winapinls.obj
 0002:00003da0       ??_C@_15NFGIAIAJ@?$AAv?$AAi?$AA?$AA@ 000000018002bda0     libcpmt:winapinls.obj
 0002:00003da8       ??_C@_15LMKNDMHN@?$AAh?$AAy?$AA?$AA@ 000000018002bda8     libcpmt:winapinls.obj
 0002:00003db0       ??_C@_15IJBHMCFL@?$AAa?$AAz?$AA?$AA@ 000000018002bdb0     libcpmt:winapinls.obj
 0002:00003db8       ??_C@_15EKOFJABL@?$AAe?$AAu?$AA?$AA@ 000000018002bdb8     libcpmt:winapinls.obj
 0002:00003dc0       ??_C@_15BGHADCNK@?$AAm?$AAk?$AA?$AA@ 000000018002bdc0     libcpmt:winapinls.obj
 0002:00003dc8       ??_C@_15JDNICKHM@?$AAa?$AAf?$AA?$AA@ 000000018002bdc8     libcpmt:winapinls.obj
 0002:00003dd0       ??_C@_15KPJEDBKD@?$AAk?$AAa?$AA?$AA@ 000000018002bdd0     libcpmt:winapinls.obj
 0002:00003dd8       ??_C@_15PDNFFFEO@?$AAf?$AAo?$AA?$AA@ 000000018002bdd8     libcpmt:winapinls.obj
 0002:00003de0       ??_C@_15OMLEGLOC@?$AAh?$AAi?$AA?$AA@ 000000018002bde0     libcpmt:winapinls.obj
 0002:00003de8       ??_C@_15IDNNENKK@?$AAm?$AAs?$AA?$AA@ 000000018002bde8     libcpmt:winapinls.obj
 0002:00003df0       ??_C@_15MACJNBMH@?$AAk?$AAk?$AA?$AA@ 000000018002bdf0     libcpmt:winapinls.obj
 0002:00003df8       ??_C@_15DKDJEOND@?$AAk?$AAy?$AA?$AA@ 000000018002bdf8     libcpmt:winapinls.obj
 0002:00003e00       ??_C@_15DFGDLJBG@?$AAs?$AAw?$AA?$AA@ 000000018002be00     libcpmt:winapinls.obj
 0002:00003e08       ??_C@_15BBFAICNG@?$AAu?$AAz?$AA?$AA@ 000000018002be08     libcpmt:winapinls.obj
 0002:00003e10       ??_C@_15DKNDCGEA@?$AAt?$AAt?$AA?$AA@ 000000018002be10     libcpmt:winapinls.obj
 0002:00003e18       ??_C@_15MGIFMDPL@?$AAp?$AAa?$AA?$AA@ 000000018002be18     libcpmt:winapinls.obj
 0002:00003e20       ??_C@_15HCNDBBA@?$AAg?$AAu?$AA?$AA@ 000000018002be20     libcpmt:winapinls.obj
 0002:00003e28       ??_C@_15FNBEIBON@?$AAt?$AAa?$AA?$AA@ 000000018002be28     libcpmt:winapinls.obj
 0002:00003e30       ??_C@_15NCHGBGLK@?$AAt?$AAe?$AA?$AA@ 000000018002be30     libcpmt:winapinls.obj
 0002:00003e38       ??_C@_15PHPHCBPF@?$AAk?$AAn?$AA?$AA@ 000000018002be38     libcpmt:winapinls.obj
 0002:00003e40       ??_C@_15DLGBCKMP@?$AAm?$AAr?$AA?$AA@ 000000018002be40     libcpmt:winapinls.obj
 0002:00003e48       ??_C@_15EABBLBFF@?$AAs?$AAa?$AA?$AA@ 000000018002be48     libcpmt:winapinls.obj
 0002:00003e50       ??_C@_15CBKOMCOI@?$AAm?$AAn?$AA?$AA@ 000000018002be50     libcpmt:winapinls.obj
 0002:00003e58       ??_C@_15CKDMCJAF@?$AAg?$AAl?$AA?$AA@ 000000018002be58     libcpmt:winapinls.obj
 0002:00003e60       ??_C@_17CNJFBPG@?$AAk?$AAo?$AAk?$AA?$AA@ 000000018002be60     libcpmt:winapinls.obj
 0002:00003e68       ??_C@_17FFBJICPL@?$AAs?$AAy?$AAr?$AA?$AA@ 000000018002be68     libcpmt:winapinls.obj
 0002:00003e70       ??_C@_17KPNDCPAF@?$AAd?$AAi?$AAv?$AA?$AA@ 000000018002be70     libcpmt:winapinls.obj
 0002:00003e78       ??_C@_1M@OKAHONE@?$AAa?$AAr?$AA?9?$AAS?$AAA?$AA?$AA@ 000000018002be78     libcpmt:winapinls.obj
 0002:00003e88       ??_C@_1M@FFFIGIGK@?$AAb?$AAg?$AA?9?$AAB?$AAG?$AA?$AA@ 000000018002be88     libcpmt:winapinls.obj
 0002:00003e98       ??_C@_1M@BJNKEDC@?$AAc?$AAa?$AA?9?$AAE?$AAS?$AA?$AA@ 000000018002be98     libcpmt:winapinls.obj
 0002:00003ea8       ??_C@_1M@CLNBBOPM@?$AAz?$AAh?$AA?9?$AAT?$AAW?$AA?$AA@ 000000018002bea8     libcpmt:winapinls.obj
 0002:00003eb8       ??_C@_1M@IJJHFJHA@?$AAc?$AAs?$AA?9?$AAC?$AAZ?$AA?$AA@ 000000018002beb8     libcpmt:winapinls.obj
 0002:00003ec8       ??_C@_1M@CLPEOBGI@?$AAd?$AAa?$AA?9?$AAD?$AAK?$AA?$AA@ 000000018002bec8     libcpmt:winapinls.obj
 0002:00003ed8       ??_C@_1M@MCMADGCB@?$AAd?$AAe?$AA?9?$AAD?$AAE?$AA?$AA@ 000000018002bed8     libcpmt:winapinls.obj
 0002:00003ee8       ??_C@_1M@OOCKEMAM@?$AAe?$AAl?$AA?9?$AAG?$AAR?$AA?$AA@ 000000018002bee8     libcpmt:winapinls.obj
 0002:00003ef8       ??_C@_1M@BMHNFIME@?$AAe?$AAn?$AA?9?$AAU?$AAS?$AA?$AA@ 000000018002bef8     libcpmt:winapinls.obj
 0002:00003f08       ??_C@_1M@DDNJFGID@?$AAf?$AAi?$AA?9?$AAF?$AAI?$AA?$AA@ 000000018002bf08     libcpmt:winapinls.obj
 0002:00003f18       ??_C@_1M@GLIPPMAC@?$AAf?$AAr?$AA?9?$AAF?$AAR?$AA?$AA@ 000000018002bf18     libcpmt:winapinls.obj
 0002:00003f28       ??_C@_1M@GFMCHPE@?$AAh?$AAe?$AA?9?$AAI?$AAL?$AA?$AA@ 000000018002bf28     libcpmt:winapinls.obj
 0002:00003f38       ??_C@_1M@MHLPGNKM@?$AAh?$AAu?$AA?9?$AAH?$AAU?$AA?$AA@ 000000018002bf38     libcpmt:winapinls.obj
 0002:00003f48       ??_C@_1M@LPDDNNPN@?$AAi?$AAs?$AA?9?$AAI?$AAS?$AA?$AA@ 000000018002bf48     libcpmt:winapinls.obj
 0002:00003f58       ??_C@_1M@MADIPODN@?$AAi?$AAt?$AA?9?$AAI?$AAT?$AA?$AA@ 000000018002bf58     libcpmt:winapinls.obj
 0002:00003f68       ??_C@_1M@HPNHIDJI@?$AAj?$AAa?$AA?9?$AAJ?$AAP?$AA?$AA@ 000000018002bf68     libcpmt:winapinls.obj
 0002:00003f78       ??_C@_1M@JLOOOEGK@?$AAk?$AAo?$AA?9?$AAK?$AAR?$AA?$AA@ 000000018002bf78     libcpmt:winapinls.obj
 0002:00003f88       ??_C@_1M@IHBJJGG@?$AAn?$AAl?$AA?9?$AAN?$AAL?$AA?$AA@ 000000018002bf88     libcpmt:winapinls.obj
 0002:00003f98       ??_C@_1M@EANAGDL@?$AAn?$AAb?$AA?9?$AAN?$AAO?$AA?$AA@ 000000018002bf98     libcpmt:winapinls.obj
 0002:00003fa8       ??_C@_1M@NEIEMEGP@?$AAp?$AAl?$AA?9?$AAP?$AAL?$AA?$AA@ 000000018002bfa8     libcpmt:winapinls.obj
 0002:00003fb8       ??_C@_1M@BOCFIGEP@?$AAp?$AAt?$AA?9?$AAB?$AAR?$AA?$AA@ 000000018002bfb8     libcpmt:winapinls.obj
 0002:00003fc8       ??_C@_1M@IMPFOPBG@?$AAr?$AAo?$AA?9?$AAR?$AAO?$AA?$AA@ 000000018002bfc8     libcpmt:winapinls.obj
 0002:00003fd8       ??_C@_1M@IDNNEJMM@?$AAr?$AAu?$AA?9?$AAR?$AAU?$AA?$AA@ 000000018002bfd8     libcpmt:winapinls.obj
 0002:00003fe8       ??_C@_1M@LILEEOGM@?$AAh?$AAr?$AA?9?$AAH?$AAR?$AA?$AA@ 000000018002bfe8     libcpmt:winapinls.obj
 0002:00003ff8       ??_C@_1M@FKIFEHPB@?$AAs?$AAk?$AA?9?$AAS?$AAK?$AA?$AA@ 000000018002bff8     libcpmt:winapinls.obj
 0002:00004008       ??_C@_1M@LJMAMNPJ@?$AAs?$AAq?$AA?9?$AAA?$AAL?$AA?$AA@ 000000018002c008     libcpmt:winapinls.obj
 0002:00004018       ??_C@_1M@GIAKDKJK@?$AAs?$AAv?$AA?9?$AAS?$AAE?$AA?$AA@ 000000018002c018     libcpmt:winapinls.obj
 0002:00004028       ??_C@_1M@MKJKIKCL@?$AAt?$AAh?$AA?9?$AAT?$AAH?$AA?$AA@ 000000018002c028     libcpmt:winapinls.obj
 0002:00004038       ??_C@_1M@MFLCCMPB@?$AAt?$AAr?$AA?9?$AAT?$AAR?$AA?$AA@ 000000018002c038     libcpmt:winapinls.obj
 0002:00004048       ??_C@_1M@OIJHDKJN@?$AAu?$AAr?$AA?9?$AAP?$AAK?$AA?$AA@ 000000018002c048     libcpmt:winapinls.obj
 0002:00004058       ??_C@_1M@LHIPCIEK@?$AAi?$AAd?$AA?9?$AAI?$AAD?$AA?$AA@ 000000018002c058     libcpmt:winapinls.obj
 0002:00004068       ??_C@_1M@MFMOBGI@?$AAu?$AAk?$AA?9?$AAU?$AAA?$AA?$AA@ 000000018002c068     libcpmt:winapinls.obj
 0002:00004078       ??_C@_1M@OBGLJIPL@?$AAb?$AAe?$AA?9?$AAB?$AAY?$AA?$AA@ 000000018002c078     libcpmt:winapinls.obj
 0002:00004088       ??_C@_1M@BCFAJEAD@?$AAs?$AAl?$AA?9?$AAS?$AAI?$AA?$AA@ 000000018002c088     libcpmt:winapinls.obj
 0002:00004098       ??_C@_1M@FKFFEDDN@?$AAe?$AAt?$AA?9?$AAE?$AAE?$AA?$AA@ 000000018002c098     libcpmt:winapinls.obj
 0002:000040a8       ??_C@_1M@KGKKAACI@?$AAl?$AAv?$AA?9?$AAL?$AAV?$AA?$AA@ 000000018002c0a8     libcpmt:winapinls.obj
 0002:000040b8       ??_C@_1M@IFGBIJO@?$AAl?$AAt?$AA?9?$AAL?$AAT?$AA?$AA@ 000000018002c0b8     libcpmt:winapinls.obj
 0002:000040c8       ??_C@_1M@FGEAHEDM@?$AAf?$AAa?$AA?9?$AAI?$AAR?$AA?$AA@ 000000018002c0c8     libcpmt:winapinls.obj
 0002:000040d8       ??_C@_1M@KBMAIBFN@?$AAv?$AAi?$AA?9?$AAV?$AAN?$AA?$AA@ 000000018002c0d8     libcpmt:winapinls.obj
 0002:000040e8       ??_C@_1M@GPCBKDJK@?$AAh?$AAy?$AA?9?$AAA?$AAM?$AA?$AA@ 000000018002c0e8     libcpmt:winapinls.obj
 0002:000040f8       ??_C@_1BG@BECMDDJB@?$AAa?$AAz?$AA?9?$AAA?$AAZ?$AA?9?$AAL?$AAa?$AAt?$AAn?$AA?$AA@ 000000018002c0f8     libcpmt:winapinls.obj
 0002:00004110       ??_C@_1M@MAOFCAEA@?$AAe?$AAu?$AA?9?$AAE?$AAS?$AA?$AA@ 000000018002c110     libcpmt:winapinls.obj
 0002:00004120       ??_C@_1M@IGHABKPI@?$AAm?$AAk?$AA?9?$AAM?$AAK?$AA?$AA@ 000000018002c120     libcpmt:winapinls.obj
 0002:00004130       ??_C@_1M@IAIGNEJG@?$AAt?$AAn?$AA?9?$AAZ?$AAA?$AA?$AA@ 000000018002c130     libcpmt:winapinls.obj
 0002:00004140       ??_C@_1M@IIJCOJFA@?$AAx?$AAh?$AA?9?$AAZ?$AAA?$AA?$AA@ 000000018002c140     libcpmt:winapinls.obj
 0002:00004150       ??_C@_1M@LGPJHNJH@?$AAz?$AAu?$AA?9?$AAZ?$AAA?$AA?$AA@ 000000018002c150     libcpmt:winapinls.obj
 0002:00004160       ??_C@_1M@HOKAOIO@?$AAa?$AAf?$AA?9?$AAZ?$AAA?$AA?$AA@ 000000018002c160     libcpmt:winapinls.obj
 0002:00004170       ??_C@_1M@DPCLHLIE@?$AAk?$AAa?$AA?9?$AAG?$AAE?$AA?$AA@ 000000018002c170     libcpmt:winapinls.obj
 0002:00004180       ??_C@_1M@BLKMHJBI@?$AAf?$AAo?$AA?9?$AAF?$AAO?$AA?$AA@ 000000018002c180     libcpmt:winapinls.obj
 0002:00004190       ??_C@_1M@LGGJAPPB@?$AAh?$AAi?$AA?9?$AAI?$AAN?$AA?$AA@ 000000018002c190     libcpmt:winapinls.obj
 0002:000041a0       ??_C@_1M@FIKPIHFE@?$AAm?$AAt?$AA?9?$AAM?$AAT?$AA?$AA@ 000000018002c1a0     libcpmt:winapinls.obj
 0002:000041b0       ??_C@_1M@HEGGPBFA@?$AAs?$AAe?$AA?9?$AAN?$AAO?$AA?$AA@ 000000018002c1b0     libcpmt:winapinls.obj
 0002:000041c0       ??_C@_1M@EIBJEEPA@?$AAm?$AAs?$AA?9?$AAM?$AAY?$AA?$AA@ 000000018002c1c0     libcpmt:winapinls.obj
 0002:000041d0       ??_C@_1M@FHLBGMPP@?$AAk?$AAk?$AA?9?$AAK?$AAZ?$AA?$AA@ 000000018002c1d0     libcpmt:winapinls.obj
 0002:000041e0       ??_C@_1M@NGJJLCGI@?$AAk?$AAy?$AA?9?$AAK?$AAG?$AA?$AA@ 000000018002c1e0     libcpmt:winapinls.obj
 0002:000041f0       ??_C@_1M@GIENNBFC@?$AAs?$AAw?$AA?9?$AAK?$AAE?$AA?$AA@ 000000018002c1f0     libcpmt:winapinls.obj
 0002:00004200       ??_C@_1BG@NDGMJIMJ@?$AAu?$AAz?$AA?9?$AAU?$AAZ?$AA?9?$AAL?$AAa?$AAt?$AAn?$AA?$AA@ 000000018002c200     libcpmt:winapinls.obj
 0002:00004218       ??_C@_1M@IDCCIHBC@?$AAt?$AAt?$AA?9?$AAR?$AAU?$AA?$AA@ 000000018002c218     libcpmt:winapinls.obj
 0002:00004228       ??_C@_1M@LOICPMOJ@?$AAb?$AAn?$AA?9?$AAI?$AAN?$AA?$AA@ 000000018002c228     libcpmt:winapinls.obj
 0002:00004238       ??_C@_1M@KPKKNEAH@?$AAp?$AAa?$AA?9?$AAI?$AAN?$AA?$AA@ 000000018002c238     libcpmt:winapinls.obj
 0002:00004248       ??_C@_1M@PJGPPBOG@?$AAg?$AAu?$AA?9?$AAI?$AAN?$AA?$AA@ 000000018002c248     libcpmt:winapinls.obj
 0002:00004258       ??_C@_1M@KMKMOPHI@?$AAt?$AAa?$AA?9?$AAI?$AAN?$AA?$AA@ 000000018002c258     libcpmt:winapinls.obj
 0002:00004268       ??_C@_1M@KFEHEPAC@?$AAt?$AAe?$AA?9?$AAI?$AAN?$AA?$AA@ 000000018002c268     libcpmt:winapinls.obj
 0002:00004278       ??_C@_1M@CDCLMGHI@?$AAk?$AAn?$AA?9?$AAI?$AAN?$AA?$AA@ 000000018002c278     libcpmt:winapinls.obj
 0002:00004288       ??_C@_1M@MIODLDKF@?$AAm?$AAl?$AA?9?$AAI?$AAN?$AA?$AA@ 000000018002c288     libcpmt:winapinls.obj
 0002:00004298       ??_C@_1M@PBIEACPO@?$AAm?$AAr?$AA?9?$AAI?$AAN?$AA?$AA@ 000000018002c298     libcpmt:winapinls.obj
 0002:000042a8       ??_C@_1M@NIDEAGPH@?$AAs?$AAa?$AA?9?$AAI?$AAN?$AA?$AA@ 000000018002c2a8     libcpmt:winapinls.obj
 0002:000042b8       ??_C@_1M@FHIHCBIO@?$AAm?$AAn?$AA?9?$AAM?$AAN?$AA?$AA@ 000000018002c2b8     libcpmt:winapinls.obj
 0002:000042c8       ??_C@_1M@JAIJPENP@?$AAc?$AAy?$AA?9?$AAG?$AAB?$AA?$AA@ 000000018002c2c8     libcpmt:winapinls.obj
 0002:000042d8       ??_C@_1M@PHGFBEPN@?$AAg?$AAl?$AA?9?$AAE?$AAS?$AA?$AA@ 000000018002c2d8     libcpmt:winapinls.obj
 0002:000042e8       ??_C@_1O@KPIPDNCP@?$AAk?$AAo?$AAk?$AA?9?$AAI?$AAN?$AA?$AA@ 000000018002c2e8     libcpmt:winapinls.obj
 0002:000042f8       ??_C@_1O@KNHJLDJA@?$AAs?$AAy?$AAr?$AA?9?$AAS?$AAY?$AA?$AA@ 000000018002c2f8     libcpmt:winapinls.obj
 0002:00004308       ??_C@_1O@MKEKBLAH@?$AAd?$AAi?$AAv?$AA?9?$AAM?$AAV?$AA?$AA@ 000000018002c308     libcpmt:winapinls.obj
 0002:00004318       ??_C@_1O@OHDCKDDF@?$AAq?$AAu?$AAz?$AA?9?$AAB?$AAO?$AA?$AA@ 000000018002c318     libcpmt:winapinls.obj
 0002:00004328       ??_C@_1M@LEPJNLFD@?$AAn?$AAs?$AA?9?$AAZ?$AAA?$AA?$AA@ 000000018002c328     libcpmt:winapinls.obj
 0002:00004338       ??_C@_1M@OMLEIIJB@?$AAm?$AAi?$AA?9?$AAN?$AAZ?$AA?$AA@ 000000018002c338     libcpmt:winapinls.obj
 0002:00004348       ??_C@_1M@PMPEAILG@?$AAa?$AAr?$AA?9?$AAI?$AAQ?$AA?$AA@ 000000018002c348     libcpmt:winapinls.obj
 0002:00004358       ??_C@_1M@BIBDDEMK@?$AAz?$AAh?$AA?9?$AAC?$AAN?$AA?$AA@ 000000018002c358     libcpmt:winapinls.obj
 0002:00004368       ??_C@_1M@CNKPNOEE@?$AAd?$AAe?$AA?9?$AAC?$AAH?$AA?$AA@ 000000018002c368     libcpmt:winapinls.obj
 0002:00004378       ??_C@_1M@LKMGMLKO@?$AAe?$AAn?$AA?9?$AAG?$AAB?$AA?$AA@ 000000018002c378     libcpmt:winapinls.obj
 0002:00004388       ??_C@_1M@PGKJFFGL@?$AAe?$AAs?$AA?9?$AAM?$AAX?$AA?$AA@ 000000018002c388     libcpmt:winapinls.obj
 0002:00004398       ??_C@_1M@DNNANBDC@?$AAf?$AAr?$AA?9?$AAB?$AAE?$AA?$AA@ 000000018002c398     libcpmt:winapinls.obj
 0002:000043a8       ??_C@_1M@HLGMDFHM@?$AAi?$AAt?$AA?9?$AAC?$AAH?$AA?$AA@ 000000018002c3a8     libcpmt:winapinls.obj
 0002:000043b8       ??_C@_1M@CLLBGJH@?$AAn?$AAl?$AA?9?$AAB?$AAE?$AA?$AA@ 000000018002c3b8     libcpmt:winapinls.obj
 0002:000043c8       ??_C@_1M@BODBOGLF@?$AAn?$AAn?$AA?9?$AAN?$AAO?$AA?$AA@ 000000018002c3c8     libcpmt:winapinls.obj
 0002:000043d8       ??_C@_1M@HFFAHKAD@?$AAp?$AAt?$AA?9?$AAP?$AAT?$AA?$AA@ 000000018002c3d8     libcpmt:winapinls.obj
 0002:000043e8       ??_C@_1BG@LNOAKHIE@?$AAs?$AAr?$AA?9?$AAS?$AAP?$AA?9?$AAL?$AAa?$AAt?$AAn?$AA?$AA@ 000000018002c3e8     libcpmt:winapinls.obj
 0002:00004400       ??_C@_1M@HBMHBGAK@?$AAs?$AAv?$AA?9?$AAF?$AAI?$AA?$AA@ 000000018002c400     libcpmt:winapinls.obj
 0002:00004410       ??_C@_1BG@DGCJGJBE@?$AAa?$AAz?$AA?9?$AAA?$AAZ?$AA?9?$AAC?$AAy?$AAr?$AAl?$AA?$AA@ 000000018002c410     libcpmt:winapinls.obj
 0002:00004428       ??_C@_1M@KEJDAAHB@?$AAs?$AAe?$AA?9?$AAS?$AAE?$AA?$AA@ 000000018002c428     libcpmt:winapinls.obj
 0002:00004438       ??_C@_1M@HEIBJJAD@?$AAm?$AAs?$AA?9?$AAB?$AAN?$AA?$AA@ 000000018002c438     libcpmt:winapinls.obj
 0002:00004448       ??_C@_1BG@PBGJMCEM@?$AAu?$AAz?$AA?9?$AAU?$AAZ?$AA?9?$AAC?$AAy?$AAr?$AAl?$AA?$AA@ 000000018002c448     libcpmt:winapinls.obj
 0002:00004460       ??_C@_1O@LAOBCMDF@?$AAq?$AAu?$AAz?$AA?9?$AAE?$AAC?$AA?$AA@ 000000018002c460     libcpmt:winapinls.obj
 0002:00004470       ??_C@_1M@POEEMAIO@?$AAa?$AAr?$AA?9?$AAE?$AAG?$AA?$AA@ 000000018002c470     libcpmt:winapinls.obj
 0002:00004480       ??_C@_1M@EFAKDEDL@?$AAz?$AAh?$AA?9?$AAH?$AAK?$AA?$AA@ 000000018002c480     libcpmt:winapinls.obj
 0002:00004490       ??_C@_1M@HKKIJHGI@?$AAd?$AAe?$AA?9?$AAA?$AAT?$AA?$AA@ 000000018002c490     libcpmt:winapinls.obj
 0002:000044a0       ??_C@_1M@KBFBEHJF@?$AAe?$AAn?$AA?9?$AAA?$AAU?$AA?$AA@ 000000018002c4a0     libcpmt:winapinls.obj
 0002:000044b0       ??_C@_1M@MNPLFAAH@?$AAe?$AAs?$AA?9?$AAE?$AAS?$AA?$AA@ 000000018002c4b0     libcpmt:winapinls.obj
 0002:000044c0       ??_C@_1M@HJOOJFMA@?$AAf?$AAr?$AA?9?$AAC?$AAA?$AA?$AA@ 000000018002c4c0     libcpmt:winapinls.obj
 0002:000044d0       ??_C@_1BG@JPOFPNAB@?$AAs?$AAr?$AA?9?$AAS?$AAP?$AA?9?$AAC?$AAy?$AAr?$AAl?$AA?$AA@ 000000018002c4d0     libcpmt:winapinls.obj
 0002:000044e8       ??_C@_1M@LNFOCMOB@?$AAs?$AAe?$AA?9?$AAF?$AAI?$AA?$AA@ 000000018002c4e8     libcpmt:winapinls.obj
 0002:000044f8       ??_C@_1O@MGJBOAMB@?$AAq?$AAu?$AAz?$AA?9?$AAP?$AAE?$AA?$AA@ 000000018002c4f8     libcpmt:winapinls.obj
 0002:00004508       ??_C@_1M@GJINLBOK@?$AAa?$AAr?$AA?9?$AAL?$AAY?$AA?$AA@ 000000018002c508     libcpmt:winapinls.obj
 0002:00004518       ??_C@_1M@GGMNHJNL@?$AAz?$AAh?$AA?9?$AAS?$AAG?$AA?$AA@ 000000018002c518     libcpmt:winapinls.obj
 0002:00004528       ??_C@_1M@HOIKODND@?$AAd?$AAe?$AA?9?$AAL?$AAU?$AA?$AA@ 000000018002c528     libcpmt:winapinls.obj
 0002:00004538       ??_C@_1M@DDOCCGFG@?$AAe?$AAn?$AA?9?$AAC?$AAA?$AA?$AA@ 000000018002c538     libcpmt:winapinls.obj
 0002:00004548       ??_C@_1M@BNOEMJLF@?$AAe?$AAs?$AA?9?$AAG?$AAT?$AA?$AA@ 000000018002c548     libcpmt:winapinls.obj
 0002:00004558       ??_C@_1M@EOGNKEK@?$AAf?$AAr?$AA?9?$AAC?$AAH?$AA?$AA@ 000000018002c558     libcpmt:winapinls.obj
 0002:00004568       ??_C@_1M@FLIDJFHL@?$AAh?$AAr?$AA?9?$AAB?$AAA?$AA?$AA@ 000000018002c568     libcpmt:winapinls.obj
 0002:00004578       ??_C@_1O@FMCELNAJ@?$AAs?$AAm?$AAj?$AA?9?$AAN?$AAO?$AA?$AA@ 000000018002c578     libcpmt:winapinls.obj
 0002:00004588       ??_C@_1M@JHGLJMGJ@?$AAa?$AAr?$AA?9?$AAD?$AAZ?$AA?$AA@ 000000018002c588     libcpmt:winapinls.obj
 0002:00004598       ??_C@_1M@JKKFDCNP@?$AAz?$AAh?$AA?9?$AAM?$AAO?$AA?$AA@ 000000018002c598     libcpmt:winapinls.obj
 0002:000045a8       ??_C@_1M@GEEFALPE@?$AAd?$AAe?$AA?9?$AAL?$AAI?$AA?$AA@ 000000018002c5a8     libcpmt:winapinls.obj
 0002:000045b8       ??_C@_1M@IGEOFBG@?$AAe?$AAn?$AA?9?$AAN?$AAZ?$AA?$AA@ 000000018002c5b8     libcpmt:winapinls.obj
 0002:000045c8       ??_C@_1M@KDBONEHP@?$AAe?$AAs?$AA?9?$AAC?$AAR?$AA?$AA@ 000000018002c5c8     libcpmt:winapinls.obj
 0002:000045d8       ??_C@_1M@FHMDOHNN@?$AAf?$AAr?$AA?9?$AAL?$AAU?$AA?$AA@ 000000018002c5d8     libcpmt:winapinls.obj
 0002:000045e8       ??_C@_1BG@NFKKMAFG@?$AAb?$AAs?$AA?9?$AAB?$AAA?$AA?9?$AAL?$AAa?$AAt?$AAn?$AA?$AA@ 000000018002c5e8     libcpmt:winapinls.obj
 0002:00004600       ??_C@_1O@IMNBEMCI@?$AAs?$AAm?$AAj?$AA?9?$AAS?$AAE?$AA?$AA@ 000000018002c600     libcpmt:winapinls.obj
 0002:00004610       ??_C@_1M@DHHMBNDP@?$AAa?$AAr?$AA?9?$AAM?$AAA?$AA?$AA@ 000000018002c610     libcpmt:winapinls.obj
 0002:00004620       ??_C@_1M@BNBLJCGH@?$AAe?$AAn?$AA?9?$AAI?$AAE?$AA?$AA@ 000000018002c620     libcpmt:winapinls.obj
 0002:00004630       ??_C@_1M@GEPAFMDL@?$AAe?$AAs?$AA?9?$AAP?$AAA?$AA?$AA@ 000000018002c630     libcpmt:winapinls.obj
 0002:00004640       ??_C@_1M@OJONDMDL@?$AAf?$AAr?$AA?9?$AAM?$AAC?$AA?$AA@ 000000018002c640     libcpmt:winapinls.obj
 0002:00004650       ??_C@_1BG@OBCNFJB@?$AAs?$AAr?$AA?9?$AAB?$AAA?$AA?9?$AAL?$AAa?$AAt?$AAn?$AA?$AA@ 000000018002c650     libcpmt:winapinls.obj
 0002:00004668       ??_C@_1O@KEMEEGPO@?$AAs?$AAm?$AAa?$AA?9?$AAN?$AAO?$AA?$AA@ 000000018002c668     libcpmt:winapinls.obj
 0002:00004678       ??_C@_1M@ELMGFODK@?$AAa?$AAr?$AA?9?$AAT?$AAN?$AA?$AA@ 000000018002c678     libcpmt:winapinls.obj
 0002:00004688       ??_C@_1M@BHDLHFAF@?$AAe?$AAn?$AA?9?$AAZ?$AAA?$AA?$AA@ 000000018002c688     libcpmt:winapinls.obj
 0002:00004698       ??_C@_1M@BMGIGLIF@?$AAe?$AAs?$AA?9?$AAD?$AAO?$AA?$AA@ 000000018002c698     libcpmt:winapinls.obj
 0002:000046a8       ??_C@_1BG@CMBHIPBE@?$AAs?$AAr?$AA?9?$AAB?$AAA?$AA?9?$AAC?$AAy?$AAr?$AAl?$AA?$AA@ 000000018002c6a8     libcpmt:winapinls.obj
 0002:000046c0       ??_C@_1O@HEDBLHNP@?$AAs?$AAm?$AAa?$AA?9?$AAS?$AAE?$AA?$AA@ 000000018002c6c0     libcpmt:winapinls.obj
 0002:000046d0       ??_C@_1M@DAGCADIM@?$AAa?$AAr?$AA?9?$AAO?$AAM?$AA?$AA@ 000000018002c6d0     libcpmt:winapinls.obj
 0002:000046e0       ??_C@_1M@FODLMICG@?$AAe?$AAn?$AA?9?$AAJ?$AAM?$AA?$AA@ 000000018002c6e0     libcpmt:winapinls.obj
 0002:000046f0       ??_C@_1M@DNMLCIHB@?$AAe?$AAs?$AA?9?$AAV?$AAE?$AA?$AA@ 000000018002c6f0     libcpmt:winapinls.obj
 0002:00004700       ??_C@_1O@EOKHMKJK@?$AAs?$AAm?$AAs?$AA?9?$AAF?$AAI?$AA?$AA@ 000000018002c700     libcpmt:winapinls.obj
 0002:00004710       ??_C@_1M@CAFJMKOF@?$AAa?$AAr?$AA?9?$AAY?$AAE?$AA?$AA@ 000000018002c710     libcpmt:winapinls.obj
 0002:00004720       ??_C@_1M@CBFHIJLI@?$AAe?$AAn?$AA?9?$AAC?$AAB?$AA?$AA@ 000000018002c720     libcpmt:winapinls.obj
 0002:00004730       ??_C@_1M@BGNFLDN@?$AAe?$AAs?$AA?9?$AAC?$AAO?$AA?$AA@ 000000018002c730     libcpmt:winapinls.obj
 0002:00004740       ??_C@_1O@JMPHMAMC@?$AAs?$AAm?$AAn?$AA?9?$AAF?$AAI?$AA?$AA@ 000000018002c740     libcpmt:winapinls.obj
 0002:00004750       ??_C@_1M@JLANABKE@?$AAa?$AAr?$AA?9?$AAS?$AAY?$AA?$AA@ 000000018002c750     libcpmt:winapinls.obj
 0002:00004760       ??_C@_1M@HPKGCFGN@?$AAe?$AAn?$AA?9?$AAB?$AAZ?$AA?$AA@ 000000018002c760     libcpmt:winapinls.obj
 0002:00004770       ??_C@_1M@OLJCMLGM@?$AAe?$AAs?$AA?9?$AAP?$AAE?$AA?$AA@ 000000018002c770     libcpmt:winapinls.obj
 0002:00004780       ??_C@_1M@MKKGFKLE@?$AAa?$AAr?$AA?9?$AAJ?$AAO?$AA?$AA@ 000000018002c780     libcpmt:winapinls.obj
 0002:00004790       ??_C@_1M@EKPGLDNI@?$AAe?$AAn?$AA?9?$AAT?$AAT?$AA?$AA@ 000000018002c790     libcpmt:winapinls.obj
 0002:000047a0       ??_C@_1M@OONGHFHE@?$AAe?$AAs?$AA?9?$AAA?$AAR?$AA?$AA@ 000000018002c7a0     libcpmt:winapinls.obj
 0002:000047b0       ??_C@_1M@OOJFGBHE@?$AAa?$AAr?$AA?9?$AAL?$AAB?$AA?$AA@ 000000018002c7b0     libcpmt:winapinls.obj
 0002:000047c0       ??_C@_1M@GCEJHNEG@?$AAe?$AAn?$AA?9?$AAZ?$AAW?$AA?$AA@ 000000018002c7c0     libcpmt:winapinls.obj
 0002:000047d0       ??_C@_1M@JNOCAHJI@?$AAe?$AAs?$AA?9?$AAE?$AAC?$AA?$AA@ 000000018002c7d0     libcpmt:winapinls.obj
 0002:000047e0       ??_C@_1M@JEFHPGGB@?$AAa?$AAr?$AA?9?$AAK?$AAW?$AA?$AA@ 000000018002c7e0     libcpmt:winapinls.obj
 0002:000047f0       ??_C@_1M@MLKIBJOJ@?$AAe?$AAn?$AA?9?$AAP?$AAH?$AA?$AA@ 000000018002c7f0     libcpmt:winapinls.obj
 0002:00004800       ??_C@_1M@BDNIPEND@?$AAe?$AAs?$AA?9?$AAC?$AAL?$AA?$AA@ 000000018002c800     libcpmt:winapinls.obj
 0002:00004810       ??_C@_1M@MPNMEKBD@?$AAa?$AAr?$AA?9?$AAA?$AAE?$AA?$AA@ 000000018002c810     libcpmt:winapinls.obj
 0002:00004820       ??_C@_1M@KBJALCPI@?$AAe?$AAs?$AA?9?$AAU?$AAY?$AA?$AA@ 000000018002c820     libcpmt:winapinls.obj
 0002:00004830       ??_C@_1M@LLCCOAGA@?$AAa?$AAr?$AA?9?$AAB?$AAH?$AA?$AA@ 000000018002c830     libcpmt:winapinls.obj
 0002:00004840       ??_C@_1M@PBFNCDEL@?$AAe?$AAs?$AA?9?$AAP?$AAY?$AA?$AA@ 000000018002c840     libcpmt:winapinls.obj
 0002:00004850       ??_C@_1M@EDGINPNP@?$AAa?$AAr?$AA?9?$AAQ?$AAA?$AA?$AA@ 000000018002c850     libcpmt:winapinls.obj
 0002:00004860       ??_C@_1M@MKDBIIJI@?$AAe?$AAs?$AA?9?$AAB?$AAO?$AA?$AA@ 000000018002c860     libcpmt:winapinls.obj
 0002:00004870       ??_C@_1M@CPKKEBLD@?$AAe?$AAs?$AA?9?$AAS?$AAV?$AA?$AA@ 000000018002c870     libcpmt:winapinls.obj
 0002:00004880       ??_C@_1M@NDBGMMJL@?$AAe?$AAs?$AA?9?$AAH?$AAN?$AA?$AA@ 000000018002c880     libcpmt:winapinls.obj
 0002:00004890       ??_C@_1M@JIJIBHDP@?$AAe?$AAs?$AA?9?$AAN?$AAI?$AA?$AA@ 000000018002c890     libcpmt:winapinls.obj
 0002:000048a0       ??_C@_1M@CGFMKEEK@?$AAe?$AAs?$AA?9?$AAP?$AAR?$AA?$AA@ 000000018002c8a0     libcpmt:winapinls.obj
 0002:000048b0       ??_C@_1O@ICJHKIIK@?$AAz?$AAh?$AA?9?$AAC?$AAH?$AAT?$AA?$AA@ 000000018002c8b0     libcpmt:winapinls.obj
 0002:000048c0       ??_C@_15CLNEJCE@?$AAs?$AAr?$AA?$AA@ 000000018002c8c0     libcpmt:winapinls.obj
 0002:000048c8       ??_C@_1M@KAHEKEIG@?$AAa?$AAf?$AA?9?$AAz?$AAa?$AA?$AA@ 000000018002c8c8     libcpmt:winapinls.obj
 0002:000048d8       ??_C@_1M@GIECOABL@?$AAa?$AAr?$AA?9?$AAa?$AAe?$AA?$AA@ 000000018002c8d8     libcpmt:winapinls.obj
 0002:000048e8       ??_C@_1M@BMLMEKGI@?$AAa?$AAr?$AA?9?$AAb?$AAh?$AA?$AA@ 000000018002c8e8     libcpmt:winapinls.obj
 0002:000048f8       ??_C@_1M@DAPFDGGB@?$AAa?$AAr?$AA?9?$AAd?$AAz?$AA?$AA@ 000000018002c8f8     libcpmt:winapinls.obj
 0002:00004908       ??_C@_1M@FJNKGKIG@?$AAa?$AAr?$AA?9?$AAe?$AAg?$AA?$AA@ 000000018002c908     libcpmt:winapinls.obj
 0002:00004918       ??_C@_1M@FLGKKCLO@?$AAa?$AAr?$AA?9?$AAi?$AAq?$AA?$AA@ 000000018002c918     libcpmt:winapinls.obj
 0002:00004928       ??_C@_1M@GNDIPALM@?$AAa?$AAr?$AA?9?$AAj?$AAo?$AA?$AA@ 000000018002c928     libcpmt:winapinls.obj
 0002:00004938       ??_C@_1M@DDMJFMGJ@?$AAa?$AAr?$AA?9?$AAk?$AAw?$AA?$AA@ 000000018002c938     libcpmt:winapinls.obj
 0002:00004948       ??_C@_1M@EJALMLHM@?$AAa?$AAr?$AA?9?$AAl?$AAb?$AA?$AA@ 000000018002c948     libcpmt:winapinls.obj
 0002:00004958       ??_C@_1M@MOBDBLOC@?$AAa?$AAr?$AA?9?$AAl?$AAy?$AA?$AA@ 000000018002c958     libcpmt:winapinls.obj
 0002:00004968       ??_C@_1M@JAOCLHDH@?$AAa?$AAr?$AA?9?$AAm?$AAa?$AA?$AA@ 000000018002c968     libcpmt:winapinls.obj
 0002:00004978       ??_C@_1M@JHPMKJIE@?$AAa?$AAr?$AA?9?$AAo?$AAm?$AA?$AA@ 000000018002c978     libcpmt:winapinls.obj
 0002:00004988       ??_C@_1M@OEPGHFNH@?$AAa?$AAr?$AA?9?$AAq?$AAa?$AA?$AA@ 000000018002c988     libcpmt:winapinls.obj
 0002:00004998       ??_C@_1M@KJDONENM@?$AAa?$AAr?$AA?9?$AAs?$AAa?$AA?$AA@ 000000018002c998     libcpmt:winapinls.obj
 0002:000049a8       ??_C@_1M@DMJDKLKM@?$AAa?$AAr?$AA?9?$AAs?$AAy?$AA?$AA@ 000000018002c9a8     libcpmt:winapinls.obj
 0002:000049b8       ??_C@_1M@OMFIPEDC@?$AAa?$AAr?$AA?9?$AAt?$AAn?$AA?$AA@ 000000018002c9b8     libcpmt:winapinls.obj
 0002:000049c8       ??_C@_1M@IHMHGAON@?$AAa?$AAr?$AA?9?$AAy?$AAe?$AA?$AA@ 000000018002c9c8     libcpmt:winapinls.obj
 0002:000049d8       ??_C@_1BG@KDCPGJGB@?$AAa?$AAz?$AA?9?$AAa?$AAz?$AA?9?$AAc?$AAy?$AAr?$AAl?$AA?$AA@ 000000018002c9d8     libcpmt:winapinls.obj
 0002:000049f0       ??_C@_1BG@IBCKDDOE@?$AAa?$AAz?$AA?9?$AAa?$AAz?$AA?9?$AAl?$AAa?$AAt?$AAn?$AA?$AA@ 000000018002c9f0     libcpmt:winapinls.obj
 0002:00004a08       ??_C@_1M@EGPFDCPD@?$AAb?$AAe?$AA?9?$AAb?$AAy?$AA?$AA@ 000000018002ca08     libcpmt:winapinls.obj
 0002:00004a18       ??_C@_1M@PCMGMCGC@?$AAb?$AAg?$AA?9?$AAb?$AAg?$AA?$AA@ 000000018002ca18     libcpmt:winapinls.obj
 0002:00004a28       ??_C@_1M@BJBMFGOB@?$AAb?$AAn?$AA?9?$AAi?$AAn?$AA?$AA@ 000000018002ca28     libcpmt:winapinls.obj
 0002:00004a38       ??_C@_1BG@EAKMMACD@?$AAb?$AAs?$AA?9?$AAb?$AAa?$AA?9?$AAl?$AAa?$AAt?$AAn?$AA?$AA@ 000000018002ca38     libcpmt:winapinls.obj
 0002:00004a50       ??_C@_1M@KGADAODK@?$AAc?$AAa?$AA?9?$AAe?$AAs?$AA?$AA@ 000000018002ca50     libcpmt:winapinls.obj
 0002:00004a60       ??_C@_1M@COAJPDHI@?$AAc?$AAs?$AA?9?$AAc?$AAz?$AA?$AA@ 000000018002ca60     libcpmt:winapinls.obj
 0002:00004a70       ??_C@_1M@DHBHFONH@?$AAc?$AAy?$AA?9?$AAg?$AAb?$AA?$AA@ 000000018002ca70     libcpmt:winapinls.obj
 0002:00004a80       ??_C@_1M@IMGKELGA@?$AAd?$AAa?$AA?9?$AAd?$AAk?$AA?$AA@ 000000018002ca80     libcpmt:winapinls.obj
 0002:00004a90       ??_C@_1M@NNDGDNGA@?$AAd?$AAe?$AA?9?$AAa?$AAt?$AA?$AA@ 000000018002ca90     libcpmt:winapinls.obj
 0002:00004aa0       ??_C@_1M@IKDBHEEM@?$AAd?$AAe?$AA?9?$AAc?$AAh?$AA?$AA@ 000000018002caa0     libcpmt:winapinls.obj
 0002:00004ab0       ??_C@_1M@GFFOJMCJ@?$AAd?$AAe?$AA?9?$AAd?$AAe?$AA?$AA@ 000000018002cab0     libcpmt:winapinls.obj
 0002:00004ac0       ??_C@_1M@MDNLKBPM@?$AAd?$AAe?$AA?9?$AAl?$AAi?$AA?$AA@ 000000018002cac0     libcpmt:winapinls.obj
 0002:00004ad0       ??_C@_1M@NJBEEJNL@?$AAd?$AAe?$AA?9?$AAl?$AAu?$AA?$AA@ 000000018002cad0     libcpmt:winapinls.obj
 0002:00004ae0       ??_C@_1O@GNNELBAP@?$AAd?$AAi?$AAv?$AA?9?$AAm?$AAv?$AA?$AA@ 000000018002cae0     libcpmt:winapinls.obj
 0002:00004af0       ??_C@_1M@EJLEOGAE@?$AAe?$AAl?$AA?9?$AAg?$AAr?$AA?$AA@ 000000018002caf0     libcpmt:winapinls.obj
 0002:00004b00       ??_C@_1M@GMPONJN@?$AAe?$AAn?$AA?9?$AAa?$AAu?$AA?$AA@ 000000018002cb00     libcpmt:winapinls.obj
 0002:00004b10       ??_C@_1M@NIDIIPGF@?$AAe?$AAn?$AA?9?$AAb?$AAz?$AA?$AA@ 000000018002cb10     libcpmt:winapinls.obj
 0002:00004b20       ??_C@_1M@JEHMIMFO@?$AAe?$AAn?$AA?9?$AAc?$AAa?$AA?$AA@ 000000018002cb20     libcpmt:winapinls.obj
 0002:00004b30       ??_C@_1M@IGMJCDLA@?$AAe?$AAn?$AA?9?$AAc?$AAb?$AA?$AA@ 000000018002cb30     libcpmt:winapinls.obj
 0002:00004b40       ??_C@_1M@BNFIGBKG@?$AAe?$AAn?$AA?9?$AAg?$AAb?$AA?$AA@ 000000018002cb40     libcpmt:winapinls.obj
 0002:00004b50       ??_C@_1M@LKIFDIGP@?$AAe?$AAn?$AA?9?$AAi?$AAe?$AA?$AA@ 000000018002cb50     libcpmt:winapinls.obj
 0002:00004b60       ??_C@_1M@PJKFGCCO@?$AAe?$AAn?$AA?9?$AAj?$AAm?$AA?$AA@ 000000018002cb60     libcpmt:winapinls.obj
 0002:00004b70       ??_C@_1M@KPPKEPBO@?$AAe?$AAn?$AA?9?$AAn?$AAz?$AA?$AA@ 000000018002cb70     libcpmt:winapinls.obj
 0002:00004b80       ??_C@_1M@GMDGLDOB@?$AAe?$AAn?$AA?9?$AAp?$AAh?$AA?$AA@ 000000018002cb80     libcpmt:winapinls.obj
 0002:00004b90       ??_C@_1M@ONGIBJNA@?$AAe?$AAn?$AA?9?$AAt?$AAt?$AA?$AA@ 000000018002cb90     libcpmt:winapinls.obj
 0002:00004ba0       ??_C@_1M@LLODPCMM@?$AAe?$AAn?$AA?9?$AAu?$AAs?$AA?$AA@ 000000018002cba0     libcpmt:winapinls.obj
 0002:00004bb0       ??_C@_1M@LAKFNPAN@?$AAe?$AAn?$AA?9?$AAz?$AAa?$AA?$AA@ 000000018002cbb0     libcpmt:winapinls.obj
 0002:00004bc0       ??_C@_1M@MFNHNHEO@?$AAe?$AAn?$AA?9?$AAz?$AAw?$AA?$AA@ 000000018002cbc0     libcpmt:winapinls.obj
 0002:00004bd0       ??_C@_1M@EJEINPHM@?$AAe?$AAs?$AA?9?$AAa?$AAr?$AA?$AA@ 000000018002cbd0     libcpmt:winapinls.obj
 0002:00004be0       ??_C@_1M@GNKPCCJA@?$AAe?$AAs?$AA?9?$AAb?$AAo?$AA?$AA@ 000000018002cbe0     libcpmt:winapinls.obj
 0002:00004bf0       ??_C@_1M@LEEGFONL@?$AAe?$AAs?$AA?9?$AAc?$AAl?$AA?$AA@ 000000018002cbf0     libcpmt:winapinls.obj
 0002:00004c00       ??_C@_1M@KGPDPBDF@?$AAe?$AAs?$AA?9?$AAc?$AAo?$AA?$AA@ 000000018002cc00     libcpmt:winapinls.obj
 0002:00004c10       ??_C@_1M@EIAHOHH@?$AAe?$AAs?$AA?9?$AAc?$AAr?$AA?$AA@ 000000018002cc10     libcpmt:winapinls.obj
 0002:00004c20       ??_C@_1M@LLPGMBIN@?$AAe?$AAs?$AA?9?$AAd?$AAo?$AA?$AA@ 000000018002cc20     libcpmt:winapinls.obj
 0002:00004c30       ??_C@_1M@DKHMKNJA@?$AAe?$AAs?$AA?9?$AAe?$AAc?$AA?$AA@ 000000018002cc30     libcpmt:winapinls.obj
 0002:00004c40       ??_C@_1M@GKGFPKAP@?$AAe?$AAs?$AA?9?$AAe?$AAs?$AA?$AA@ 000000018002cc40     libcpmt:winapinls.obj
 0002:00004c50       ??_C@_1M@LKHKGDLN@?$AAe?$AAs?$AA?9?$AAg?$AAt?$AA?$AA@ 000000018002cc50     libcpmt:winapinls.obj
 0002:00004c60       ??_C@_1M@HEIIGGJD@?$AAe?$AAs?$AA?9?$AAh?$AAn?$AA?$AA@ 000000018002cc60     libcpmt:winapinls.obj
 0002:00004c70       ??_C@_1M@FBDHPPGD@?$AAe?$AAs?$AA?9?$AAm?$AAx?$AA?$AA@ 000000018002cc70     libcpmt:winapinls.obj
 0002:00004c80       ??_C@_1M@DPAGLNDH@?$AAe?$AAs?$AA?9?$AAn?$AAi?$AA?$AA@ 000000018002cc80     libcpmt:winapinls.obj
 0002:00004c90       ??_C@_1M@MDGOPGDD@?$AAe?$AAs?$AA?9?$AAp?$AAa?$AA?$AA@ 000000018002cc90     libcpmt:winapinls.obj
 0002:00004ca0       ??_C@_1M@EMAMGBGE@?$AAe?$AAs?$AA?9?$AAp?$AAe?$AA?$AA@ 000000018002cca0     libcpmt:winapinls.obj
 0002:00004cb0       ??_C@_1M@IBMCAOEC@?$AAe?$AAs?$AA?9?$AAp?$AAr?$AA?$AA@ 000000018002ccb0     libcpmt:winapinls.obj
 0002:00004cc0       ??_C@_1M@FGMDIJED@?$AAe?$AAs?$AA?9?$AAp?$AAy?$AA?$AA@ 000000018002ccc0     libcpmt:winapinls.obj
 0002:00004cd0       ??_C@_1M@IIDEOLLL@?$AAe?$AAs?$AA?9?$AAs?$AAv?$AA?$AA@ 000000018002ccd0     libcpmt:winapinls.obj
 0002:00004ce0       ??_C@_1M@GAOBIPA@?$AAe?$AAs?$AA?9?$AAu?$AAy?$AA?$AA@ 000000018002cce0     libcpmt:winapinls.obj
 0002:00004cf0       _pRawDllMain               000000018002ccf0     LIBCMT:dll_dllmain.obj
 0002:00004cf0       _pDefaultRawDllMain        000000018002ccf0     LIBCMT:dll_dllmain.obj
 0002:00004d00       ??_7type_info@@6B@         000000018002cd00     LIBCMT:std_type_info_static.obj
 0002:00004d20       ??_7bad_array_new_length@std@@6B@ 000000018002cd20     LIBCMT:throw_bad_alloc.obj
 0002:00004d30       ??_C@_0BF@KINCDENJ@bad?5array?5new?5length?$AA@ 000000018002cd30     LIBCMT:throw_bad_alloc.obj
 0002:00004d90       _pDestructExceptionObject  000000018002cd90     libvcruntime:frame.obj
 0002:00004da0       ??_7bad_exception@std@@6B@ 000000018002cda0     libvcruntime:frame.obj
 0002:00004db0       ??_C@_0O@DPKOEFFH@bad?5exception?$AA@ 000000018002cdb0     libvcruntime:frame.obj
 0002:00004e78       ??_C@_1BC@DNHGCMLG@?$AAa?$AAd?$AAv?$AAa?$AAp?$AAi?$AA3?$AA2?$AA?$AA@ 000000018002ce78     libvcruntime:winapi_downlevel.obj
 0002:00004e90       ??_C@_1DM@KHCHBNEB@?$AAa?$AAp?$AAi?$AA?9?$AAm?$AAs?$AA?9?$AAw?$AAi?$AAn?$AA?9?$AAc?$AAo?$AAr?$AAe?$AA?9?$AAf?$AAi?$AAb?$AAe?$AAr?$AAs?$AA?9?$AAl?$AA1?$AA?9?$AA1?$AA?9?$AA1?$AA?$AA@ 000000018002ce90     libvcruntime:winapi_downlevel.obj
 0002:00004ed0       ??_C@_1DK@LPPGFMPP@?$AAa?$AAp?$AAi?$AA?9?$AAm?$AAs?$AA?9?$AAw?$AAi?$AAn?$AA?9?$AAc?$AAo?$AAr?$AAe?$AA?9?$AAs?$AAy?$AAn?$AAc?$AAh?$AA?9?$AAl?$AA1?$AA?9?$AA2?$AA?9?$AA0?$AA?$AA@ 000000018002ced0     libvcruntime:winapi_downlevel.obj
 0002:00004f10       ??_C@_1BC@GDMECMAK@?$AAk?$AAe?$AAr?$AAn?$AAe?$AAl?$AA3?$AA2?$AA?$AA@ 000000018002cf10     libvcruntime:winapi_downlevel.obj
 0002:00005270       ??_C@_08EHJDFFNH@__based?$CI?$AA@ 000000018002d270     libvcruntime:undname.obj
 0002:00005280       ??_C@_07KOLFKCDI@__cdecl?$AA@ 000000018002d280     libvcruntime:undname.obj
 0002:00005288       ??_C@_08GHMPAG@__pascal?$AA@ 000000018002d288     libvcruntime:undname.obj
 0002:00005298       ??_C@_09IFJBGAPI@__stdcall?$AA@ 000000018002d298     libvcruntime:undname.obj
 0002:000052a8       ??_C@_0L@NPHFGOKO@__thiscall?$AA@ 000000018002d2a8     libvcruntime:undname.obj
 0002:000052b8       ??_C@_0L@JMKHOMEK@__fastcall?$AA@ 000000018002d2b8     libvcruntime:undname.obj
 0002:000052c8       ??_C@_0N@BCKKPABJ@__vectorcall?$AA@ 000000018002d2c8     libvcruntime:undname.obj
 0002:000052d8       ??_C@_09HIJEGCPM@__clrcall?$AA@ 000000018002d2d8     libvcruntime:undname.obj
 0002:000052e4       ??_C@_06GHPCKEAG@__eabi?$AA@ 000000018002d2e4     libvcruntime:undname.obj
 0002:000052f0       ??_C@_07JOMMBBKO@__ptr64?$AA@ 000000018002d2f0     libvcruntime:undname.obj
 0002:000052f8       ??_C@_0L@PILCLIHE@__restrict?$AA@ 000000018002d2f8     libvcruntime:undname.obj
 0002:00005308       ??_C@_0M@GFIIJFMG@__unaligned?$AA@ 000000018002d308     libvcruntime:undname.obj
 0002:00005318       ??_C@_09DHDLOLLB@restrict?$CI?$AA@ 000000018002d318     libvcruntime:undname.obj
 0002:00005324       ??_C@_04NIHEBCM@?5new?$AA@ 000000018002d324     libvcruntime:undname.obj
 0002:00005330       ??_C@_07FPCDHGMM@?5delete?$AA@ 000000018002d330     libvcruntime:undname.obj
 0002:00005338       ??_C@_01NEMOKFLO@?$DN?$AA@ 000000018002d338     libvcruntime:undname.obj
 0002:0000533c       ??_C@_02GPIOPFAK@?$DO?$DO?$AA@ 000000018002d33c     libvcruntime:undname.obj
 0002:00005340       ??_C@_02FODMEDOG@?$DM?$DM?$AA@ 000000018002d340     libvcruntime:undname.obj
 0002:00005344       ??_C@_01DCLJPIOD@?$CB?$AA@ 000000018002d344     libvcruntime:undname.obj
 0002:00005348       ??_C@_02EGOFBIJA@?$DN?$DN?$AA@ 000000018002d348     libvcruntime:undname.obj
 0002:0000534c       ??_C@_02FDNJECIE@?$CB?$DN?$AA@ 000000018002d34c     libvcruntime:undname.obj
 0002:00005350       ??_C@_02GPECMEKF@?$FL?$FN?$AA@ 000000018002d350     libvcruntime:undname.obj
 0002:00005358       ??_C@_08LHJFAFGD@operator?$AA@ 000000018002d358     libvcruntime:undname.obj
 0002:00005364       ??_C@_02HBOOOICD@?9?$DO?$AA@ 000000018002d364     libvcruntime:undname.obj
 0002:00005368       ??_C@_02ECNGHCIF@?$CL?$CL?$AA@ 000000018002d368     libvcruntime:undname.obj
 0002:0000536c       ??_C@_02BAABKJLB@?9?9?$AA@ 000000018002d36c     libvcruntime:undname.obj
 0002:00005370       ??_C@_01MIFGBAGJ@?$CL?$AA@ 000000018002d370     libvcruntime:undname.obj
 0002:00005374       ??_C@_01HNPIGOCE@?$CG?$AA@ 000000018002d374     libvcruntime:undname.obj
 0002:00005378       ??_C@_03MNHNFDLC@?9?$DO?$CK?$AA@ 000000018002d378     libvcruntime:undname.obj
 0002:0000537c       ??_C@_01KMDKNFGN@?1?$AA@   000000018002d37c     libvcruntime:undname.obj
 0002:00005380       ??_C@_01FGNFDNOH@?$CF?$AA@ 000000018002d380     libvcruntime:undname.obj
 0002:00005384       ??_C@_01MNNFJEPP@?$DM?$AA@ 000000018002d384     libvcruntime:undname.obj
 0002:00005388       ??_C@_02EHCHHCKH@?$DM?$DN?$AA@ 000000018002d388     libvcruntime:undname.obj
 0002:0000538c       ??_C@_01PPODPGHN@?$DO?$AA@ 000000018002d38c     libvcruntime:undname.obj
 0002:00005390       ??_C@_02EEKDKGMJ@?$DO?$DN?$AA@ 000000018002d390     libvcruntime:undname.obj
 0002:00005394       ??_C@_01IHBHIGKO@?0?$AA@   000000018002d394     libvcruntime:undname.obj
 0002:00005398       ??_C@_02HCKGKOFO@?$CI?$CJ?$AA@ 000000018002d398     libvcruntime:undname.obj
 0002:0000539c       ??_C@_01PJKLJHI@?$HO?$AA@  000000018002d39c     libvcruntime:undname.obj
 0002:000053a0       ??_C@_01JKBOJNNK@?$FO?$AA@ 000000018002d3a0     libvcruntime:undname.obj
 0002:000053a4       ??_C@_01DNKMNLPK@?$HM?$AA@ 000000018002d3a4     libvcruntime:undname.obj
 0002:000053a8       ??_C@_02PPKAJPJL@?$CG?$CG?$AA@ 000000018002d3a8     libvcruntime:undname.obj
 0002:000053ac       ??_C@_02NONPIBCD@?$HM?$HM?$AA@ 000000018002d3ac     libvcruntime:undname.obj
 0002:000053b0       ??_C@_02FPIMKNGF@?$CK?$DN?$AA@ 000000018002d3b0     libvcruntime:undname.obj
 0002:000053b4       ??_C@_02FOEOMHFC@?$CL?$DN?$AA@ 000000018002d3b4     libvcruntime:undname.obj
 0002:000053b8       ??_C@_02FKMDLLOA@?9?$DN?$AA@ 000000018002d3b8     libvcruntime:undname.obj
 0002:000053bc       ??_C@_02FJEHGPIO@?1?$DN?$AA@ 000000018002d3bc     libvcruntime:undname.obj
 0002:000053c0       ??_C@_02FENAOKFI@?$CF?$DN?$AA@ 000000018002d3c0     libvcruntime:undname.obj
 0002:000053c4       ??_C@_03IKFCCPFF@?$DO?$DO?$DN?$AA@ 000000018002d3c4     libvcruntime:undname.obj
 0002:000053c8       ??_C@_03CDNPDDLA@?$DM?$DM?$DN?$AA@ 000000018002d3c8     libvcruntime:undname.obj
 0002:000053cc       ??_C@_02FGJGFEAB@?$CG?$DN?$AA@ 000000018002d3cc     libvcruntime:undname.obj
 0002:000053d0       ??_C@_02DHLNPPGH@?$HM?$DN?$AA@ 000000018002d3d0     libvcruntime:undname.obj
 0002:000053d4       ??_C@_02MHEGNOJ@?$FO?$DN?$AA@ 000000018002d3d4     libvcruntime:undname.obj
 0002:000053d8       ??_C@_09IFPLHPGF@?$GAvftable?8?$AA@ 000000018002d3d8     libvcruntime:undname.obj
 0002:000053e8       ??_C@_09BLBHBJP@?$GAvbtable?8?$AA@ 000000018002d3e8     libvcruntime:undname.obj
 0002:000053f8       ??_C@_07FEEIOKP@?$GAvcall?8?$AA@ 000000018002d3f8     libvcruntime:undname.obj
 0002:00005400       ??_C@_08LLFFHHDJ@?$GAtypeof?8?$AA@ 000000018002d400     libvcruntime:undname.obj
 0002:00005410       ??_C@_0BF@KDPPACIK@?$GAlocal?5static?5guard?8?$AA@ 000000018002d410     libvcruntime:undname.obj
 0002:00005428       ??_C@_08OBABFOLI@?$GAstring?8?$AA@ 000000018002d428     libvcruntime:undname.obj
 0002:00005438       ??_C@_0BD@JDLKDPAB@?$GAvbase?5destructor?8?$AA@ 000000018002d438     libvcruntime:undname.obj
 0002:00005450       ??_C@_0BN@DEGPLNFK@?$GAvector?5deleting?5destructor?8?$AA@ 000000018002d450     libvcruntime:undname.obj
 0002:00005470       ??_C@_0BO@OBMKPJIG@?$GAdefault?5constructor?5closure?8?$AA@ 000000018002d470     libvcruntime:undname.obj
 0002:00005490       ??_C@_0BN@IMDCHIKM@?$GAscalar?5deleting?5destructor?8?$AA@ 000000018002d490     libvcruntime:undname.obj
 0002:000054b0       ??_C@_0BO@PFGOCPJJ@?$GAvector?5constructor?5iterator?8?$AA@ 000000018002d4b0     libvcruntime:undname.obj
 0002:000054d0       ??_C@_0BN@LFPFMEDL@?$GAvector?5destructor?5iterator?8?$AA@ 000000018002d4d0     libvcruntime:undname.obj
 0002:000054f0       ??_C@_0CE@IKBNEHA@?$GAvector?5vbase?5constructor?5iterat@ 000000018002d4f0     libvcruntime:undname.obj
 0002:00005518       ??_C@_0BL@NILFHHPC@?$GAvirtual?5displacement?5map?8?$AA@ 000000018002d518     libvcruntime:undname.obj
 0002:00005538       ??_C@_0CB@JONCMFFK@?$GAeh?5vector?5constructor?5iterator?8@ 000000018002d538     libvcruntime:undname.obj
 0002:00005560       ??_C@_0CA@GCEOPDGL@?$GAeh?5vector?5destructor?5iterator?8?$AA@ 000000018002d560     libvcruntime:undname.obj
 0002:00005580       ??_C@_0CH@OOJPLCPH@?$GAeh?5vector?5vbase?5constructor?5ite@ 000000018002d580     libvcruntime:undname.obj
 0002:000055a8       ??_C@_0BL@LLKPOHJI@?$GAcopy?5constructor?5closure?8?$AA@ 000000018002d5a8     libvcruntime:undname.obj
 0002:000055c8       ??_C@_0BA@KBCDOMBN@?$GAudt?5returning?8?$AA@ 000000018002d5c8     libvcruntime:undname.obj
 0002:000055d8       ??_C@_03KLGMFNMG@?$GAEH?$AA@ 000000018002d5d8     libvcruntime:undname.obj
 0002:000055dc       ??_C@_05KHLCHHI@?$GARTTI?$AA@ 000000018002d5dc     libvcruntime:undname.obj
 0002:000055e8       ??_C@_0BA@KKLDJDLB@?$GAlocal?5vftable?8?$AA@ 000000018002d5e8     libvcruntime:undname.obj
 0002:000055f8       ??_C@_0CE@IIHCMGGL@?$GAlocal?5vftable?5constructor?5closu@ 000000018002d5f8     libvcruntime:undname.obj
 0002:0000561c       ??_C@_06FHBGPFGH@?5new?$FL?$FN?$AA@ 000000018002d61c     libvcruntime:undname.obj
 0002:00005628       ??_C@_09LBNFPBCA@?5delete?$FL?$FN?$AA@ 000000018002d628     libvcruntime:undname.obj
 0002:00005638       ??_C@_0P@HJKNJFNN@?$GAomni?5callsig?8?$AA@ 000000018002d638     libvcruntime:undname.obj
 0002:00005648       ??_C@_0BL@CNOONJFP@?$GAplacement?5delete?5closure?8?$AA@ 000000018002d648     libvcruntime:undname.obj
 0002:00005668       ??_C@_0BN@CKNJLHMB@?$GAplacement?5delete?$FL?$FN?5closure?8?$AA@ 000000018002d668     libvcruntime:undname.obj
 0002:00005688       ??_C@_0CG@CFDHKGGD@?$GAmanaged?5vector?5constructor?5iter@ 000000018002d688     libvcruntime:undname.obj
 0002:000056b0       ??_C@_0CF@IMGKMJNO@?$GAmanaged?5vector?5destructor?5itera@ 000000018002d6b0     libvcruntime:undname.obj
 0002:000056d8       ??_C@_0CG@HLDDJMAG@?$GAeh?5vector?5copy?5constructor?5iter@ 000000018002d6d8     libvcruntime:undname.obj
 0002:00005700       ??_C@_0CM@FCBBDIGB@?$GAeh?5vector?5vbase?5copy?5constructo@ 000000018002d700     libvcruntime:undname.obj
 0002:00005730       ??_C@_0BL@CLIPGLGB@?$GAdynamic?5initializer?5for?5?8?$AA@ 000000018002d730     libvcruntime:undname.obj
 0002:00005750       ??_C@_0CB@PDBIFEP@?$GAdynamic?5atexit?5destructor?5for?5?8@ 000000018002d750     libvcruntime:undname.obj
 0002:00005778       ??_C@_0CD@CGAJBKEJ@?$GAvector?5copy?5constructor?5iterato@ 000000018002d778     libvcruntime:undname.obj
 0002:000057a0       ??_C@_0CJ@GJELGAMM@?$GAvector?5vbase?5copy?5constructor?5i@ 000000018002d7a0     libvcruntime:undname.obj
 0002:000057d0       ??_C@_0CL@FGIJHLCE@?$GAmanaged?5vector?5copy?5constructor@ 000000018002d7d0     libvcruntime:undname.obj
 0002:00005800       ??_C@_0BM@PMGGMLDN@?$GAlocal?5static?5thread?5guard?8?$AA@ 000000018002d800     libvcruntime:undname.obj
 0002:00005820       ??_C@_0N@BDNMDMOL@operator?5?$CC?$CC?5?$AA@ 000000018002d820     libvcruntime:undname.obj
 0002:00005830       ??_C@_0BC@DAFEJGAK@?5Type?5Descriptor?8?$AA@ 000000018002d830     libvcruntime:undname.obj
 0002:00005848       ??_C@_0BM@LDKODKLH@?5Base?5Class?5Descriptor?5at?5?$CI?$AA@ 000000018002d848     libvcruntime:undname.obj
 0002:00005868       ??_C@_0BD@LGICGFMM@?5Base?5Class?5Array?8?$AA@ 000000018002d868     libvcruntime:undname.obj
 0002:00005880       ??_C@_0BN@MECKDCOJ@?5Class?5Hierarchy?5Descriptor?8?$AA@ 000000018002d880     libvcruntime:undname.obj
 0002:000058a0       ??_C@_0BK@CFCOFLF@?5Complete?5Object?5Locator?8?$AA@ 000000018002d8a0     libvcruntime:undname.obj
 0002:000058c0       format_validation_lookup_table 000000018002d8c0     libucrt:output.obj
 0002:0000591c       ??_C@_06OJHGLDPL@?$CInull?$CJ?$AA@ 000000018002d91c     libucrt:output.obj
 0002:00005928       ??_C@_1O@CEDCILHN@?$AA?$CI?$AAn?$AAu?$AAl?$AAl?$AA?$CJ?$AA?$AA@ 000000018002d928     libucrt:output.obj
 0002:00005938       __real@0000000000000000    000000018002d938     libucrt:frexp.obj
 0002:00005940       __real@3ff0000000000000    000000018002d940     libucrt:frexp.obj
 0002:00005948       __real@8000000000000000    000000018002d948     libucrt:frexp.obj
 0002:00005950       __newctype                 000000018002d950     libucrt:ctype.obj
 0002:00005c50       __newclmap                 000000018002dc50     libucrt:ctype.obj
 0002:00005dd0       __newcumap                 000000018002ddd0     libucrt:ctype.obj
 0002:00005f50       _wctype                    000000018002df50     libucrt:ctype.obj
 0002:000062d0       ?large_power_data@?1??multiply_by_power_of_ten@__crt_strtox@@YA_NAEAUbig_integer@2@I@Z@4QBIB 000000018002e2d0     libucrt:strtod.obj
 0002:00006be0       ?large_power_indices@?1??multiply_by_power_of_ten@__crt_strtox@@YA_NAEAUbig_integer@2@I@Z@4QBUunpack_index@?1??12@YA_N0I@Z@B 000000018002ebe0     libucrt:strtod.obj
 0002:00006c78       ?small_powers_of_ten@?6??multiply_by_power_of_ten@__crt_strtox@@YA_NAEAUbig_integer@2@I@Z@4QBIB 000000018002ec78     libucrt:strtod.obj
 0002:00008950       __acrt_exception_action_table 0000000180030950     libucrt:exception_filter.obj
 0002:00008a10       __acrt_signal_action_table_count 0000000180030a10     libucrt:exception_filter.obj
 0002:00008a18       __acrt_signal_action_first_fpe_index 0000000180030a18     libucrt:exception_filter.obj
 0002:00008a20       __acrt_signal_action_fpe_count 0000000180030a20     libucrt:exception_filter.obj
 0002:00008a28       ??_C@_1BI@BGOHAHKC@?$AAm?$AAs?$AAc?$AAo?$AAr?$AAe?$AAe?$AA?4?$AAd?$AAl?$AAl?$AA?$AA@ 0000000180030a28     libucrt:exit.obj
 0002:00008a40       ??_C@_0P@MIGLKIOC@CorExitProcess?$AA@ 0000000180030a40     libucrt:exit.obj
 0002:00008b40       ??_C@_03OEIAHPBN@INF?$AA@  0000000180030b40     libucrt:cvt.obj
 0002:00008b44       ??_C@_03OJHLLCGB@inf?$AA@  0000000180030b44     libucrt:cvt.obj
 0002:00008b48       ??_C@_03LKNCIKJB@NAN?$AA@  0000000180030b48     libucrt:cvt.obj
 0002:00008b4c       ??_C@_03LHCJEHON@nan?$AA@  0000000180030b4c     libucrt:cvt.obj
 0002:00008b50       ??_C@_09OFJJIMPC@NAN?$CISNAN?$CJ?$AA@ 0000000180030b50     libucrt:cvt.obj
 0002:00008b60       ??_C@_09IPFBKMDL@nan?$CIsnan?$CJ?$AA@ 0000000180030b60     libucrt:cvt.obj
 0002:00008b70       ??_C@_08IKHNHAJ@NAN?$CIIND?$CJ?$AA@ 0000000180030b70     libucrt:cvt.obj
 0002:00008b80       ??_C@_08OFCDMILK@nan?$CIind?$CJ?$AA@ 0000000180030b80     libucrt:cvt.obj
 0002:00008b8c       ??_C@_05KLBDPFGC@e?$CL000?$AA@ 0000000180030b8c     libucrt:cvt.obj
 0002:00008ba0       __lc_category              0000000180030ba0     libucrt:wsetlocale.obj
 0002:00008c30       ??_C@_1O@GIFLHMA@?$AAL?$AAC?$AA_?$AAA?$AAL?$AAL?$AA?$AA@ 0000000180030c30     libucrt:wsetlocale.obj
 0002:00008c40       ??_C@_1BG@PPOMIBNJ@?$AAL?$AAC?$AA_?$AAC?$AAO?$AAL?$AAL?$AAA?$AAT?$AAE?$AA?$AA@ 0000000180030c40     libucrt:wsetlocale.obj
 0002:00008c58       ??_C@_1BC@FFJGAPJM@?$AAL?$AAC?$AA_?$AAC?$AAT?$AAY?$AAP?$AAE?$AA?$AA@ 0000000180030c58     libucrt:wsetlocale.obj
 0002:00008c70       ??_C@_1BI@PCKFNJFB@?$AAL?$AAC?$AA_?$AAM?$AAO?$AAN?$AAE?$AAT?$AAA?$AAR?$AAY?$AA?$AA@ 0000000180030c70     libucrt:wsetlocale.obj
 0002:00008c88       ??_C@_1BG@ENIEDKID@?$AAL?$AAC?$AA_?$AAN?$AAU?$AAM?$AAE?$AAR?$AAI?$AAC?$AA?$AA@ 0000000180030c88     libucrt:wsetlocale.obj
 0002:00008ca0       ??_C@_1BA@HAAOMIIG@?$AAL?$AAC?$AA_?$AAT?$AAI?$AAM?$AAE?$AA?$AA@ 0000000180030ca0     libucrt:wsetlocale.obj
 0002:00008d30       ??_C@_15NBPDDFIP@?$AA?$DN?$AA?$DL?$AA?$AA@ 0000000180030d30     libucrt:wsetlocale.obj
 0002:00008d38       ??_C@_13PJJBFPED@?$AA?$DL?$AA?$AA@ 0000000180030d38     libucrt:wsetlocale.obj
 0002:00008d3c       ??_C@_13NMPKAAJP@?$AA?$DN?$AA?$AA@ 0000000180030d3c     libucrt:wsetlocale.obj
 0002:00008d40       ??_C@_13FHBKNHDA@?$AAC?$AA?$AA@ 0000000180030d40     libucrt:wsetlocale.obj
 0002:00008d48       ??_C@_17MBJJLFDM@?$AA_?$AA?4?$AA?0?$AA?$AA@ 0000000180030d48     libucrt:wsetlocale.obj
 0002:00008d50       ??_C@_13ENNFDPBH@?$AA_?$AA?$AA@ 0000000180030d50     libucrt:wsetlocale.obj
 0002:00008d54       ??_C@_13JOFGPIOO@?$AA?4?$AA?$AA@ 0000000180030d54     libucrt:wsetlocale.obj
 0002:00008d60       __lc_time_c                0000000180030d60     libucrt:nlsdata.obj
 0002:00009020       ??_C@_03KOEHGMDN@Sun?$AA@  0000000180031020     libucrt:nlsdata.obj
 0002:00009024       ??_C@_03PDAGKDH@Mon?$AA@   0000000180031024     libucrt:nlsdata.obj
 0002:00009028       ??_C@_03NAGEINEP@Tue?$AA@  0000000180031028     libucrt:nlsdata.obj
 0002:0000902c       ??_C@_03MHOMLAJA@Wed?$AA@  000000018003102c     libucrt:nlsdata.obj
 0002:00009030       ??_C@_03IOFIKPDN@Thu?$AA@  0000000180031030     libucrt:nlsdata.obj
 0002:00009034       ??_C@_03IDIOELNC@Fri?$AA@  0000000180031034     libucrt:nlsdata.obj
 0002:00009038       ??_C@_03FEFJNEK@Sat?$AA@   0000000180031038     libucrt:nlsdata.obj
 0002:0000903c       ??_C@_06OOPIFAJ@Sunday?$AA@ 000000018003103c     libucrt:nlsdata.obj
 0002:00009044       ??_C@_06JLEDEDGH@Monday?$AA@ 0000000180031044     libucrt:nlsdata.obj
 0002:00009050       ??_C@_07BAAGCFCM@Tuesday?$AA@ 0000000180031050     libucrt:nlsdata.obj
 0002:00009058       ??_C@_09DLIGFAKA@Wednesday?$AA@ 0000000180031058     libucrt:nlsdata.obj
 0002:00009068       ??_C@_08HACCIKIA@Thursday?$AA@ 0000000180031068     libucrt:nlsdata.obj
 0002:00009074       ??_C@_06JECMNKMI@Friday?$AA@ 0000000180031074     libucrt:nlsdata.obj
 0002:00009080       ??_C@_08INBOOONO@Saturday?$AA@ 0000000180031080     libucrt:nlsdata.obj
 0002:0000908c       ??_C@_03JIHJHPIE@Jan?$AA@  000000018003108c     libucrt:nlsdata.obj
 0002:00009090       ??_C@_03HJBDCHOM@Feb?$AA@  0000000180031090     libucrt:nlsdata.obj
 0002:00009094       ??_C@_03ODNJBKGA@Mar?$AA@  0000000180031094     libucrt:nlsdata.obj
 0002:00009098       ??_C@_03LEOLGMJP@Apr?$AA@  0000000180031098     libucrt:nlsdata.obj
 0002:0000909c       ??_C@_03CNMDKL@May?$AA@    000000018003109c     libucrt:nlsdata.obj
 0002:000090a0       ??_C@_03IDFGHECI@Jun?$AA@  00000001800310a0     libucrt:nlsdata.obj
 0002:000090a4       ??_C@_03LBGABGKK@Jul?$AA@  00000001800310a4     libucrt:nlsdata.obj
 0002:000090a8       ??_C@_03IFJFEIGA@Aug?$AA@  00000001800310a8     libucrt:nlsdata.obj
 0002:000090ac       ??_C@_03GGCAPAJC@Sep?$AA@  00000001800310ac     libucrt:nlsdata.obj
 0002:000090b0       ??_C@_03BMAOKBAD@Oct?$AA@  00000001800310b0     libucrt:nlsdata.obj
 0002:000090b4       ??_C@_03JPJOFNIA@Nov?$AA@  00000001800310b4     libucrt:nlsdata.obj
 0002:000090b8       ??_C@_03MKABNOCG@Dec?$AA@  00000001800310b8     libucrt:nlsdata.obj
 0002:000090c0       ??_C@_07CGJPFGJA@January?$AA@ 00000001800310c0     libucrt:nlsdata.obj
 0002:000090c8       ??_C@_08GNJGEPFN@February?$AA@ 00000001800310c8     libucrt:nlsdata.obj
 0002:000090d4       ??_C@_05HPCKOFNC@March?$AA@ 00000001800310d4     libucrt:nlsdata.obj
 0002:000090dc       ??_C@_05DMJDNLEJ@April?$AA@ 00000001800310dc     libucrt:nlsdata.obj
 0002:000090e4       ??_C@_04CNLMGBGM@June?$AA@ 00000001800310e4     libucrt:nlsdata.obj
 0002:000090ec       ??_C@_04MIEPOIFP@July?$AA@ 00000001800310ec     libucrt:nlsdata.obj
 0002:000090f4       ??_C@_06LBBHFDDG@August?$AA@ 00000001800310f4     libucrt:nlsdata.obj
 0002:00009100       ??_C@_09BHHEALKD@September?$AA@ 0000000180031100     libucrt:nlsdata.obj
 0002:00009110       ??_C@_07JJNFCEND@October?$AA@ 0000000180031110     libucrt:nlsdata.obj
 0002:00009118       ??_C@_08HCHEGEOA@November?$AA@ 0000000180031118     libucrt:nlsdata.obj
 0002:00009128       ??_C@_08EDHMEBNP@December?$AA@ 0000000180031128     libucrt:nlsdata.obj
 0002:00009134       ??_C@_02DEDBPAFC@AM?$AA@   0000000180031134     libucrt:nlsdata.obj
 0002:00009138       ??_C@_02CJNFDJBF@PM?$AA@   0000000180031138     libucrt:nlsdata.obj
 0002:00009140       ??_C@_08BPBNCDIB@MM?1dd?1yy?$AA@ 0000000180031140     libucrt:nlsdata.obj
 0002:00009150       ??_C@_0BE@CKGJFCPC@dddd?0?5MMMM?5dd?0?5yyyy?$AA@ 0000000180031150     libucrt:nlsdata.obj
 0002:00009168       ??_C@_08JCCMCCIL@HH?3mm?3ss?$AA@ 0000000180031168     libucrt:nlsdata.obj
 0002:00009178       ??_C@_17MBGCMIPB@?$AAS?$AAu?$AAn?$AA?$AA@ 0000000180031178     libucrt:nlsdata.obj
 0002:00009180       ??_C@_17KBOMKBF@?$AAM?$AAo?$AAn?$AA?$AA@ 0000000180031180     libucrt:nlsdata.obj
 0002:00009188       ??_C@_17BMKGEGOJ@?$AAT?$AAu?$AAe?$AA?$AA@ 0000000180031188     libucrt:nlsdata.obj
 0002:00009190       ??_C@_17CJEDCEPE@?$AAW?$AAe?$AAd?$AA?$AA@ 0000000180031190     libucrt:nlsdata.obj
 0002:00009198       ??_C@_17PDPHAADD@?$AAT?$AAh?$AAu?$AA?$AA@ 0000000180031198     libucrt:nlsdata.obj
 0002:000091a0       ??_C@_17HFOLPPLP@?$AAF?$AAr?$AAi?$AA?$AA@ 00000001800311a0     libucrt:nlsdata.obj
 0002:000091a8       ??_C@_17GGIBDPIH@?$AAS?$AAa?$AAt?$AA?$AA@ 00000001800311a8     libucrt:nlsdata.obj
 0002:000091b0       ??_C@_1O@IHNHDHPB@?$AAS?$AAu?$AAn?$AAd?$AAa?$AAy?$AA?$AA@ 00000001800311b0     libucrt:nlsdata.obj
 0002:000091c0       ??_C@_1O@MMNBFLIA@?$AAM?$AAo?$AAn?$AAd?$AAa?$AAy?$AA?$AA@ 00000001800311c0     libucrt:nlsdata.obj
 0002:000091d0       ??_C@_1BA@ENFBFFEK@?$AAT?$AAu?$AAe?$AAs?$AAd?$AAa?$AAy?$AA?$AA@ 00000001800311d0     libucrt:nlsdata.obj
 0002:000091e0       ??_C@_1BE@EBOGMDOH@?$AAW?$AAe?$AAd?$AAn?$AAe?$AAs?$AAd?$AAa?$AAy?$AA?$AA@ 00000001800311e0     libucrt:nlsdata.obj
 0002:000091f8       ??_C@_1BC@HHMNLIHE@?$AAT?$AAh?$AAu?$AAr?$AAs?$AAd?$AAa?$AAy?$AA?$AA@ 00000001800311f8     libucrt:nlsdata.obj
 0002:00009210       ??_C@_1O@PDICJHAG@?$AAF?$AAr?$AAi?$AAd?$AAa?$AAy?$AA?$AA@ 0000000180031210     libucrt:nlsdata.obj
 0002:00009220       ??_C@_1BC@ENMNNPAJ@?$AAS?$AAa?$AAt?$AAu?$AAr?$AAd?$AAa?$AAy?$AA?$AA@ 0000000180031220     libucrt:nlsdata.obj
 0002:00009238       ??_C@_17DKNBKCHM@?$AAJ?$AAa?$AAn?$AA?$AA@ 0000000180031238     libucrt:nlsdata.obj
 0002:00009240       ??_C@_17LMDJEKJN@?$AAF?$AAe?$AAb?$AA?$AA@ 0000000180031240     libucrt:nlsdata.obj
 0002:00009248       ??_C@_17CKNLEDEC@?$AAM?$AAa?$AAr?$AA?$AA@ 0000000180031248     libucrt:nlsdata.obj
 0002:00009250       ??_C@_17LFPOIHDD@?$AAA?$AAp?$AAr?$AA?$AA@ 0000000180031250     libucrt:nlsdata.obj
 0002:00009258       ??_C@_17PNNKMEED@?$AAM?$AAa?$AAy?$AA?$AA@ 0000000180031258     libucrt:nlsdata.obj
 0002:00009260       ??_C@_17KCJGOCPB@?$AAJ?$AAu?$AAn?$AA?$AA@ 0000000180031260     libucrt:nlsdata.obj
 0002:00009268       ??_C@_17IJPCKHK@?$AAJ?$AAu?$AAl?$AA?$AA@ 0000000180031268     libucrt:nlsdata.obj
 0002:00009270       ??_C@_17ICPELBCN@?$AAA?$AAu?$AAg?$AA?$AA@ 0000000180031270     libucrt:nlsdata.obj
 0002:00009278       ??_C@_17HCHCOKMG@?$AAS?$AAe?$AAp?$AA?$AA@ 0000000180031278     libucrt:nlsdata.obj
 0002:00009280       ??_C@_17FNLKOI@?$AAO?$AAc?$AAt?$AA?$AA@ 0000000180031280     libucrt:nlsdata.obj
 0002:00009288       ??_C@_17BBDMLCIG@?$AAN?$AAo?$AAv?$AA?$AA@ 0000000180031288     libucrt:nlsdata.obj
 0002:00009290       ??_C@_17EGKACKIF@?$AAD?$AAe?$AAc?$AA?$AA@ 0000000180031290     libucrt:nlsdata.obj
 0002:00009298       ??_C@_1BA@EFMEIEBA@?$AAJ?$AAa?$AAn?$AAu?$AAa?$AAr?$AAy?$AA?$AA@ 0000000180031298     libucrt:nlsdata.obj
 0002:000092a8       ??_C@_1BC@JGDDFFAM@?$AAF?$AAe?$AAb?$AAr?$AAu?$AAa?$AAr?$AAy?$AA?$AA@ 00000001800312a8     libucrt:nlsdata.obj
 0002:000092c0       ??_C@_1M@IKEENEDF@?$AAM?$AAa?$AAr?$AAc?$AAh?$AA?$AA@ 00000001800312c0     libucrt:nlsdata.obj
 0002:000092d0       ??_C@_1M@GJNLMHFD@?$AAA?$AAp?$AAr?$AAi?$AAl?$AA?$AA@ 00000001800312d0     libucrt:nlsdata.obj
 0002:000092e0       ??_C@_19EPFLPGAP@?$AAJ?$AAu?$AAn?$AAe?$AA?$AA@ 00000001800312e0     libucrt:nlsdata.obj
 0002:000092f0       ??_C@_19BIFMLPCD@?$AAJ?$AAu?$AAl?$AAy?$AA?$AA@ 00000001800312f0     libucrt:nlsdata.obj
 0002:00009300       ??_C@_1O@PAHLKOAC@?$AAA?$AAu?$AAg?$AAu?$AAs?$AAt?$AA?$AA@ 0000000180031300     libucrt:nlsdata.obj
 0002:00009310       ??_C@_1BE@DKAAMBJL@?$AAS?$AAe?$AAp?$AAt?$AAe?$AAm?$AAb?$AAe?$AAr?$AA?$AA@ 0000000180031310     libucrt:nlsdata.obj
 0002:00009328       ??_C@_1BA@EPANDLNG@?$AAO?$AAc?$AAt?$AAo?$AAb?$AAe?$AAr?$AA?$AA@ 0000000180031328     libucrt:nlsdata.obj
 0002:00009338       ??_C@_1BC@BGLIFPF@?$AAN?$AAo?$AAv?$AAe?$AAm?$AAb?$AAe?$AAr?$AA?$AA@ 0000000180031338     libucrt:nlsdata.obj
 0002:00009350       ??_C@_1BC@FEMKIFH@?$AAD?$AAe?$AAc?$AAe?$AAm?$AAb?$AAe?$AAr?$AA?$AA@ 0000000180031350     libucrt:nlsdata.obj
 0002:00009364       ??_C@_15ODEHAHHF@?$AAA?$AAM?$AA?$AA@ 0000000180031364     libucrt:nlsdata.obj
 0002:0000936c       ??_C@_15CLMNNGEL@?$AAP?$AAM?$AA?$AA@ 000000018003136c     libucrt:nlsdata.obj
 0002:00009378       ??_C@_1BC@IEBCMHCM@?$AAM?$AAM?$AA?1?$AAd?$AAd?$AA?1?$AAy?$AAy?$AA?$AA@ 0000000180031378     libucrt:nlsdata.obj
 0002:00009390       ??_C@_1CI@KNAKOEBC@?$AAd?$AAd?$AAd?$AAd?$AA?0?$AA?5?$AAM?$AAM?$AAM?$AAM?$AA?5?$AAd?$AAd?$AA?0?$AA?5?$AAy?$AAy?$AAy?$AAy?$AA?$AA@ 0000000180031390     libucrt:nlsdata.obj
 0002:000093b8       ??_C@_1BC@GDGBMEMK@?$AAH?$AAH?$AA?3?$AAm?$AAm?$AA?3?$AAs?$AAs?$AA?$AA@ 00000001800313b8     libucrt:nlsdata.obj
 0002:000095a0       ??_C@_03KHJOGHMM@exp?$AA@  00000001800315a0     libucrt:fpexcept.obj
 0002:000095a4       ??_C@_03JGHBODFD@pow?$AA@  00000001800315a4     libucrt:fpexcept.obj
 0002:000095a8       ??_C@_03MGHMBJCF@log?$AA@  00000001800315a8     libucrt:fpexcept.obj
 0002:000095ac       ??_C@_05HGHHAHAP@log10?$AA@ 00000001800315ac     libucrt:fpexcept.obj
 0002:000095b4       ??_C@_04COOMCNPB@sinh?$AA@ 00000001800315b4     libucrt:fpexcept.obj
 0002:000095bc       ??_C@_04HPJJNFIM@cosh?$AA@ 00000001800315bc     libucrt:fpexcept.obj
 0002:000095c4       ??_C@_04FJHINJAO@tanh?$AA@ 00000001800315c4     libucrt:fpexcept.obj
 0002:000095cc       ??_C@_04FIHNOPOL@asin?$AA@ 00000001800315cc     libucrt:fpexcept.obj
 0002:000095d4       ??_C@_04PDIFKINK@acos?$AA@ 00000001800315d4     libucrt:fpexcept.obj
 0002:000095dc       ??_C@_04MLLJIGOK@atan?$AA@ 00000001800315dc     libucrt:fpexcept.obj
 0002:000095e4       ??_C@_05KNGEOGJB@atan2?$AA@ 00000001800315e4     libucrt:fpexcept.obj
 0002:000095ec       ??_C@_04EIAKFFMI@sqrt?$AA@ 00000001800315ec     libucrt:fpexcept.obj
 0002:000095f4       ??_C@_03BLEJJJBH@sin?$AA@  00000001800315f4     libucrt:fpexcept.obj
 0002:000095f8       ??_C@_03LALBNOCG@cos?$AA@  00000001800315f8     libucrt:fpexcept.obj
 0002:000095fc       ??_C@_03IIINPABG@tan?$AA@  00000001800315fc     libucrt:fpexcept.obj
 0002:00009600       ??_C@_04GFPJNGEK@ceil?$AA@ 0000000180031600     libucrt:fpexcept.obj
 0002:00009608       ??_C@_05PBJFFIGL@floor?$AA@ 0000000180031608     libucrt:fpexcept.obj
 0002:00009610       ??_C@_04ODHECPBC@fabs?$AA@ 0000000180031610     libucrt:fpexcept.obj
 0002:00009618       ??_C@_04EHEDPDJG@modf?$AA@ 0000000180031618     libucrt:fpexcept.obj
 0002:00009620       ??_C@_05CEJMAHNP@ldexp?$AA@ 0000000180031620     libucrt:fpexcept.obj
 0002:00009628       ??_C@_05KBKMEMPO@_cabs?$AA@ 0000000180031628     libucrt:fpexcept.obj
 0002:00009630       ??_C@_06MEIMCGCF@_hypot?$AA@ 0000000180031630     libucrt:fpexcept.obj
 0002:00009638       ??_C@_04KEPJIHGP@fmod?$AA@ 0000000180031638     libucrt:fpexcept.obj
 0002:00009640       ??_C@_05GKKHEGJL@frexp?$AA@ 0000000180031640     libucrt:fpexcept.obj
 0002:00009648       ??_C@_03MJLDFKDL@_y0?$AA@  0000000180031648     libucrt:fpexcept.obj
 0002:0000964c       ??_C@_03NAKIGLHK@_y1?$AA@  000000018003164c     libucrt:fpexcept.obj
 0002:00009650       ??_C@_03ONILCKOB@_yn?$AA@  0000000180031650     libucrt:fpexcept.obj
 0002:00009654       ??_C@_05JGDBENOH@_logb?$AA@ 0000000180031654     libucrt:fpexcept.obj
 0002:00009660       ??_C@_0L@KDOEJCKC@_nextafter?$AA@ 0000000180031660     libucrt:fpexcept.obj
 0002:00009670       _d_inf                     0000000180031670     libucrt:util.obj
 0002:00009678       _d_max                     0000000180031678     libucrt:util.obj
 0002:00009720       ??_C@_1EG@CNNIPFIM@?$AAa?$AAp?$AAi?$AA?9?$AAm?$AAs?$AA?9?$AAw?$AAi?$AAn?$AA?9?$AAa?$AAp?$AAp?$AAm?$AAo?$AAd?$AAe?$AAl?$AA?9?$AAr?$AAu?$AAn?$AAt?$AAi?$AAm?$AAe?$AA?9?$AAl?$AA1?$AA?9?$AA1@ 0000000180031720     libucrt:winapi_thunks.obj
 0002:00009770       ??_C@_1EA@JGEFHKEI@?$AAa?$AAp?$AAi?$AA?9?$AAm?$AAs?$AA?9?$AAw?$AAi?$AAn?$AA?9?$AAc?$AAo?$AAr?$AAe?$AA?9?$AAd?$AAa?$AAt?$AAe?$AAt?$AAi?$AAm?$AAe?$AA?9?$AAl?$AA1?$AA?9?$AA1?$AA?9?$AA1?$AA?$AA@ 0000000180031770     libucrt:winapi_thunks.obj
 0002:000097b0       ??_C@_1DI@GCIAAENM@?$AAa?$AAp?$AAi?$AA?9?$AAm?$AAs?$AA?9?$AAw?$AAi?$AAn?$AA?9?$AAc?$AAo?$AAr?$AAe?$AA?9?$AAf?$AAi?$AAl?$AAe?$AA?9?$AAl?$AA2?$AA?9?$AA1?$AA?9?$AA1?$AA?$AA@ 00000001800317b0     libucrt:winapi_thunks.obj
 0002:000097f0       ??_C@_1EI@MPIAOHOC@?$AAa?$AAp?$AAi?$AA?9?$AAm?$AAs?$AA?9?$AAw?$AAi?$AAn?$AA?9?$AAc?$AAo?$AAr?$AAe?$AA?9?$AAl?$AAo?$AAc?$AAa?$AAl?$AAi?$AAz?$AAa?$AAt?$AAi?$AAo?$AAn?$AA?9?$AAl?$AA1?$AA?9@ 00000001800317f0     libucrt:winapi_thunks.obj
 0002:00009840       ??_C@_1FK@FPHCKFIE@?$AAa?$AAp?$AAi?$AA?9?$AAm?$AAs?$AA?9?$AAw?$AAi?$AAn?$AA?9?$AAc?$AAo?$AAr?$AAe?$AA?9?$AAl?$AAo?$AAc?$AAa?$AAl?$AAi?$AAz?$AAa?$AAt?$AAi?$AAo?$AAn?$AA?9?$AAo?$AAb?$AAs@ 0000000180031840     libucrt:winapi_thunks.obj
 0002:000098a0       ??_C@_1EM@DILCGIIO@?$AAa?$AAp?$AAi?$AA?9?$AAm?$AAs?$AA?9?$AAw?$AAi?$AAn?$AA?9?$AAc?$AAo?$AAr?$AAe?$AA?9?$AAp?$AAr?$AAo?$AAc?$AAe?$AAs?$AAs?$AAt?$AAh?$AAr?$AAe?$AAa?$AAd?$AAs?$AA?9?$AAl@ 00000001800318a0     libucrt:winapi_thunks.obj
 0002:000098f0       ??_C@_1DM@LNCGDDPN@?$AAa?$AAp?$AAi?$AA?9?$AAm?$AAs?$AA?9?$AAw?$AAi?$AAn?$AA?9?$AAc?$AAo?$AAr?$AAe?$AA?9?$AAs?$AAt?$AAr?$AAi?$AAn?$AAg?$AA?9?$AAl?$AA1?$AA?9?$AA1?$AA?9?$AA0?$AA?$AA@ 00000001800318f0     libucrt:winapi_thunks.obj
 0002:00009930       ??_C@_1DO@FPAPJEMD@?$AAa?$AAp?$AAi?$AA?9?$AAm?$AAs?$AA?9?$AAw?$AAi?$AAn?$AA?9?$AAc?$AAo?$AAr?$AAe?$AA?9?$AAs?$AAy?$AAs?$AAi?$AAn?$AAf?$AAo?$AA?9?$AAl?$AA1?$AA?9?$AA2?$AA?9?$AA1?$AA?$AA@ 0000000180031930     libucrt:winapi_thunks.obj
 0002:00009970       ??_C@_1DK@NDHNAHIO@?$AAa?$AAp?$AAi?$AA?9?$AAm?$AAs?$AA?9?$AAw?$AAi?$AAn?$AA?9?$AAc?$AAo?$AAr?$AAe?$AA?9?$AAw?$AAi?$AAn?$AAr?$AAt?$AA?9?$AAl?$AA1?$AA?9?$AA1?$AA?9?$AA0?$AA?$AA@ 0000000180031970     libucrt:winapi_thunks.obj
 0002:000099b0       ??_C@_1DM@KGHDGBCM@?$AAa?$AAp?$AAi?$AA?9?$AAm?$AAs?$AA?9?$AAw?$AAi?$AAn?$AA?9?$AAc?$AAo?$AAr?$AAe?$AA?9?$AAx?$AAs?$AAt?$AAa?$AAt?$AAe?$AA?9?$AAl?$AA2?$AA?9?$AA1?$AA?9?$AA0?$AA?$AA@ 00000001800319b0     libucrt:winapi_thunks.obj
 0002:000099f0       ??_C@_1EO@IJIOEFOH@?$AAa?$AAp?$AAi?$AA?9?$AAm?$AAs?$AA?9?$AAw?$AAi?$AAn?$AA?9?$AAr?$AAt?$AAc?$AAo?$AAr?$AAe?$AA?9?$AAn?$AAt?$AAu?$AAs?$AAe?$AAr?$AA?9?$AAw?$AAi?$AAn?$AAd?$AAo?$AAw?$AA?9@ 00000001800319f0     libucrt:winapi_thunks.obj
 0002:00009a40       ??_C@_1FG@HHGEKANL@?$AAa?$AAp?$AAi?$AA?9?$AAm?$AAs?$AA?9?$AAw?$AAi?$AAn?$AA?9?$AAs?$AAe?$AAc?$AAu?$AAr?$AAi?$AAt?$AAy?$AA?9?$AAs?$AAy?$AAs?$AAt?$AAe?$AAm?$AAf?$AAu?$AAn?$AAc?$AAt?$AAi@ 0000000180031a40     libucrt:winapi_thunks.obj
 0002:00009aa0       ??_C@_1FG@NCKKOLKO@?$AAe?$AAx?$AAt?$AA?9?$AAm?$AAs?$AA?9?$AAw?$AAi?$AAn?$AA?9?$AAk?$AAe?$AAr?$AAn?$AAe?$AAl?$AA3?$AA2?$AA?9?$AAp?$AAa?$AAc?$AAk?$AAa?$AAg?$AAe?$AA?9?$AAc?$AAu?$AAr?$AAr@ 0000000180031aa0     libucrt:winapi_thunks.obj
 0002:00009b00       ??_C@_1EG@DBIOJECG@?$AAe?$AAx?$AAt?$AA?9?$AAm?$AAs?$AA?9?$AAw?$AAi?$AAn?$AA?9?$AAn?$AAt?$AAu?$AAs?$AAe?$AAr?$AA?9?$AAd?$AAi?$AAa?$AAl?$AAo?$AAg?$AAb?$AAo?$AAx?$AA?9?$AAl?$AA1?$AA?9?$AA1@ 0000000180031b00     libucrt:winapi_thunks.obj
 0002:00009b50       ??_C@_1EO@FIHMJCLF@?$AAe?$AAx?$AAt?$AA?9?$AAm?$AAs?$AA?9?$AAw?$AAi?$AAn?$AA?9?$AAn?$AAt?$AAu?$AAs?$AAe?$AAr?$AA?9?$AAw?$AAi?$AAn?$AAd?$AAo?$AAw?$AAs?$AAt?$AAa?$AAt?$AAi?$AAo?$AAn?$AA?9@ 0000000180031b50     libucrt:winapi_thunks.obj
 0002:00009ba0       ??_C@_1O@BCCLBEOE@?$AAu?$AAs?$AAe?$AAr?$AA3?$AA2?$AA?$AA@ 0000000180031ba0     libucrt:winapi_thunks.obj
 0002:00009bc0       ??_C@_0BE@LJANKFHF@EnumSystemLocalesEx?$AA@ 0000000180031bc0     libucrt:winapi_thunks.obj
 0002:00009c10       ??_C@_0BJ@PBCCBIPI@GetUserDefaultLocaleName?$AA@ 0000000180031c10     libucrt:winapi_thunks.obj
 0002:00009c40       ??_C@_0BC@CELBKLLA@IsValidLocaleName?$AA@ 0000000180031c40     libucrt:winapi_thunks.obj
 0002:00009c68       ??_C@_0BB@CDHDDLLP@LCIDToLocaleName?$AA@ 0000000180031c68     libucrt:winapi_thunks.obj
 0002:00009c88       ??_C@_0BB@HBDEELFH@LocaleNameToLCID?$AA@ 0000000180031c88     libucrt:winapi_thunks.obj
 0002:00009ca0       __log_256_lead             0000000180031ca0     libucrt:log_256_lead_tail_table.obj
 0002:0000a4b0       __log_256_tail             00000001800324b0     libucrt:log_256_lead_tail_table.obj
 0002:0000acc0       __two_to_jby64_head_table  0000000180032cc0     libucrt:two_to_jby64_head_tail_table.obj
 0002:0000aec0       __two_to_jby64_tail_table  0000000180032ec0     libucrt:two_to_jby64_head_tail_table.obj
 0002:0000b0c0       ??_C@_04MBFDLNIM@powf?$AA@ 00000001800330c0     libucrt:pow_special.obj
 0002:0000b0d0       __two_to_jby64_table       00000001800330d0     libucrt:two_to_jby64_table.obj
 0002:0000b2d0       __log_F_inv_qword          00000001800332d0     libucrt:log_f_inv_qword_table.obj
 0002:0000bb00       ??_C@_01GBGANLPD@0?$AA@    0000000180033b00     libucrt:cfout.obj
 0002:0000bb04       ??_C@_05DNEBIAHO@1?$CDINF?$AA@ 0000000180033b04     libucrt:cfout.obj
 0002:0000bb0c       ??_C@_06IMKFLFPG@1?$CDQNAN?$AA@ 0000000180033b0c     libucrt:cfout.obj
 0002:0000bb14       ??_C@_06PGGFOGJG@1?$CDSNAN?$AA@ 0000000180033b14     libucrt:cfout.obj
 0002:0000bb1c       ??_C@_05PHHOCPM@1?$CDIND?$AA@ 0000000180033b1c     libucrt:cfout.obj
 0002:0000bb30       __acrt_rg_language         0000000180033b30     libucrt:get_qualified_locale.obj
 0002:0000bf40       __acrt_rg_language_count   0000000180033f40     libucrt:get_qualified_locale.obj
 0002:0000bf50       __acrt_rg_country          0000000180033f50     libucrt:get_qualified_locale.obj
 0002:0000c0c0       __acrt_rg_country_count    00000001800340c0     libucrt:get_qualified_locale.obj
 0002:0000c0c8       ??_C@_1BC@LLOKLNP@?$AAa?$AAm?$AAe?$AAr?$AAi?$AAc?$AAa?$AAn?$AA?$AA@ 00000001800340c8     libucrt:get_qualified_locale.obj
 0002:0000c0e0       ??_C@_1CC@HEIGCDGG@?$AAa?$AAm?$AAe?$AAr?$AAi?$AAc?$AAa?$AAn?$AA?5?$AAe?$AAn?$AAg?$AAl?$AAi?$AAs?$AAh?$AA?$AA@ 00000001800340e0     libucrt:get_qualified_locale.obj
 0002:0000c108       ??_C@_1CC@IHCNOMIN@?$AAa?$AAm?$AAe?$AAr?$AAi?$AAc?$AAa?$AAn?$AA?9?$AAe?$AAn?$AAg?$AAl?$AAi?$AAs?$AAh?$AA?$AA@ 0000000180034108     libucrt:get_qualified_locale.obj
 0002:0000c130       ??_C@_1BG@GKAGPCGG@?$AAa?$AAu?$AAs?$AAt?$AAr?$AAa?$AAl?$AAi?$AAa?$AAn?$AA?$AA@ 0000000180034130     libucrt:get_qualified_locale.obj
 0002:0000c148       ??_C@_1BA@GMENCENF@?$AAb?$AAe?$AAl?$AAg?$AAi?$AAa?$AAn?$AA?$AA@ 0000000180034148     libucrt:get_qualified_locale.obj
 0002:0000c158       ??_C@_1BC@PJMIIAAN@?$AAc?$AAa?$AAn?$AAa?$AAd?$AAi?$AAa?$AAn?$AA?$AA@ 0000000180034158     libucrt:get_qualified_locale.obj
 0002:0000c170       ??_C@_17NOIMNFBF@?$AAc?$AAh?$AAh?$AA?$AA@ 0000000180034170     libucrt:get_qualified_locale.obj
 0002:0000c178       ??_C@_17GGDALCHA@?$AAc?$AAh?$AAi?$AA?$AA@ 0000000180034178     libucrt:get_qualified_locale.obj
 0002:0000c180       ??_C@_1BA@NPNJKIBL@?$AAc?$AAh?$AAi?$AAn?$AAe?$AAs?$AAe?$AA?$AA@ 0000000180034180     libucrt:get_qualified_locale.obj
 0002:0000c190       ??_C@_1CC@DINBAMMJ@?$AAc?$AAh?$AAi?$AAn?$AAe?$AAs?$AAe?$AA?9?$AAh?$AAo?$AAn?$AAg?$AAk?$AAo?$AAn?$AAg?$AA?$AA@ 0000000180034190     libucrt:get_qualified_locale.obj
 0002:0000c1b8       ??_C@_1CG@IOBJPACO@?$AAc?$AAh?$AAi?$AAn?$AAe?$AAs?$AAe?$AA?9?$AAs?$AAi?$AAm?$AAp?$AAl?$AAi?$AAf?$AAi?$AAe?$AAd?$AA?$AA@ 00000001800341b8     libucrt:get_qualified_locale.obj
 0002:0000c1e0       ??_C@_1CE@GAJNDCKG@?$AAc?$AAh?$AAi?$AAn?$AAe?$AAs?$AAe?$AA?9?$AAs?$AAi?$AAn?$AAg?$AAa?$AAp?$AAo?$AAr?$AAe?$AA?$AA@ 00000001800341e0     libucrt:get_qualified_locale.obj
 0002:0000c208       ??_C@_1CI@PAJPIOOD@?$AAc?$AAh?$AAi?$AAn?$AAe?$AAs?$AAe?$AA?9?$AAt?$AAr?$AAa?$AAd?$AAi?$AAt?$AAi?$AAo?$AAn?$AAa?$AAl?$AA?$AA@ 0000000180034208     libucrt:get_qualified_locale.obj
 0002:0000c230       ??_C@_1BM@NILJBMMD@?$AAd?$AAu?$AAt?$AAc?$AAh?$AA?9?$AAb?$AAe?$AAl?$AAg?$AAi?$AAa?$AAn?$AA?$AA@ 0000000180034230     libucrt:get_qualified_locale.obj
 0002:0000c250       ??_C@_1CC@OOJPJNEJ@?$AAe?$AAn?$AAg?$AAl?$AAi?$AAs?$AAh?$AA?9?$AAa?$AAm?$AAe?$AAr?$AAi?$AAc?$AAa?$AAn?$AA?$AA@ 0000000180034250     libucrt:get_qualified_locale.obj
 0002:0000c278       ??_C@_1BI@IOLFEEM@?$AAe?$AAn?$AAg?$AAl?$AAi?$AAs?$AAh?$AA?9?$AAa?$AAu?$AAs?$AA?$AA@ 0000000180034278     libucrt:get_qualified_locale.obj
 0002:0000c290       ??_C@_1BO@HFFNLENJ@?$AAe?$AAn?$AAg?$AAl?$AAi?$AAs?$AAh?$AA?9?$AAb?$AAe?$AAl?$AAi?$AAz?$AAe?$AA?$AA@ 0000000180034290     libucrt:get_qualified_locale.obj
 0002:0000c2b0       ??_C@_1BI@HAPKJMPO@?$AAe?$AAn?$AAg?$AAl?$AAi?$AAs?$AAh?$AA?9?$AAc?$AAa?$AAn?$AA?$AA@ 00000001800342b0     libucrt:get_qualified_locale.obj
 0002:0000c2c8       ??_C@_1CE@HLNDMIOJ@?$AAe?$AAn?$AAg?$AAl?$AAi?$AAs?$AAh?$AA?9?$AAc?$AAa?$AAr?$AAi?$AAb?$AAb?$AAe?$AAa?$AAn?$AA?$AA@ 00000001800342c8     libucrt:get_qualified_locale.obj
 0002:0000c2f0       ??_C@_1BI@LDHJHHAC@?$AAe?$AAn?$AAg?$AAl?$AAi?$AAs?$AAh?$AA?9?$AAi?$AAr?$AAe?$AA?$AA@ 00000001800342f0     libucrt:get_qualified_locale.obj
 0002:0000c308       ??_C@_1CA@NJMMCFOC@?$AAe?$AAn?$AAg?$AAl?$AAi?$AAs?$AAh?$AA?9?$AAj?$AAa?$AAm?$AAa?$AAi?$AAc?$AAa?$AA?$AA@ 0000000180034308     libucrt:get_qualified_locale.obj
 0002:0000c328       ??_C@_1BG@BHJEBBGG@?$AAe?$AAn?$AAg?$AAl?$AAi?$AAs?$AAh?$AA?9?$AAn?$AAz?$AA?$AA@ 0000000180034328     libucrt:get_qualified_locale.obj
 0002:0000c340       ??_C@_1CK@FGOEJJCO@?$AAe?$AAn?$AAg?$AAl?$AAi?$AAs?$AAh?$AA?9?$AAs?$AAo?$AAu?$AAt?$AAh?$AA?5?$AAa?$AAf?$AAr?$AAi?$AAc?$AAa?$AA?$AA@ 0000000180034340     libucrt:get_qualified_locale.obj
 0002:0000c370       ??_C@_1DE@PDBJPCJ@?$AAe?$AAn?$AAg?$AAl?$AAi?$AAs?$AAh?$AA?9?$AAt?$AAr?$AAi?$AAn?$AAi?$AAd?$AAa?$AAd?$AA?5?$AAy?$AA?5?$AAt?$AAo?$AAb?$AAa?$AAg?$AAo?$AA?$AA@ 0000000180034370     libucrt:get_qualified_locale.obj
 0002:0000c3a8       ??_C@_1BG@JGCANDME@?$AAe?$AAn?$AAg?$AAl?$AAi?$AAs?$AAh?$AA?9?$AAu?$AAk?$AA?$AA@ 00000001800343a8     libucrt:get_qualified_locale.obj
 0002:0000c3c0       ??_C@_1BG@DINKMLE@?$AAe?$AAn?$AAg?$AAl?$AAi?$AAs?$AAh?$AA?9?$AAu?$AAs?$AA?$AA@ 00000001800343c0     libucrt:get_qualified_locale.obj
 0002:0000c3d8       ??_C@_1BI@NMFDBHJE@?$AAe?$AAn?$AAg?$AAl?$AAi?$AAs?$AAh?$AA?9?$AAu?$AAs?$AAa?$AA?$AA@ 00000001800343d8     libucrt:get_qualified_locale.obj
 0002:0000c3f0       ??_C@_1BO@OIHKJKII@?$AAf?$AAr?$AAe?$AAn?$AAc?$AAh?$AA?9?$AAb?$AAe?$AAl?$AAg?$AAi?$AAa?$AAn?$AA?$AA@ 00000001800343f0     libucrt:get_qualified_locale.obj
 0002:0000c410       ??_C@_1CA@NKAELJKI@?$AAf?$AAr?$AAe?$AAn?$AAc?$AAh?$AA?9?$AAc?$AAa?$AAn?$AAa?$AAd?$AAi?$AAa?$AAn?$AA?$AA@ 0000000180034410     libucrt:get_qualified_locale.obj
 0002:0000c430       ??_C@_1CE@MGKCNLGN@?$AAf?$AAr?$AAe?$AAn?$AAc?$AAh?$AA?9?$AAl?$AAu?$AAx?$AAe?$AAm?$AAb?$AAo?$AAu?$AAr?$AAg?$AA?$AA@ 0000000180034430     libucrt:get_qualified_locale.obj
 0002:0000c458       ??_C@_1BK@CEGEAILM@?$AAf?$AAr?$AAe?$AAn?$AAc?$AAh?$AA?9?$AAs?$AAw?$AAi?$AAs?$AAs?$AA?$AA@ 0000000180034458     libucrt:get_qualified_locale.obj
 0002:0000c478       ??_C@_1CA@PAFKEOCC@?$AAg?$AAe?$AAr?$AAm?$AAa?$AAn?$AA?9?$AAa?$AAu?$AAs?$AAt?$AAr?$AAi?$AAa?$AAn?$AA?$AA@ 0000000180034478     libucrt:get_qualified_locale.obj
 0002:0000c498       ??_C@_1CI@HCFHGOFD@?$AAg?$AAe?$AAr?$AAm?$AAa?$AAn?$AA?9?$AAl?$AAi?$AAc?$AAh?$AAt?$AAe?$AAn?$AAs?$AAt?$AAe?$AAi?$AAn?$AA?$AA@ 0000000180034498     libucrt:get_qualified_locale.obj
 0002:0000c4c0       ??_C@_1CE@FEDDNPDG@?$AAg?$AAe?$AAr?$AAm?$AAa?$AAn?$AA?9?$AAl?$AAu?$AAx?$AAe?$AAm?$AAb?$AAo?$AAu?$AAr?$AAg?$AA?$AA@ 00000001800344c0     libucrt:get_qualified_locale.obj
 0002:0000c4e8       ??_C@_1BK@LIMINNMN@?$AAg?$AAe?$AAr?$AAm?$AAa?$AAn?$AA?9?$AAs?$AAw?$AAi?$AAs?$AAs?$AA?$AA@ 00000001800344e8     libucrt:get_qualified_locale.obj
 0002:0000c508       ??_C@_1BM@LGMDBEPD@?$AAi?$AAr?$AAi?$AAs?$AAh?$AA?9?$AAe?$AAn?$AAg?$AAl?$AAi?$AAs?$AAh?$AA?$AA@ 0000000180034508     libucrt:get_qualified_locale.obj
 0002:0000c528       ??_C@_1BM@NNCFBAEE@?$AAi?$AAt?$AAa?$AAl?$AAi?$AAa?$AAn?$AA?9?$AAs?$AAw?$AAi?$AAs?$AAs?$AA?$AA@ 0000000180034528     libucrt:get_qualified_locale.obj
 0002:0000c548       ??_C@_1BE@FEDJNPIB@?$AAn?$AAo?$AAr?$AAw?$AAe?$AAg?$AAi?$AAa?$AAn?$AA?$AA@ 0000000180034548     libucrt:get_qualified_locale.obj
 0002:0000c560       ??_C@_1CC@CILKDEIE@?$AAn?$AAo?$AAr?$AAw?$AAe?$AAg?$AAi?$AAa?$AAn?$AA?9?$AAb?$AAo?$AAk?$AAm?$AAa?$AAl?$AA?$AA@ 0000000180034560     libucrt:get_qualified_locale.obj
 0002:0000c588       ??_C@_1CE@DHMMHEPL@?$AAn?$AAo?$AAr?$AAw?$AAe?$AAg?$AAi?$AAa?$AAn?$AA?9?$AAn?$AAy?$AAn?$AAo?$AAr?$AAs?$AAk?$AA?$AA@ 0000000180034588     libucrt:get_qualified_locale.obj
 0002:0000c5b0       ??_C@_1CK@OPNMHECD@?$AAp?$AAo?$AAr?$AAt?$AAu?$AAg?$AAu?$AAe?$AAs?$AAe?$AA?9?$AAb?$AAr?$AAa?$AAz?$AAi?$AAl?$AAi?$AAa?$AAn?$AA?$AA@ 00000001800345b0     libucrt:get_qualified_locale.obj
 0002:0000c5e0       ??_C@_1CE@KEEHCDB@?$AAs?$AAp?$AAa?$AAn?$AAi?$AAs?$AAh?$AA?9?$AAa?$AAr?$AAg?$AAe?$AAn?$AAt?$AAi?$AAn?$AAa?$AA?$AA@ 00000001800345e0     libucrt:get_qualified_locale.obj
 0002:0000c608       ??_C@_1CA@GIAOLHJD@?$AAs?$AAp?$AAa?$AAn?$AAi?$AAs?$AAh?$AA?9?$AAb?$AAo?$AAl?$AAi?$AAv?$AAi?$AAa?$AA?$AA@ 0000000180034608     libucrt:get_qualified_locale.obj
 0002:0000c628       ??_C@_1BM@OJNDFNPD@?$AAs?$AAp?$AAa?$AAn?$AAi?$AAs?$AAh?$AA?9?$AAc?$AAh?$AAi?$AAl?$AAe?$AA?$AA@ 0000000180034628     libucrt:get_qualified_locale.obj
 0002:0000c648       ??_C@_1CC@OCOLPALL@?$AAs?$AAp?$AAa?$AAn?$AAi?$AAs?$AAh?$AA?9?$AAc?$AAo?$AAl?$AAo?$AAm?$AAb?$AAi?$AAa?$AA?$AA@ 0000000180034648     libucrt:get_qualified_locale.obj
 0002:0000c670       ??_C@_1CG@BPOFMKBB@?$AAs?$AAp?$AAa?$AAn?$AAi?$AAs?$AAh?$AA?9?$AAc?$AAo?$AAs?$AAt?$AAa?$AA?5?$AAr?$AAi?$AAc?$AAa?$AA?$AA@ 0000000180034670     libucrt:get_qualified_locale.obj
 0002:0000c698       ??_C@_1DG@IGOBAPBB@?$AAs?$AAp?$AAa?$AAn?$AAi?$AAs?$AAh?$AA?9?$AAd?$AAo?$AAm?$AAi?$AAn?$AAi?$AAc?$AAa?$AAn?$AA?5?$AAr?$AAe?$AAp?$AAu?$AAb?$AAl?$AAi?$AAc?$AA?$AA@ 0000000180034698     libucrt:get_qualified_locale.obj
 0002:0000c6d0       ??_C@_1CA@JHAPGEGI@?$AAs?$AAp?$AAa?$AAn?$AAi?$AAs?$AAh?$AA?9?$AAe?$AAc?$AAu?$AAa?$AAd?$AAo?$AAr?$AA?$AA@ 00000001800346d0     libucrt:get_qualified_locale.obj
 0002:0000c6f0       ??_C@_1CI@LAPALJPP@?$AAs?$AAp?$AAa?$AAn?$AAi?$AAs?$AAh?$AA?9?$AAe?$AAl?$AA?5?$AAs?$AAa?$AAl?$AAv?$AAa?$AAd?$AAo?$AAr?$AA?$AA@ 00000001800346f0     libucrt:get_qualified_locale.obj
 0002:0000c718       ??_C@_1CE@PDGBOFOM@?$AAs?$AAp?$AAa?$AAn?$AAi?$AAs?$AAh?$AA?9?$AAg?$AAu?$AAa?$AAt?$AAe?$AAm?$AAa?$AAl?$AAa?$AA?$AA@ 0000000180034718     libucrt:get_qualified_locale.obj
 0002:0000c740       ??_C@_1CC@NBEBAODI@?$AAs?$AAp?$AAa?$AAn?$AAi?$AAs?$AAh?$AA?9?$AAh?$AAo?$AAn?$AAd?$AAu?$AAr?$AAa?$AAs?$AA?$AA@ 0000000180034740     libucrt:get_qualified_locale.obj
 0002:0000c768       ??_C@_1CA@LLKGHBMF@?$AAs?$AAp?$AAa?$AAn?$AAi?$AAs?$AAh?$AA?9?$AAm?$AAe?$AAx?$AAi?$AAc?$AAa?$AAn?$AA?$AA@ 0000000180034768     libucrt:get_qualified_locale.obj
 0002:0000c788       ??_C@_1BO@LKNDOIGD@?$AAs?$AAp?$AAa?$AAn?$AAi?$AAs?$AAh?$AA?9?$AAm?$AAo?$AAd?$AAe?$AAr?$AAn?$AA?$AA@ 0000000180034788     libucrt:get_qualified_locale.obj
 0002:0000c7a8       ??_C@_1CE@NMDMOEEB@?$AAs?$AAp?$AAa?$AAn?$AAi?$AAs?$AAh?$AA?9?$AAn?$AAi?$AAc?$AAa?$AAr?$AAa?$AAg?$AAu?$AAa?$AA?$AA@ 00000001800347a8     libucrt:get_qualified_locale.obj
 0002:0000c7d0       ??_C@_1BO@LLCBEJGB@?$AAs?$AAp?$AAa?$AAn?$AAi?$AAs?$AAh?$AA?9?$AAp?$AAa?$AAn?$AAa?$AAm?$AAa?$AA?$AA@ 00000001800347d0     libucrt:get_qualified_locale.obj
 0002:0000c7f0       ??_C@_1CC@FKPGGIHO@?$AAs?$AAp?$AAa?$AAn?$AAi?$AAs?$AAh?$AA?9?$AAp?$AAa?$AAr?$AAa?$AAg?$AAu?$AAa?$AAy?$AA?$AA@ 00000001800347f0     libucrt:get_qualified_locale.obj
 0002:0000c818       ??_C@_1BK@CDEIHOOP@?$AAs?$AAp?$AAa?$AAn?$AAi?$AAs?$AAh?$AA?9?$AAp?$AAe?$AAr?$AAu?$AA?$AA@ 0000000180034818     libucrt:get_qualified_locale.obj
 0002:0000c838       ??_C@_1CI@GAHAKKGP@?$AAs?$AAp?$AAa?$AAn?$AAi?$AAs?$AAh?$AA?9?$AAp?$AAu?$AAe?$AAr?$AAt?$AAo?$AA?5?$AAr?$AAi?$AAc?$AAo?$AA?$AA@ 0000000180034838     libucrt:get_qualified_locale.obj
 0002:0000c860       ??_C@_1CA@NKJBCAGP@?$AAs?$AAp?$AAa?$AAn?$AAi?$AAs?$AAh?$AA?9?$AAu?$AAr?$AAu?$AAg?$AAu?$AAa?$AAy?$AA?$AA@ 0000000180034860     libucrt:get_qualified_locale.obj
 0002:0000c880       ??_C@_1CE@ODILCONM@?$AAs?$AAp?$AAa?$AAn?$AAi?$AAs?$AAh?$AA?9?$AAv?$AAe?$AAn?$AAe?$AAz?$AAu?$AAe?$AAl?$AAa?$AA?$AA@ 0000000180034880     libucrt:get_qualified_locale.obj
 0002:0000c8a8       ??_C@_1CA@OBNMCGFO@?$AAs?$AAw?$AAe?$AAd?$AAi?$AAs?$AAh?$AA?9?$AAf?$AAi?$AAn?$AAl?$AAa?$AAn?$AAd?$AA?$AA@ 00000001800348a8     libucrt:get_qualified_locale.obj
 0002:0000c8c8       ??_C@_1M@PIPDDPPI@?$AAs?$AAw?$AAi?$AAs?$AAs?$AA?$AA@ 00000001800348c8     libucrt:get_qualified_locale.obj
 0002:0000c8d4       ??_C@_15GMFIMNFM@?$AAu?$AAs?$AA?$AA@ 00000001800348d4     libucrt:get_qualified_locale.obj
 0002:0000c8e0       ??_C@_17HAEBFAGL@?$AAu?$AAs?$AAa?$AA?$AA@ 00000001800348e0     libucrt:get_qualified_locale.obj
 0002:0000c8e8       ??_C@_1BA@DPFJEPHB@?$AAa?$AAm?$AAe?$AAr?$AAi?$AAc?$AAa?$AA?$AA@ 00000001800348e8     libucrt:get_qualified_locale.obj
 0002:0000c8f8       ??_C@_1BA@ELOGGFK@?$AAb?$AAr?$AAi?$AAt?$AAa?$AAi?$AAn?$AA?$AA@ 00000001800348f8     libucrt:get_qualified_locale.obj
 0002:0000c908       ??_C@_1M@GHBGIGDA@?$AAc?$AAh?$AAi?$AAn?$AAa?$AA?$AA@ 0000000180034908     libucrt:get_qualified_locale.obj
 0002:0000c918       ??_C@_1M@NCHEJOPO@?$AAc?$AAz?$AAe?$AAc?$AAh?$AA?$AA@ 0000000180034918     libucrt:get_qualified_locale.obj
 0002:0000c928       ??_C@_1BA@BKPAPBLA@?$AAe?$AAn?$AAg?$AAl?$AAa?$AAn?$AAd?$AA?$AA@ 0000000180034928     libucrt:get_qualified_locale.obj
 0002:0000c938       ??_C@_1BM@HKBCKIPC@?$AAg?$AAr?$AAe?$AAa?$AAt?$AA?5?$AAb?$AAr?$AAi?$AAt?$AAa?$AAi?$AAn?$AA?$AA@ 0000000180034938     libucrt:get_qualified_locale.obj
 0002:0000c958       ??_C@_1BA@PPCHPGJB@?$AAh?$AAo?$AAl?$AAl?$AAa?$AAn?$AAd?$AA?$AA@ 0000000180034958     libucrt:get_qualified_locale.obj
 0002:0000c968       ??_C@_1BE@JBMPEGDG@?$AAh?$AAo?$AAn?$AAg?$AA?9?$AAk?$AAo?$AAn?$AAg?$AA?$AA@ 0000000180034968     libucrt:get_qualified_locale.obj
 0002:0000c980       ??_C@_1BI@KOELBBPJ@?$AAn?$AAe?$AAw?$AA?9?$AAz?$AAe?$AAa?$AAl?$AAa?$AAn?$AAd?$AA?$AA@ 0000000180034980     libucrt:get_qualified_locale.obj
 0002:0000c998       ??_C@_15HIEBHAIO@?$AAn?$AAz?$AA?$AA@ 0000000180034998     libucrt:get_qualified_locale.obj
 0002:0000c9a0       ??_C@_1BC@CHBCPFPI@?$AAp?$AAr?$AA?5?$AAc?$AAh?$AAi?$AAn?$AAa?$AA?$AA@ 00000001800349a0     libucrt:get_qualified_locale.obj
 0002:0000c9b8       ??_C@_1BC@JAOIIFKD@?$AAp?$AAr?$AA?9?$AAc?$AAh?$AAi?$AAn?$AAa?$AA?$AA@ 00000001800349b8     libucrt:get_qualified_locale.obj
 0002:0000c9d0       ??_C@_1BI@BEHPPHKC@?$AAp?$AAu?$AAe?$AAr?$AAt?$AAo?$AA?9?$AAr?$AAi?$AAc?$AAo?$AA?$AA@ 00000001800349d0     libucrt:get_qualified_locale.obj
 0002:0000c9e8       ??_C@_1O@PAEOFKDI@?$AAs?$AAl?$AAo?$AAv?$AAa?$AAk?$AA?$AA@ 00000001800349e8     libucrt:get_qualified_locale.obj
 0002:0000c9f8       ??_C@_1BK@FIHMCKAM@?$AAs?$AAo?$AAu?$AAt?$AAh?$AA?5?$AAa?$AAf?$AAr?$AAi?$AAc?$AAa?$AA?$AA@ 00000001800349f8     libucrt:get_qualified_locale.obj
 0002:0000ca18       ??_C@_1BI@NAEOODKB@?$AAs?$AAo?$AAu?$AAt?$AAh?$AA?5?$AAk?$AAo?$AAr?$AAe?$AAa?$AA?$AA@ 0000000180034a18     libucrt:get_qualified_locale.obj
 0002:0000ca30       ??_C@_1BK@FBDGGIFF@?$AAs?$AAo?$AAu?$AAt?$AAh?$AA?9?$AAa?$AAf?$AAr?$AAi?$AAc?$AAa?$AA?$AA@ 0000000180034a30     libucrt:get_qualified_locale.obj
 0002:0000ca50       ??_C@_1BI@GHLEJDPK@?$AAs?$AAo?$AAu?$AAt?$AAh?$AA?9?$AAk?$AAo?$AAr?$AAe?$AAa?$AA?$AA@ 0000000180034a50     libucrt:get_qualified_locale.obj
 0002:0000ca68       ??_C@_1CE@PLHLOMJF@?$AAt?$AAr?$AAi?$AAn?$AAi?$AAd?$AAa?$AAd?$AA?5?$AA?$CG?$AA?5?$AAt?$AAo?$AAb?$AAa?$AAg?$AAo?$AA?$AA@ 0000000180034a68     libucrt:get_qualified_locale.obj
 0002:0000ca90       ??_C@_1BO@MODIMHHI@?$AAu?$AAn?$AAi?$AAt?$AAe?$AAd?$AA?9?$AAk?$AAi?$AAn?$AAg?$AAd?$AAo?$AAm?$AA?$AA@ 0000000180034a90     libucrt:get_qualified_locale.obj
 0002:0000cab0       ??_C@_1BM@FFHJONBJ@?$AAu?$AAn?$AAi?$AAt?$AAe?$AAd?$AA?9?$AAs?$AAt?$AAa?$AAt?$AAe?$AAs?$AA?$AA@ 0000000180034ab0     libucrt:get_qualified_locale.obj
 0002:0000cad0       ??_C@_17DNCLJFIF@?$AAA?$AAC?$AAP?$AA?$AA@ 0000000180034ad0     libucrt:get_qualified_locale.obj
 0002:0000cad8       ??_C@_17CIKBIHLH@?$AAO?$AAC?$AAP?$AA?$AA@ 0000000180034ad8     libucrt:get_qualified_locale.obj
 0002:0000cae0       __rglangidNotDefault       0000000180034ae0     libucrt:getqloc_downlevel.obj
 0002:0000e9e0       __log10_256_lead           00000001800369e0     libucrt:log10_256_lead_tail_table.obj
 0002:0000f1f0       __log10_256_tail           00000001800371f0     libucrt:log10_256_lead_tail_table.obj
 0002:0000f9f8       ??_C@_1BA@BALFACEM@?$AAC?$AAO?$AAN?$AAO?$AAU?$AAT?$AA$?$AA?$AA@ 00000001800379f8     libucrt:initcon.obj
 0002:0000fa08       ??_C@_1BK@DBDEIDLH@?$AAK?$AAE?$AAR?$AAN?$AAE?$AAL?$AA3?$AA2?$AA?4?$AAD?$AAL?$AAL?$AA?$AA@ 0000000180037a08     DelayImp:delayhlp.obj
 0002:0000fa28       __pfnDliFailureHook2       0000000180037a28     DelayImp:delayhk1.obj
 0002:0000fa30       _load_config_used          0000000180037a30     LIBCMT:loadcfg.obj
 0002:0000fac8       ??_C@_0M@OFPLMEDN@getPrinters?$AA@ 0000000180037ac8     node_printer.obj
 0002:0000fad8       ??_C@_0BG@LKCIGDOF@getDefaultPrinterName?$AA@ 0000000180037ad8     node_printer.obj
 0002:0000faf0       ??_C@_0L@OHHGBAEL@getPrinter?$AA@ 0000000180037af0     node_printer.obj
 0002:0000fb00       ??_C@_0BI@GAOFGHOM@getPrinterDriverOptions?$AA@ 0000000180037b00     node_printer.obj
 0002:0000fb18       ??_C@_06JIAALHGN@getJob?$AA@ 0000000180037b18     node_printer.obj
 0002:0000fb20       ??_C@_06LJBAPLA@setJob?$AA@ 0000000180037b20     node_printer.obj
 0002:0000fb28       ??_C@_0M@IGPAMLFN@printDirect?$AA@ 0000000180037b28     node_printer.obj
 0002:0000fb38       ??_C@_09HICNICHL@printFile?$AA@ 0000000180037b38     node_printer.obj
 0002:0000fb48       ??_C@_0BJ@KPMFEGP@getSupportedPrintFormats?$AA@ 0000000180037b48     node_printer.obj
 0002:0000fb68       ??_C@_0BI@OADJINNK@getSupportedJobCommands?$AA@ 0000000180037b68     node_printer.obj
 0002:0000fb80       ??_C@_0BH@GOBBPFCN@?4?4?2src?2node_printer?4cc?$AA@ 0000000180037b80     node_printer.obj
 0002:0000fb98       ??_C@_0N@ENGGNKJL@node_printer?$AA@ 0000000180037b98     node_printer.obj
 0002:0000fba8       ??_C@_0BA@JFNIOLAK@string?5too?5long?$AA@ 0000000180037ba8     node_printer.obj
 0002:0000fbb8       ??_C@_0BI@CFPLBAOH@invalid?5string?5position?$AA@ 0000000180037bb8     node_printer.obj
 0002:0000fbd0       ??_C@_0BC@BDKFLDHL@unknown?5exception?$AA@ 0000000180037bd0     node_printer_win.obj
 0002:0000fbe8       ??_C@_0BA@ELKIONDK@bad?5locale?5name?$AA@ 0000000180037be8     node_printer_win.obj
 0002:0000fbf8       ??_C@_05LAPONLG@false?$AA@ 0000000180037bf8     node_printer_win.obj
 0002:0000fc00       ??_C@_04LOAJBDKD@true?$AA@ 0000000180037c00     node_printer_win.obj
 0002:0000fc05       ??_C@_00CNPNBAHC@?$AA@     0000000180037c05     node_printer_win.obj
 0002:0000fc08       ??_C@_02LMMGGCAJ@?3?5?$AA@ 0000000180037c08     node_printer_win.obj
 0002:0000fc10       ??_C@_08LLGCOLLL@iostream?$AA@ 0000000180037c10     node_printer_win.obj
 0002:0000fc20       ??_C@_0BG@PADBLCHM@iostream?5stream?5error?$AA@ 0000000180037c20     node_printer_win.obj
 0002:0000fc38       ??_C@_0BF@PHHKMMFD@ios_base?3?3badbit?5set?$AA@ 0000000180037c38     node_printer_win.obj
 0002:0000fc50       ??_C@_0BG@FMKFHCIL@ios_base?3?3failbit?5set?$AA@ 0000000180037c50     node_printer_win.obj
 0002:0000fc68       ??_C@_0BF@OOHOMBOF@ios_base?3?3eofbit?5set?$AA@ 0000000180037c68     node_printer_win.obj
 0002:0000fc80       ??_C@_04OCLOIKKP@BUSY?$AA@ 0000000180037c80     node_printer_win.obj
 0002:0000fc88       ??_C@_09HMMPCPCI@DOOR?9OPEN?$AA@ 0000000180037c88     node_printer_win.obj
 0002:0000fc94       ??_C@_05MBDEGLCK@ERROR?$AA@ 0000000180037c94     node_printer_win.obj
 0002:0000fca0       ??_C@_0N@GDECMNNL@INITIALIZING?$AA@ 0000000180037ca0     node_printer_win.obj
 0002:0000fcb0       ??_C@_09LIICJBED@IO?9ACTIVE?$AA@ 0000000180037cb0     node_printer_win.obj
 0002:0000fcc0       ??_C@_0M@MBAFHBNB@MANUAL?9FEED?$AA@ 0000000180037cc0     node_printer_win.obj
 0002:0000fcd0       ??_C@_08JJNKGBFD@NO?9TONER?$AA@ 0000000180037cd0     node_printer_win.obj
 0002:0000fce0       ??_C@_0O@NAOAIBHD@NOT?9AVAILABLE?$AA@ 0000000180037ce0     node_printer_win.obj
 0002:0000fcf0       ??_C@_07BIKPOAJA@OFFLINE?$AA@ 0000000180037cf0     node_printer_win.obj
 0002:0000fcf8       ??_C@_0O@OCOPPEOP@OUT?9OF?9MEMORY?$AA@ 0000000180037cf8     node_printer_win.obj
 0002:0000fd08       ??_C@_0BA@IIGDMLKB@OUTPUT?9BIN?9FULL?$AA@ 0000000180037d08     node_printer_win.obj
 0002:0000fd18       ??_C@_09ICMCIJIG@PAGE?9PUNT?$AA@ 0000000180037d18     node_printer_win.obj
 0002:0000fd28       ??_C@_09JHKMIDDC@PAPER?9JAM?$AA@ 0000000180037d28     node_printer_win.obj
 0002:0000fd38       ??_C@_09CAFNNBLE@PAPER?9OUT?$AA@ 0000000180037d38     node_printer_win.obj
 0002:0000fd48       ??_C@_0O@ODHKPIIF@PAPER?9PROBLEM?$AA@ 0000000180037d48     node_printer_win.obj
 0002:0000fd58       ??_C@_06EOENDFCC@PAUSED?$AA@ 0000000180037d58     node_printer_win.obj
 0002:0000fd60       ??_C@_0BB@PBKJHFPO@PENDING?9DELETION?$AA@ 0000000180037d60     node_printer_win.obj
 0002:0000fd78       ??_C@_0L@ECGFKCFL@POWER?9SAVE?$AA@ 0000000180037d78     node_printer_win.obj
 0002:0000fd88       ??_C@_08HGNFACJO@PRINTING?$AA@ 0000000180037d88     node_printer_win.obj
 0002:0000fd98       ??_C@_0L@DHKEDHLJ@PROCESSING?$AA@ 0000000180037d98     node_printer_win.obj
 0002:0000fda8       ??_C@_0P@OONCONOB@SERVER?9UNKNOWN?$AA@ 0000000180037da8     node_printer_win.obj
 0002:0000fdb8       ??_C@_09KAGMFDMO@TONER?9LOW?$AA@ 0000000180037db8     node_printer_win.obj
 0002:0000fdc8       ??_C@_0BC@HIJKEFLK@USER?9INTERVENTION?$AA@ 0000000180037dc8     node_printer_win.obj
 0002:0000fde0       ??_C@_07OBKGPIJE@WAITING?$AA@ 0000000180037de0     node_printer_win.obj
 0002:0000fde8       ??_C@_0L@NGDPENOF@WARMING?9UP?$AA@ 0000000180037de8     node_printer_win.obj
 0002:0000fdf8       ??_C@_07BCAOMLJN@PRINTED?$AA@ 0000000180037df8     node_printer_win.obj
 0002:0000fe00       ??_C@_0N@NEOKEICG@BLOCKED?9DEVQ?$AA@ 0000000180037e00     node_printer_win.obj
 0002:0000fe10       ??_C@_07GPJLPGKO@DELETED?$AA@ 0000000180037e10     node_printer_win.obj
 0002:0000fe18       ??_C@_08MJHIPGLF@DELETING?$AA@ 0000000180037e18     node_printer_win.obj
 0002:0000fe28       ??_C@_08MHNHLKPH@PAPEROUT?$AA@ 0000000180037e28     node_printer_win.obj
 0002:0000fe38       ??_C@_07EOCDMAHH@RESTART?$AA@ 0000000180037e38     node_printer_win.obj
 0002:0000fe40       ??_C@_08PFGBADPK@SPOOLING?$AA@ 0000000180037e40     node_printer_win.obj
 0002:0000fe50       ??_C@_08PAHEDIPH@COMPLETE?$AA@ 0000000180037e50     node_printer_win.obj
 0002:0000fe5c       ??_C@_06LIJCLFCC@DIRECT?$AA@ 0000000180037e5c     node_printer_win.obj
 0002:0000fe68       ??_C@_0BC@LPKCNOLB@DO?9COMPLETE?9FIRST?$AA@ 0000000180037e68     node_printer_win.obj
 0002:0000fe80       ??_C@_0M@DANDHPID@ENABLE?9DEVQ?$AA@ 0000000180037e80     node_printer_win.obj
 0002:0000fe8c       ??_C@_06JMIOFMHI@HIDDEN?$AA@ 0000000180037e8c     node_printer_win.obj
 0002:0000fe98       ??_C@_0BA@FKHBHIMC@KEEPPRINTEDJOBS?$AA@ 0000000180037e98     node_printer_win.obj
 0002:0000fea8       ??_C@_05EIDBELPO@LOCAL?$AA@ 0000000180037ea8     node_printer_win.obj
 0002:0000feb0       ??_C@_07BCBHNHNG@NETWORK?$AA@ 0000000180037eb0     node_printer_win.obj
 0002:0000feb8       ??_C@_09JOLHJECC@PUBLISHED?$AA@ 0000000180037eb8     node_printer_win.obj
 0002:0000fec4       ??_C@_06DFPGLGEF@QUEUED?$AA@ 0000000180037ec4     node_printer_win.obj
 0002:0000fed0       ??_C@_08EOLEPDCM@RAW?9ONLY?$AA@ 0000000180037ed0     node_printer_win.obj
 0002:0000fedc       ??_C@_06HFHGCIFA@SHARED?$AA@ 0000000180037edc     node_printer_win.obj
 0002:0000fee4       ??_C@_03GDPOBHKJ@FAX?$AA@  0000000180037ee4     node_printer_win.obj
 0002:0000fee8       ??_C@_06JHILMIHF@CANCEL?$AA@ 0000000180037ee8     node_printer_win.obj
 0002:0000fef0       ??_C@_05DIAHPDGL@PAUSE?$AA@ 0000000180037ef0     node_printer_win.obj
 0002:0000fef8       ??_C@_06PPGAKMJI@RESUME?$AA@ 0000000180037ef8     node_printer_win.obj
 0002:0000ff00       ??_C@_06FKDAMKFP@DELETE?$AA@ 0000000180037f00     node_printer_win.obj
 0002:0000ff08       ??_C@_0BA@IOAFOBOJ@SENT?9TO?9PRINTER?$AA@ 0000000180037f08     node_printer_win.obj
 0002:0000ff18       ??_C@_0BC@EKGDAJJO@LAST?9PAGE?9EJECTED?$AA@ 0000000180037f18     node_printer_win.obj
 0002:0000ff2c       ??_C@_02EGCJHIOB@id?$AA@   0000000180037f2c     node_printer_win.obj
 0002:0000ff30       ??_C@_04MEMAJGDJ@name?$AA@ 0000000180037f30     node_printer_win.obj
 0002:0000ff38       ??_C@_0M@DENPMHOH@printerName?$AA@ 0000000180037f38     node_printer_win.obj
 0002:0000ff44       ??_C@_04CCHAHKJA@user?$AA@ 0000000180037f44     node_printer_win.obj
 0002:0000ff4c       ??_C@_06DLEPGFEF@format?$AA@ 0000000180037f4c     node_printer_win.obj
 0002:0000ff58       ??_C@_08IIJFADMF@priority?$AA@ 0000000180037f58     node_printer_win.obj
 0002:0000ff64       ??_C@_04IAGNFIBA@size?$AA@ 0000000180037f64     node_printer_win.obj
 0002:0000ff6c       ??_C@_06DJIHEMFI@status?$AA@ 0000000180037f6c     node_printer_win.obj
 0002:0000ff78       ??_C@_0M@OCOCCFP@machineName?$AA@ 0000000180037f78     node_printer_win.obj
 0002:0000ff88       ??_C@_08JEEDKNPB@document?$AA@ 0000000180037f88     node_printer_win.obj
 0002:0000ff98       ??_C@_0L@CMEKBBJA@notifyName?$AA@ 0000000180037f98     node_printer_win.obj
 0002:0000ffa8       ??_C@_0P@DGBIAKBE@printProcessor?$AA@ 0000000180037fa8     node_printer_win.obj
 0002:0000ffb8       ??_C@_0L@HHPOFMCB@parameters?$AA@ 0000000180037fb8     node_printer_win.obj
 0002:0000ffc8       ??_C@_0L@LPIOCPLD@driverName?$AA@ 0000000180037fc8     node_printer_win.obj
 0002:0000ffd8       ??_C@_08OAGMDKAF@position?$AA@ 0000000180037fd8     node_printer_win.obj
 0002:0000ffe8       ??_C@_09IIHJADCI@startTime?$AA@ 0000000180037fe8     node_printer_win.obj
 0002:0000fff8       ??_C@_09CIOMMAN@untilTime?$AA@ 0000000180037ff8     node_printer_win.obj
 0002:00010008       ??_C@_0L@EDFEJOLM@totalPages?$AA@ 0000000180038008     node_printer_win.obj
 0002:00010014       ??_C@_04CLCEDBPF@time?$AA@ 0000000180038014     node_printer_win.obj
 0002:00010020       ??_C@_0N@PCHPGDNI@pagesPrinted?$AA@ 0000000180038020     node_printer_win.obj
 0002:00010030       ??_C@_06PNFNFJCO@code?3?5?$AA@ 0000000180038030     node_printer_win.obj
 0002:00010038       ??_C@_0M@IKAFADKH@?0?5message?3?5?$AA@ 0000000180038038     node_printer_win.obj
 0002:00010048       ??_C@_0CG@DBNFCFND@Error?5on?5allocating?5memory?5for?5j@ 0000000180038048     node_printer_win.obj
 0002:00010070       ??_C@_0BF@FJKDNEGJ@Error?5on?5EnumJobsW?3?5?$AA@ 0000000180038070     node_printer_win.obj
 0002:00010088       ??_C@_0L@NDKELIMG@serverName?$AA@ 0000000180038088     node_printer_win.obj
 0002:00010098       ??_C@_09OFODMELP@shareName?$AA@ 0000000180038098     node_printer_win.obj
 0002:000100a8       ??_C@_08DHAGKFJJ@portName?$AA@ 00000001800380a8     node_printer_win.obj
 0002:000100b8       ??_C@_07GJGNEJFD@comment?$AA@ 00000001800380b8     node_printer_win.obj
 0002:000100c0       ??_C@_08CBBFJFMD@location?$AA@ 00000001800380c0     node_printer_win.obj
 0002:000100d0       ??_C@_07KCHEGAKA@sepFile?$AA@ 00000001800380d0     node_printer_win.obj
 0002:000100d8       ??_C@_08IJKJONLA@datatype?$AA@ 00000001800380d8     node_printer_win.obj
 0002:000100e8       ??_C@_0N@MKKJGDNC@statusNumber?$AA@ 00000001800380e8     node_printer_win.obj
 0002:000100f8       ??_C@_0L@HNMJPKNA@attributes?$AA@ 00000001800380f8     node_printer_win.obj
 0002:00010108       ??_C@_0BA@CCOAPEEI@defaultPriority?$AA@ 0000000180038108     node_printer_win.obj
 0002:00010118       ??_C@_0L@INHADAOG@averagePPM?$AA@ 0000000180038118     node_printer_win.obj
 0002:00010124       ??_C@_04MGFLLFCA@jobs?$AA@ 0000000180038124     node_printer_win.obj
 0002:00010130       ??_C@_0CI@JKGAACMI@Error?5on?5allocating?5memory?5for?5p@ 0000000180038130     node_printer_win.obj
 0002:00010158       ??_C@_0BI@JCMDGAJB@Error?5on?5EnumPrinters?3?5?$AA@ 0000000180038158     node_printer_win.obj
 0002:00010170       ??_C@_0BF@HGPEJPKP@Expected?51?5arguments?$AA@ 0000000180038170     node_printer_win.obj
 0002:00010188       ??_C@_0BM@MEFJKJPM@Argument?50?5must?5be?5a?5string?$AA@ 0000000180038188     node_printer_win.obj
 0002:000101a8       ??_C@_0BJ@PPLHBNKL@error?5on?5PrinterHandle?3?5?$AA@ 00000001800381a8     node_printer_win.obj
 0002:000101c8       ??_C@_0BG@PBCNBFJE@Error?5on?5GetPrinter?3?5?$AA@ 00000001800381c8     node_printer_win.obj
 0002:000101e0       ??_C@_0BJ@IDGLMKA@not?5supported?5on?5windows?$AA@ 00000001800381e0     node_printer_win.obj
 0002:00010200       ??_C@_0BF@BGKENFP@Expected?52?5arguments?$AA@ 0000000180038200     node_printer_win.obj
 0002:00010218       ??_C@_0BO@JPDIFIDB@Argument?51?5must?5be?5an?5integer?$AA@ 0000000180038218     node_printer_win.obj
 0002:00010238       ??_C@_0BB@EJICMOH@Wrong?5job?5number?$AA@ 0000000180038238     node_printer_win.obj
 0002:00010250       ??_C@_0DC@KIMNJPPM@Error?5on?5GetJob?4?5Wrong?5job?5id?5or@ 0000000180038250     node_printer_win.obj
 0002:00010288       ??_C@_0BF@JKMPABDA@Expected?53?5arguments?$AA@ 0000000180038288     node_printer_win.obj
 0002:000102a0       ??_C@_0BM@LAONKPAN@Argument?52?5must?5be?5a?5string?$AA@ 00000001800382a0     node_printer_win.obj
 0002:000102c0       ??_C@_0EM@JPOFEIGN@wrong?5job?5command?4?5use?5getSuppor@ 00000001800382c0     node_printer_win.obj
 0002:00010310       ??_C@_0CA@LHKGIIJG@error?5on?5EnumPrintProcessorsW?3?5?$AA@ 0000000180038310     node_printer_win.obj
 0002:00010330       ??_C@_0CI@LFDNKGLA@error?5on?5EnumPrintProcessorDatat@ 0000000180038330     node_printer_win.obj
 0002:00010358       ??_C@_0BF@HFPCKENA@Expected?55?5arguments?$AA@ 0000000180038358     node_printer_win.obj
 0002:00010370       ??_C@_0BD@MELPCPAM@Argument?50?5missing?$AA@ 0000000180038370     node_printer_win.obj
 0002:00010388       ??_C@_0CG@GCEOJCFF@Argument?50?5must?5be?5a?5string?5or?5B@ 0000000180038388     node_printer_win.obj
 0002:000103b0       ??_C@_0BM@BDLLCJKE@Argument?51?5must?5be?5a?5string?$AA@ 00000001800383b0     node_printer_win.obj
 0002:000103d0       ??_C@_0BM@GHAPCPFF@Argument?53?5must?5be?5a?5string?$AA@ 00000001800383d0     node_printer_win.obj
 0002:000103f0       ??_C@_0BJ@IAMFJIGO@StartPagePrinter?5error?3?5?$AA@ 00000001800383f0     node_printer_win.obj
 0002:00010410       ??_C@_0BJ@CEPPOLFF@StartDocPrinterW?5error?3?5?$AA@ 0000000180038410     node_printer_win.obj
 0002:00010430       ??_C@_0BD@FCINFPKM@not?5sent?5all?5bytes?$AA@ 0000000180038430     node_printer_win.obj
 0002:00010448       ??_C@_0BP@BFBMJHKP@Not?5yet?5implemented?5on?5Windows?$AA@ 0000000180038448     node_printer_win.obj
 0002:00010468       ??_C@_02BBAHNLBA@?$CFp?$AA@ 0000000180038468     node_printer_win.obj
 0002:0001046c       ??_C@_02MDKMJEGG@eE?$AA@   000000018003846c     node_printer_win.obj
 0002:00010470       ??_C@_02OOPEBDOJ@pP?$AA@   0000000180038470     node_printer_win.obj
 0002:00010478       ??_C@_0BE@JONHPENG@map?1set?$DMT?$DO?5too?5long?$AA@ 0000000180038478     node_printer_win.obj
 0002:00010490       ??_7?$basic_streambuf@DU?$char_traits@D@std@@@std@@6B@ 0000000180038490     node_printer_win.obj
 0002:00010508       ??_7error_category@std@@6B@ 0000000180038508     node_printer_win.obj
 0002:00010538       ??_7?$basic_ostringstream@DU?$char_traits@D@std@@V?$allocator@D@2@@std@@6B@ 0000000180038538     node_printer_win.obj
 0002:00010540       ??_7_Iostream_error_category@std@@6B@ 0000000180038540     node_printer_win.obj
 0002:00010570       ??_7ios_base@std@@6B@      0000000180038570     node_printer_win.obj
 0002:00010578       ??_7exception@stdext@@6B@  0000000180038578     node_printer_win.obj
 0002:00010590       ??_7?$basic_stringbuf@DU?$char_traits@D@std@@V?$allocator@D@2@@std@@6B@ 0000000180038590     node_printer_win.obj
 0002:00010608       ??_8?$basic_ostringstream@DU?$char_traits@D@std@@V?$allocator@D@2@@std@@7B@ 0000000180038608     node_printer_win.obj
 0002:00010610       ??_7?$basic_ostream@DU?$char_traits@D@std@@@std@@6B@ 0000000180038610     node_printer_win.obj
 0002:00010618       ??_7failure@ios_base@std@@6B@ 0000000180038618     node_printer_win.obj
 0002:00010618       ??_7_System_error@std@@6B@ 0000000180038618     node_printer_win.obj
 0002:00010630       ??_C@_08HCOMDCCD@iojs?4exe?$AA@ 0000000180038630     win_delay_load_hook.obj
 0002:00010640       ??_C@_08JDDNMFDB@node?4exe?$AA@ 0000000180038640     win_delay_load_hook.obj
 0002:00010650       __pfnDliNotifyHook2        0000000180038650     win_delay_load_hook.obj
 0002:00010658       __real@4202a05f20000000    0000000180038658     node_printer_win.obj
 0002:00010660       __xmm@7fffffffffffffff7fffffffffffffff 0000000180038660     node_printer_win.obj
 0002:000106c8       _tls_used                  00000001800386c8     LIBCMT:tlssup.obj
 0002:000106f0       ??_R4exception@std@@6B@    00000001800386f0     libcpmt:xthrow.obj
 0002:00010718       ??_R3exception@std@@8      0000000180038718     libcpmt:xthrow.obj
 0002:00010730       ??_R2exception@std@@8      0000000180038730     libcpmt:xthrow.obj
 0002:00010740       ??_R1A@?0A@EA@exception@std@@8 0000000180038740     libcpmt:xthrow.obj
 0002:00010768       ??_R4bad_alloc@std@@6B@    0000000180038768     libcpmt:xthrow.obj
 0002:00010790       ??_R3bad_alloc@std@@8      0000000180038790     libcpmt:xthrow.obj
 0002:000107a8       ??_R2bad_alloc@std@@8      00000001800387a8     libcpmt:xthrow.obj
 0002:000107c0       ??_R1A@?0A@EA@bad_alloc@std@@8 00000001800387c0     libcpmt:xthrow.obj
 0002:000107e8       ??_R4logic_error@std@@6B@  00000001800387e8     libcpmt:xthrow.obj
 0002:00010810       ??_R3logic_error@std@@8    0000000180038810     libcpmt:xthrow.obj
 0002:00010828       ??_R2logic_error@std@@8    0000000180038828     libcpmt:xthrow.obj
 0002:00010840       ??_R1A@?0A@EA@logic_error@std@@8 0000000180038840     libcpmt:xthrow.obj
 0002:00010868       ??_R4length_error@std@@6B@ 0000000180038868     libcpmt:xthrow.obj
 0002:00010890       ??_R3length_error@std@@8   0000000180038890     libcpmt:xthrow.obj
 0002:000108a8       ??_R2length_error@std@@8   00000001800388a8     libcpmt:xthrow.obj
 0002:000108c8       ??_R1A@?0A@EA@length_error@std@@8 00000001800388c8     libcpmt:xthrow.obj
 0002:000108f0       ??_R4out_of_range@std@@6B@ 00000001800388f0     libcpmt:xthrow.obj
 0002:00010918       ??_R3out_of_range@std@@8   0000000180038918     libcpmt:xthrow.obj
 0002:00010930       ??_R2out_of_range@std@@8   0000000180038930     libcpmt:xthrow.obj
 0002:00010950       ??_R1A@?0A@EA@out_of_range@std@@8 0000000180038950     libcpmt:xthrow.obj
 0002:00010978       ??_R4runtime_error@std@@6B@ 0000000180038978     libcpmt:xthrow.obj
 0002:000109a0       ??_R3runtime_error@std@@8  00000001800389a0     libcpmt:xthrow.obj
 0002:000109b8       ??_R2runtime_error@std@@8  00000001800389b8     libcpmt:xthrow.obj
 0002:000109d0       ??_R1A@?0A@EA@runtime_error@std@@8 00000001800389d0     libcpmt:xthrow.obj
 0002:000109f8       ??_R4_Facet_base@std@@6B@  00000001800389f8     libcpmt:locale0.obj
 0002:00010a20       ??_R3_Facet_base@std@@8    0000000180038a20     libcpmt:locale0.obj
 0002:00010a38       ??_R2_Facet_base@std@@8    0000000180038a38     libcpmt:locale0.obj
 0002:00010a48       ??_R1A@?0A@EA@_Facet_base@std@@8 0000000180038a48     libcpmt:locale0.obj
 0002:00010a70       ??_R4_Locimp@locale@std@@6B@ 0000000180038a70     libcpmt:locale0.obj
 0002:00010a98       ??_R3_Locimp@locale@std@@8 0000000180038a98     libcpmt:locale0.obj
 0002:00010ab0       ??_R2_Locimp@locale@std@@8 0000000180038ab0     libcpmt:locale0.obj
 0002:00010ad8       ??_R1A@?0A@EA@_Locimp@locale@std@@8 0000000180038ad8     libcpmt:locale0.obj
 0002:00010b00       ??_R1A@?0A@EA@facet@locale@std@@8 0000000180038b00     libcpmt:locale0.obj
 0002:00010b28       ??_R3facet@locale@std@@8   0000000180038b28     libcpmt:locale0.obj
 0002:00010b40       ??_R2facet@locale@std@@8   0000000180038b40     libcpmt:locale0.obj
 0002:00010b60       ??_R17?0A@EA@_Crt_new_delete@std@@8 0000000180038b60     libcpmt:locale0.obj
 0002:00010b88       ??_R3_Crt_new_delete@std@@8 0000000180038b88     libcpmt:locale0.obj
 0002:00010ba0       ??_R2_Crt_new_delete@std@@8 0000000180038ba0     libcpmt:locale0.obj
 0002:00010bb0       ??_R1A@?0A@EA@_Crt_new_delete@std@@8 0000000180038bb0     libcpmt:locale0.obj
 0002:00010bd8       ??_R3ctype_base@std@@8     0000000180038bd8     libcpmt:locale.obj
 0002:00010bf0       ??_R2ctype_base@std@@8     0000000180038bf0     libcpmt:locale.obj
 0002:00010c18       ??_R1A@?0A@EA@ctype_base@std@@8 0000000180038c18     libcpmt:locale.obj
 0002:00010c40       ??_R4?$ctype@D@std@@6B@    0000000180038c40     libcpmt:locale.obj
 0002:00010c68       ??_R3?$ctype@D@std@@8      0000000180038c68     libcpmt:locale.obj
 0002:00010c80       ??_R2?$ctype@D@std@@8      0000000180038c80     libcpmt:locale.obj
 0002:00010cb0       ??_R1A@?0A@EA@?$ctype@D@std@@8 0000000180038cb0     libcpmt:locale.obj
 0002:00010cd8       ??_R4?$num_put@DV?$ostreambuf_iterator@DU?$char_traits@D@std@@@std@@@std@@6B@ 0000000180038cd8     libcpmt:locale.obj
 0002:00010d00       ??_R3?$num_put@DV?$ostreambuf_iterator@DU?$char_traits@D@std@@@std@@@std@@8 0000000180038d00     libcpmt:locale.obj
 0002:00010d18       ??_R2?$num_put@DV?$ostreambuf_iterator@DU?$char_traits@D@std@@@std@@@std@@8 0000000180038d18     libcpmt:locale.obj
 0002:00010d40       ??_R1A@?0A@EA@?$num_put@DV?$ostreambuf_iterator@DU?$char_traits@D@std@@@std@@@std@@8 0000000180038d40     libcpmt:locale.obj
 0002:00010d68       ??_R4?$numpunct@D@std@@6B@ 0000000180038d68     libcpmt:locale.obj
 0002:00010d90       ??_R3?$numpunct@D@std@@8   0000000180038d90     libcpmt:locale.obj
 0002:00010da8       ??_R2?$numpunct@D@std@@8   0000000180038da8     libcpmt:locale.obj
 0002:00010dd0       ??_R1A@?0A@EA@?$numpunct@D@std@@8 0000000180038dd0     libcpmt:locale.obj
 0002:00010df8       ??_R4type_info@@6B@        0000000180038df8     LIBCMT:std_type_info_static.obj
 0002:00010e20       ??_R3type_info@@8          0000000180038e20     LIBCMT:std_type_info_static.obj
 0002:00010e38       ??_R2type_info@@8          0000000180038e38     LIBCMT:std_type_info_static.obj
 0002:00010e48       ??_R1A@?0A@EA@type_info@@8 0000000180038e48     LIBCMT:std_type_info_static.obj
 0002:00010e70       ??_R4bad_array_new_length@std@@6B@ 0000000180038e70     LIBCMT:throw_bad_alloc.obj
 0002:00010e98       ??_R3bad_array_new_length@std@@8 0000000180038e98     LIBCMT:throw_bad_alloc.obj
 0002:00010eb0       ??_R2bad_array_new_length@std@@8 0000000180038eb0     LIBCMT:throw_bad_alloc.obj
 0002:00010ed0       ??_R1A@?0A@EA@bad_array_new_length@std@@8 0000000180038ed0     LIBCMT:throw_bad_alloc.obj
 0002:00010ef8       ??_R4bad_exception@std@@6B@ 0000000180038ef8     libvcruntime:frame.obj
 0002:00010f20       ??_R3bad_exception@std@@8  0000000180038f20     libvcruntime:frame.obj
 0002:00010f38       ??_R2bad_exception@std@@8  0000000180038f38     libvcruntime:frame.obj
 0002:00010f50       ??_R1A@?0A@EA@bad_exception@std@@8 0000000180038f50     libvcruntime:frame.obj
 0002:00011418       __rtc_iaa                  0000000180039418     LIBCMT:_initsect_.obj
 0002:00011420       __rtc_izz                  0000000180039420     LIBCMT:_initsect_.obj
 0002:00011428       __rtc_taa                  0000000180039428     LIBCMT:_initsect_.obj
 0002:00011430       __rtc_tzz                  0000000180039430     LIBCMT:_initsect_.obj
 0002:00013270       _TI2?AVbad_alloc@std@@     000000018003b270     libcpmt:xthrow.obj
 0002:00013290       _CTA2?AVbad_alloc@std@@    000000018003b290     libcpmt:xthrow.obj
 0002:000132a8       _CT??_R0?AVbad_alloc@std@@@8??0bad_alloc@std@@QEAA@AEBV01@@Z24 000000018003b2a8     libcpmt:xthrow.obj
 0002:000132d0       _CT??_R0?AVexception@std@@@8??0exception@std@@QEAA@AEBV01@@Z24 000000018003b2d0     libcpmt:xthrow.obj
 0002:000132f8       _CT??_R0?AVlogic_error@std@@@8??0logic_error@std@@QEAA@AEBV01@@Z24 000000018003b2f8     libcpmt:xthrow.obj
 0002:00013320       _TI3?AVlength_error@std@@  000000018003b320     libcpmt:xthrow.obj
 0002:00013340       _CTA3?AVlength_error@std@@ 000000018003b340     libcpmt:xthrow.obj
 0002:00013360       _CT??_R0?AVlength_error@std@@@8??0length_error@std@@QEAA@AEBV01@@Z24 000000018003b360     libcpmt:xthrow.obj
 0002:00013388       _TI3?AVout_of_range@std@@  000000018003b388     libcpmt:xthrow.obj
 0002:000133a8       _CTA3?AVout_of_range@std@@ 000000018003b3a8     libcpmt:xthrow.obj
 0002:000133c8       _CT??_R0?AVout_of_range@std@@@8??0out_of_range@std@@QEAA@AEBV01@@Z24 000000018003b3c8     libcpmt:xthrow.obj
 0002:000133f0       _TI3?AVbad_array_new_length@std@@ 000000018003b3f0     LIBCMT:throw_bad_alloc.obj
 0002:00013410       _CTA3?AVbad_array_new_length@std@@ 000000018003b410     LIBCMT:throw_bad_alloc.obj
 0002:00013430       _CT??_R0?AVbad_array_new_length@std@@@8??0bad_array_new_length@std@@QEAA@AEBV01@@Z24 000000018003b430     LIBCMT:throw_bad_alloc.obj
 0002:00013458       _TI2?AVbad_exception@std@@ 000000018003b458     libvcruntime:frame.obj
 0002:00013478       _CTA2?AVbad_exception@std@@ 000000018003b478     libvcruntime:frame.obj
 0002:00013490       _CT??_R0?AVbad_exception@std@@@8??0bad_exception@std@@QEAA@AEBV01@@Z24 000000018003b490     libvcruntime:frame.obj
 0002:000134b4       __DELAY_IMPORT_DESCRIPTOR_node_exe 000000018003b4b4     node:node.exe
 0002:000134d4       __NULL_DELAY_IMPORT_DESCRIPTOR 000000018003b4d4     node:node.exe
 0002:000135d0       \177node_NULL_THUNK_DATA_DLN 000000018003b5d0     node:node.exe
 0002:00013c10       \177node_NULL_THUNK_DATA_DLB 000000018003bc10     node:node.exe
 0002:00013d4c       __IMPORT_DESCRIPTOR_KERNEL32 000000018003bd4c     kernel32:KERNEL32.dll
 0002:00013d60       __IMPORT_DESCRIPTOR_WINSPOOL 000000018003bd60     winspool:WINSPOOL.DRV
 0002:00013d74       __NULL_IMPORT_DESCRIPTOR   000000018003bd74     kernel32:KERNEL32.dll
 0003:00000004       ?_Sync@ios_base@std@@0_NA  000000018003d004     libcpmt:ios.obj
 0003:00000020       ?_PJP_CPP_Copyright@@3PADA 000000018003d020     libcpmt:iosptrs.obj
 0003:00000080       _Init_global_epoch         000000018003d080     LIBCMT:thread_safe_statics.obj
 0003:00000084       __scrt_native_dllmain_reason 000000018003d084     LIBCMT:utility.obj
 0003:00000088       __security_cookie          000000018003d088     LIBCMT:gs_cookie.obj
 0003:00000090       __security_cookie_complement 000000018003d090     LIBCMT:gs_cookie.obj
 0003:00000098       _fltused                   000000018003d098     LIBCMT:fltused.obj
 0003:000000a0       __isa_available            000000018003d0a0     LIBCMT:_cpu_disp_.obj
 0003:000000a4       __isa_enabled              000000018003d0a4     LIBCMT:_cpu_disp_.obj
 0003:000000a8       __memcpy_nt_iters          000000018003d0a8     LIBCMT:_cpu_disp_.obj
 0003:000000c0       __abort_behavior           000000018003d0c0     libucrt:abort.obj
 0003:000000d0       __acrt_lconv_c             000000018003d0d0     libucrt:localeconv.obj
 0003:00000168       __acrt_lconv               000000018003d168     libucrt:localeconv.obj
 0003:00000170       __acrt_lconv_static_decimal 000000018003d170     libucrt:localeconv.obj
 0003:00000174       __acrt_lconv_static_W_decimal 000000018003d174     libucrt:localeconv.obj
 0003:00000178       _pctype                    000000018003d178     libucrt:ctype.obj
 0003:00000180       _pwctype                   000000018003d180     libucrt:ctype.obj
 0003:000001a0       _iob                       000000018003d1a0     libucrt:_file.obj
 0003:000002b0       __acrt_initial_locale_data 000000018003d2b0     libucrt:nlsdata.obj
 0003:00000408       __acrt_initial_locale_pointers 000000018003d408     libucrt:nlsdata.obj
 0003:00000418       __acrt_wide_c_locale_string 000000018003d418     libucrt:nlsdata.obj
 0003:0000041c       __mb_cur_max               000000018003d41c     libucrt:nlsdata.obj
 0003:00000424       __globallocalestatus       000000018003d424     libucrt:glstatus.obj
 0003:000004c0       __acrt_initial_multibyte_data 000000018003d4c0     libucrt:mbctype.obj
 0003:000006e8       __acrt_current_multibyte_data 000000018003d6e8     libucrt:mbctype.obj
 0003:000007f0       _mbctype                   000000018003d7f0     libucrt:mbctype.obj
 0003:00000900       _mbcasemap                 000000018003d900     libucrt:mbctype.obj
 0003:00000a10       __dcrt_lowio_console_output_handle 000000018003da10     libucrt:initcon.obj
 0003:00000a60       ??_R0?AVbad_alloc@std@@@8  000000018003da60     libcpmt:xthrow.obj
 0003:00000a88       ??_R0?AVexception@std@@@8  000000018003da88     libcpmt:xthrow.obj
 0003:00000ab0       ??_R0?AVlogic_error@std@@@8 000000018003dab0     libcpmt:xthrow.obj
 0003:00000ad8       ??_R0?AVlength_error@std@@@8 000000018003dad8     libcpmt:xthrow.obj
 0003:00000b00       ??_R0?AVout_of_range@std@@@8 000000018003db00     libcpmt:xthrow.obj
 0003:00000b28       ??_R0?AVruntime_error@std@@@8 000000018003db28     libcpmt:xthrow.obj
 0003:00000b50       ??_R0?AV_Facet_base@std@@@8 000000018003db50     libcpmt:locale0.obj
 0003:00000b78       ??_R0?AV_Locimp@locale@std@@@8 000000018003db78     libcpmt:locale0.obj
 0003:00000ba8       ??_R0?AVfacet@locale@std@@@8 000000018003dba8     libcpmt:locale0.obj
 0003:00000bd0       ??_R0?AU_Crt_new_delete@std@@@8 000000018003dbd0     libcpmt:locale0.obj
 0003:00000c00       ??_R0?AUctype_base@std@@@8 000000018003dc00     libcpmt:locale.obj
 0003:00000c28       ??_R0?AV?$ctype@D@std@@@8  000000018003dc28     libcpmt:locale.obj
 0003:00000c50       ??_R0?AV?$num_put@DV?$ostreambuf_iterator@DU?$char_traits@D@std@@@std@@@std@@@8 000000018003dc50     libcpmt:locale.obj
 0003:00000cb0       ??_R0?AV?$numpunct@D@std@@@8 000000018003dcb0     libcpmt:locale.obj
 0003:00000cd8       ??_R0?AVtype_info@@@8      000000018003dcd8     LIBCMT:std_type_info_static.obj
 0003:00000cf8       ??_R0?AVbad_array_new_length@std@@@8 000000018003dcf8     LIBCMT:throw_bad_alloc.obj
 0003:00000d28       ??_R0?AVbad_exception@std@@@8 000000018003dd28     libvcruntime:frame.obj
 0003:00000d50       __imp_?GetCurrent@Isolate@v8@@SAPEAV12@XZ 000000018003dd50     node:node.exe
 0003:00000d58       __imp_??1HandleScope@v8@@QEAA@XZ 000000018003dd58     node:node.exe
 0003:00000d60       __imp_??0HandleScope@v8@@QEAA@PEAVIsolate@1@@Z 000000018003dd60     node:node.exe
 0003:00000d68       __imp_?GetFunction@FunctionTemplate@v8@@QEAA?AV?$Local@VFunction@v8@@@2@XZ 000000018003dd68     node:node.exe
 0003:00000d70       __imp_?New@FunctionTemplate@v8@@SA?AV?$Local@VFunctionTemplate@v8@@@2@PEAVIsolate@2@P6AXAEBV?$FunctionCallbackInfo@VValue@v8@@@2@@ZV?$Local@VValue@v8@@@2@V?$Local@VSignature@v8@@@2@H@Z 000000018003dd70     node:node.exe
 0003:00000d78       __imp_?IsObject@Value@v8@@QEBA_NXZ 000000018003dd78     node:node.exe
 0003:00000d80       __imp_??1Utf8Value@String@v8@@QEAA@XZ 000000018003dd80     node:node.exe
 0003:00000d88       __imp_??0Utf8Value@String@v8@@QEAA@V?$Local@VValue@v8@@@2@@Z 000000018003dd88     node:node.exe
 0003:00000d90       __imp_?NewFromUtf8@String@v8@@SA?AV?$Local@VString@v8@@@2@PEAVIsolate@2@PEBDW4NewStringType@12@H@Z 000000018003dd90     node:node.exe
 0003:00000d98       __imp_?Set@Object@v8@@QEAA_NV?$Local@VValue@v8@@@2@0@Z 000000018003dd98     node:node.exe
 0003:00000da0       __imp_?SetName@Function@v8@@QEAAXV?$Local@VString@v8@@@2@@Z 000000018003dda0     node:node.exe
 0003:00000da8       __imp_node_module_register 000000018003dda8     node:node.exe
 0003:00000db0       __imp_?HasInstance@Buffer@node@@YA_NV?$Local@VValue@v8@@@v8@@@Z 000000018003ddb0     node:node.exe
 0003:00000db8       __imp_?Data@Buffer@node@@YAPEADV?$Local@VValue@v8@@@v8@@@Z 000000018003ddb8     node:node.exe
 0003:00000dc0       __imp_?Length@Buffer@node@@YA_KV?$Local@VValue@v8@@@v8@@@Z 000000018003ddc0     node:node.exe
 0003:00000dc8       __imp_?ToString@Value@v8@@QEBA?AV?$Local@VString@v8@@@2@XZ 000000018003ddc8     node:node.exe
 0003:00000dd0       __imp_?ThrowException@Isolate@v8@@QEAA?AV?$Local@VValue@v8@@@2@V32@@Z 000000018003ddd0     node:node.exe
 0003:00000dd8       __imp_?TypeError@Exception@v8@@SA?AV?$Local@VValue@v8@@@2@V?$Local@VString@v8@@@2@@Z 000000018003ddd8     node:node.exe
 0003:00000de0       __imp_?New@Array@v8@@SA?AV?$Local@VArray@v8@@@2@PEAVIsolate@2@H@Z 000000018003dde0     node:node.exe
 0003:00000de8       __imp_?Int32Value@Value@v8@@QEBAHXZ 000000018003dde8     node:node.exe
 0003:00000df0       __imp_?IsInt32@Value@v8@@QEBA_NXZ 000000018003ddf0     node:node.exe
 0003:00000df8       __imp_??1Value@String@v8@@QEAA@XZ 000000018003ddf8     node:node.exe
 0003:00000e00       __imp_??0Value@String@v8@@QEAA@V?$Local@VValue@v8@@@2@@Z 000000018003de00     node:node.exe
 0003:00000e08       __imp_?NewFromTwoByte@String@v8@@SA?AV?$Local@VString@v8@@@2@PEAVIsolate@2@PEBGW4NewStringType@12@H@Z 000000018003de08     node:node.exe
 0003:00000e10       __imp_?New@Number@v8@@SA?AV?$Local@VNumber@v8@@@2@PEAVIsolate@2@N@Z 000000018003de10     node:node.exe
 0003:00000e18       __imp_?New@Object@v8@@SA?AV?$Local@VObject@v8@@@2@PEAVIsolate@2@@Z 000000018003de18     node:node.exe
 0003:00000e20       __imp_?Set@Object@v8@@QEAA_NIV?$Local@VValue@v8@@@2@@Z 000000018003de20     node:node.exe
 0003:00000e28       \177node_NULL_THUNK_DATA_DLA 000000018003de28     node:node.exe
 0003:00000e30       __hmod__node_exe           000000018003de30     node:node.exe
 0003:00000f98       ?_Id_cnt@id@locale@std@@0HA 000000018003df98     libcpmt:locale0.obj
 0003:00000fa0       ?_Clocptr@_Locimp@locale@std@@0PEAV123@EA 000000018003dfa0     libcpmt:locale0.obj
 0003:00000fb0       ?id@?$ctype@_W@std@@2V0locale@2@A 000000018003dfb0     libcpmt:locale0.obj
 0003:00000fb8       ?id@?$ctype@D@std@@2V0locale@2@A 000000018003dfb8     libcpmt:locale0.obj
 0003:00000fc0       ?id@?$codecvt@GDU_Mbstatet@@@std@@2V0locale@2@A 000000018003dfc0     libcpmt:locale0.obj
 0003:00000fc8       ?id@?$ctype@G@std@@2V0locale@2@A 000000018003dfc8     libcpmt:locale0.obj
 0003:00000fe0       ?id@?$codecvt@_WDU_Mbstatet@@@std@@2V0locale@2@A 000000018003dfe0     libcpmt:locale0.obj
 0003:0000104c       ?_Index@ios_base@std@@0HA  000000018003e04c     libcpmt:ios.obj
 0003:00001050       ?_Raise_handler@std@@3P6AXAEBVexception@stdext@@@ZEA 000000018003e050     libcpmt:raisehan.obj
 0003:00001060       ?_Ptr_cin@std@@3PEAV?$basic_istream@DU?$char_traits@D@std@@@1@EA 000000018003e060     libcpmt:iosptrs.obj
 0003:00001068       ?_Ptr_cout@std@@3PEAV?$basic_ostream@DU?$char_traits@D@std@@@1@EA 000000018003e068     libcpmt:iosptrs.obj
 0003:00001070       ?_Ptr_cerr@std@@3PEAV?$basic_ostream@DU?$char_traits@D@std@@@1@EA 000000018003e070     libcpmt:iosptrs.obj
 0003:00001078       ?_Ptr_clog@std@@3PEAV?$basic_ostream@DU?$char_traits@D@std@@@1@EA 000000018003e078     libcpmt:iosptrs.obj
 0003:00001080       ?_Ptr_wcin@std@@3PEAV?$basic_istream@_WU?$char_traits@_W@std@@@1@EA 000000018003e080     libcpmt:iosptrs.obj
 0003:00001088       ?_Ptr_wcout@std@@3PEAV?$basic_ostream@_WU?$char_traits@_W@std@@@1@EA 000000018003e088     libcpmt:iosptrs.obj
 0003:00001090       ?_Ptr_wcerr@std@@3PEAV?$basic_ostream@_WU?$char_traits@_W@std@@@1@EA 000000018003e090     libcpmt:iosptrs.obj
 0003:00001098       ?_Ptr_wclog@std@@3PEAV?$basic_ostream@_WU?$char_traits@_W@std@@@1@EA 000000018003e098     libcpmt:iosptrs.obj
 0003:000010f8       ?id@?$num_get@DV?$istreambuf_iterator@DU?$char_traits@D@std@@@std@@@std@@2V0locale@2@A 000000018003e0f8     libcpmt:locale.obj
 0003:00001100       ?id@?$codecvt@DDU_Mbstatet@@@std@@2V0locale@2@A 000000018003e100     libcpmt:locale.obj
 0003:00001110       __encodedKERNEL32Functions 000000018003e110     libcpmt:winapisupp.obj
 0003:00001250       ?id@?$time_put@_WV?$ostreambuf_iterator@_WU?$char_traits@_W@std@@@std@@@std@@2V0locale@2@A 000000018003e250     libcpmt:wlocale.obj
 0003:00001258       ?id@?$num_get@_WV?$istreambuf_iterator@_WU?$char_traits@_W@std@@@std@@@std@@2V0locale@2@A 000000018003e258     libcpmt:wlocale.obj
 0003:00001260       ?id@?$num_put@_WV?$ostreambuf_iterator@_WU?$char_traits@_W@std@@@std@@@std@@2V0locale@2@A 000000018003e260     libcpmt:wlocale.obj
 0003:00001268       ?id@?$numpunct@_W@std@@2V0locale@2@A 000000018003e268     libcpmt:wlocale.obj
 0003:00001270       ?id@?$collate@_W@std@@2V0locale@2@A 000000018003e270     libcpmt:wlocale.obj
 0003:00001278       ?id@?$messages@_W@std@@2V0locale@2@A 000000018003e278     libcpmt:wlocale.obj
 0003:00001280       ?id@?$money_get@_WV?$istreambuf_iterator@_WU?$char_traits@_W@std@@@std@@@std@@2V0locale@2@A 000000018003e280     libcpmt:wlocale.obj
 0003:00001288       ?id@?$money_put@_WV?$ostreambuf_iterator@_WU?$char_traits@_W@std@@@std@@@std@@2V0locale@2@A 000000018003e288     libcpmt:wlocale.obj
 0003:00001290       ?id@?$moneypunct@_W$0A@@std@@2V0locale@2@A 000000018003e290     libcpmt:wlocale.obj
 0003:00001298       ?id@?$moneypunct@_W$00@std@@2V0locale@2@A 000000018003e298     libcpmt:wlocale.obj
 0003:000012a0       ?id@?$time_get@_WV?$istreambuf_iterator@_WU?$char_traits@_W@std@@@std@@@std@@2V0locale@2@A 000000018003e2a0     libcpmt:wlocale.obj
 0003:000012a8       ?id@?$num_get@GV?$istreambuf_iterator@GU?$char_traits@G@std@@@std@@@std@@2V0locale@2@A 000000018003e2a8     libcpmt:wlocale.obj
 0003:000012b0       ?id@?$num_put@GV?$ostreambuf_iterator@GU?$char_traits@G@std@@@std@@@std@@2V0locale@2@A 000000018003e2b0     libcpmt:wlocale.obj
 0003:000012b8       ?id@?$numpunct@G@std@@2V0locale@2@A 000000018003e2b8     libcpmt:wlocale.obj
 0003:000012c0       ?id@?$collate@G@std@@2V0locale@2@A 000000018003e2c0     libcpmt:wlocale.obj
 0003:000012c8       ?id@?$messages@G@std@@2V0locale@2@A 000000018003e2c8     libcpmt:wlocale.obj
 0003:000012d0       ?id@?$money_get@GV?$istreambuf_iterator@GU?$char_traits@G@std@@@std@@@std@@2V0locale@2@A 000000018003e2d0     libcpmt:wlocale.obj
 0003:000012d8       ?id@?$money_put@GV?$ostreambuf_iterator@GU?$char_traits@G@std@@@std@@@std@@2V0locale@2@A 000000018003e2d8     libcpmt:wlocale.obj
 0003:000012e0       ?id@?$moneypunct@G$0A@@std@@2V0locale@2@A 000000018003e2e0     libcpmt:wlocale.obj
 0003:000012e8       ?id@?$moneypunct@G$00@std@@2V0locale@2@A 000000018003e2e8     libcpmt:wlocale.obj
 0003:000012f0       ?id@?$time_get@GV?$istreambuf_iterator@GU?$char_traits@G@std@@@std@@@std@@2V0locale@2@A 000000018003e2f0     libcpmt:wlocale.obj
 0003:000012f8       ?id@?$time_put@GV?$ostreambuf_iterator@GU?$char_traits@G@std@@@std@@@std@@2V0locale@2@A 000000018003e2f8     libcpmt:wlocale.obj
 0003:00001300       ?id@?$collate@D@std@@2V0locale@2@A 000000018003e300     libcpmt:xlocale.obj
 0003:00001308       ?id@?$messages@D@std@@2V0locale@2@A 000000018003e308     libcpmt:xlocale.obj
 0003:00001310       ?id@?$money_get@DV?$istreambuf_iterator@DU?$char_traits@D@std@@@std@@@std@@2V0locale@2@A 000000018003e310     libcpmt:xlocale.obj
 0003:00001318       ?id@?$money_put@DV?$ostreambuf_iterator@DU?$char_traits@D@std@@@std@@@std@@2V0locale@2@A 000000018003e318     libcpmt:xlocale.obj
 0003:00001320       ?id@?$moneypunct@D$0A@@std@@2V0locale@2@A 000000018003e320     libcpmt:xlocale.obj
 0003:00001328       ?id@?$moneypunct@D$00@std@@2V0locale@2@A 000000018003e328     libcpmt:xlocale.obj
 0003:00001330       ?id@?$time_get@DV?$istreambuf_iterator@DU?$char_traits@D@std@@@std@@@std@@2V0locale@2@A 000000018003e330     libcpmt:xlocale.obj
 0003:00001338       ?id@?$time_put@DV?$ostreambuf_iterator@DU?$char_traits@D@std@@@std@@@std@@2V0locale@2@A 000000018003e338     libcpmt:xlocale.obj
 0003:00001388       __scrt_current_native_startup_state 000000018003e388     LIBCMT:utility.obj
 0003:00001390       __scrt_native_startup_lock 000000018003e390     LIBCMT:utility.obj
 0003:00001940       __scrt_debugger_hook_flag  000000018003e940     LIBCMT:utility_desktop.obj
 0003:00001944       _tls_index                 000000018003e944     LIBCMT:tlssup.obj
 0003:00001948       __favor                    000000018003e948     LIBCMT:_cpu_disp_.obj
 0003:00001950       ?__type_info_root_node@@3U__type_info_node@@A 000000018003e950     LIBCMT:tncleanup.obj
 0003:00001960       ?_OptionsStorage@?1??__local_stdio_scanf_options@@9@4_KA 000000018003e960     LIBCMT:default_local_stdio_options.obj
 0003:00001968       ?g_OutOfMemoryExceptionCallback@@3P6APEAXXZEA 000000018003e968     libvcruntime:frame.obj
 0003:000019d8       __pPurecall                000000018003e9d8     libvcruntime:purevirt_data.obj
 0003:00001a88       ?pArgList@UnDecorator@@0PEAVReplicator@@EA 000000018003ea88     libvcruntime:undname.obj
 0003:00001a90       ?pZNameList@UnDecorator@@0PEAVReplicator@@EA 000000018003ea90     libvcruntime:undname.obj
 0003:00001a98       ?pTemplateArgList@UnDecorator@@0PEAVReplicator@@EA 000000018003ea98     libvcruntime:undname.obj
 0003:00001aa0       ?gName@UnDecorator@@0PEBDEB 000000018003eaa0     libvcruntime:undname.obj
 0003:00001aa8       ?name@UnDecorator@@0PEBDEB 000000018003eaa8     libvcruntime:undname.obj
 0003:00001ab0       ?outputString@UnDecorator@@0PEADEA 000000018003eab0     libvcruntime:undname.obj
 0003:00001ab8       ?maxStringLength@UnDecorator@@0HA 000000018003eab8     libvcruntime:undname.obj
 0003:00001abc       ?disableFlags@UnDecorator@@0KA 000000018003eabc     libvcruntime:undname.obj
 0003:00001ac0       ?fExplicitTemplateParams@UnDecorator@@0_NA 000000018003eac0     libvcruntime:undname.obj
 0003:00001ac1       ?fGetTemplateArgumentList@UnDecorator@@0_NA 000000018003eac1     libvcruntime:undname.obj
 0003:00001ac8       ?m_pGetParameter@UnDecorator@@0P6APEADJ@ZEA 000000018003eac8     libvcruntime:undname.obj
 0003:00001b00       __acrt_lconv_static_null   000000018003eb00     libucrt:localeconv.obj
 0003:00001b04       __acrt_lconv_static_W_null 000000018003eb04     libucrt:localeconv.obj
 0003:00001e48       _environ_table             000000018003ee48     libucrt:environment_initialization.obj
 0003:00001e50       _wenviron_table            000000018003ee50     libucrt:environment_initialization.obj
 0003:00001e58       __dcrt_initial_wide_environment 000000018003ee58     libucrt:environment_initialization.obj
 0003:00001e60       __dcrt_initial_narrow_environment 000000018003ee60     libucrt:environment_initialization.obj
 0003:00001e68       __acrt_atexit_table        000000018003ee68     libucrt:onexit.obj
 0003:00001e80       __acrt_at_quick_exit_table 000000018003ee80     libucrt:onexit.obj
 0003:00001eb8       _nstream                   000000018003eeb8     libucrt:_file.obj
 0003:00001ec0       __piob                     000000018003eec0     libucrt:_file.obj
 0003:00001ed0       __acrt_stdout_buffer       000000018003eed0     libucrt:_sftbuf.obj
 0003:00001ed8       __acrt_stderr_buffer       000000018003eed8     libucrt:_sftbuf.obj
 0003:00001ee0       __acrt_locale_changed_data 000000018003eee0     libucrt:wsetlocale.obj
 0003:00001ee8       __acrt_current_locale_data 000000018003eee8     libucrt:nlsdata.obj
 0003:00001ef0       __pioinfo                  000000018003eef0     libucrt:ioinit.obj
 0003:000022f0       _nhandle                   000000018003f2f0     libucrt:ioinit.obj
 0003:000024b0       __acrt_heap                000000018003f4b0     libucrt:heap_handle.obj
 0003:000024b8       __fma3_is_available        000000018003f4b8     libucrt:fma3_available.obj
 0003:000024bc       __use_fma3_lib             000000018003f4bc     libucrt:fma3_available.obj
 0003:000024c0       ?_timezone@@3V?$dual_state_global@J@__crt_state_management@@A 000000018003f4c0     libucrt:timeset.obj
 0003:000024c4       ?_daylight@@3V?$dual_state_global@H@__crt_state_management@@A 000000018003f4c4     libucrt:timeset.obj
 0003:000024c8       ?_dstbias@@3V?$dual_state_global@J@__crt_state_management@@A 000000018003f4c8     libucrt:timeset.obj
 0003:0000259c       __mbcodepage               000000018003f59c     libucrt:mbctype.obj
 0003:000025a0       __ismbcodepage             000000018003f5a0     libucrt:mbctype.obj
 0003:000025a8       __mbulinfo                 000000018003f5a8     libucrt:mbctype.obj
 0003:000025b8       __mblocalename             000000018003f5b8     libucrt:mbctype.obj
 0003:000025c4       __argc                     000000018003f5c4     libucrt:argv_data.obj
 0003:000025c8       __argv                     000000018003f5c8     libucrt:argv_data.obj
 0003:000025d0       __wargv                    000000018003f5d0     libucrt:argv_data.obj
 0003:000025d8       _acmdln                    000000018003f5d8     libucrt:argv_data.obj
 0003:000025e0       _wcmdln                    000000018003f5e0     libucrt:argv_data.obj
 0003:000025e8       _pgmptr                    000000018003f5e8     libucrt:argv_data.obj
 0003:00002600       ?DloadKernel32@@3PEAUHINSTANCE__@@EA 000000018003f600     DelayImp:delayhlp.obj
 0003:00002608       ?DloadAcquireSRWLockExclusive@@3P6AXPEA_K@ZEA 000000018003f608     DelayImp:delayhlp.obj
 0003:00002610       ?DloadReleaseSRWLockExclusive@@3P6AXPEA_K@ZEA 000000018003f610     DelayImp:delayhlp.obj
 0003:00002618       ?DloadSrwLock@@3_KA        000000018003f618     DelayImp:delayhlp.obj
 0003:00002620       ?DloadSectionLockCount@@3KA 000000018003f620     DelayImp:delayhlp.obj
 0003:00002624       ?DloadSectionOldProtection@@3KA 000000018003f624     DelayImp:delayhlp.obj
 0003:00002628       ?DloadSectionCommitPermanent@@3KA 000000018003f628     DelayImp:delayhlp.obj
 0003:00002630       ?_Psave@?$_Facetptr@V?$numpunct@D@std@@@std@@2PEBVfacet@locale@2@EB 000000018003f630     node_printer_win.obj
 0003:00002638       ?_Psave@?$_Facetptr@V?$num_put@DV?$ostreambuf_iterator@DU?$char_traits@D@std@@@std@@@std@@@std@@2PEBVfacet@locale@2@EB 000000018003f638     node_printer_win.obj
 0003:00002640       ?_Psave@?$_Facetptr@V?$ctype@D@std@@@std@@2PEBVfacet@locale@2@EB 000000018003f640     node_printer_win.obj
 0003:00002670       ?id@?$num_put@DV?$ostreambuf_iterator@DU?$char_traits@D@std@@@std@@@std@@2V0locale@2@A 000000018003f670     node_printer_win.obj
 0003:00002680       ?_OptionsStorage@?1??__local_stdio_printf_options@@9@4_KA 000000018003f680     node_printer_win.obj
 0003:00002688       ?id@?$numpunct@D@std@@2V0locale@2@A 000000018003f688     node_printer_win.obj
 0003:00002694       ?$TSS0@?1???$_Immortalize@V_Iostream_error_category@std@@@std@@YAAEAV_Iostream_error_category@1@XZ@4HA 000000018003f694     node_printer_win.obj
 0003:000026a8       ?_Static@?1???$_Immortalize@V_Iostream_error_category@std@@@std@@YAAEAV_Iostream_error_category@1@XZ@4U?$_Immortalizer@V_Iostream_error_category@std@@@1@A 000000018003f6a8     node_printer_win.obj
 0003:000026c8       __dyn_tls_init_callback    000000018003f6c8     <common>
 0003:000026d0       __scrt_ucrt_dll_is_in_use  000000018003f6d0     <common>
 0006:00000000       _tls_start                 0000000180044000     LIBCMT:tlssup.obj
 0006:00000004       _Init_thread_epoch         0000000180044004     LIBCMT:thread_safe_statics.obj
 0006:00000008       _tls_end                   0000000180044008     LIBCMT:tlssup.obj

 entry point at        0001:0000cffc

 Static symbols

 0000:fffb9000       .debug$S                   0000000180000000     kernel32:KERNEL32.dll
 0000:fffb9000       .debug$S                   0000000180000000     kernel32:KERNEL32.dll
 0000:fffb9000       .debug$S                   0000000180000000     kernel32:KERNEL32.dll
 0000:fffb9000       .debug$S                   0000000180000000     kernel32:KERNEL32.dll
 0000:fffb9000       .debug$S                   0000000180000000     kernel32:KERNEL32.dll
 0000:fffb9000       .debug$S                   0000000180000000     kernel32:KERNEL32.dll
 0000:fffb9000       .debug$S                   0000000180000000     kernel32:KERNEL32.dll
 0000:fffb9000       .debug$S                   0000000180000000     kernel32:KERNEL32.dll
 0000:fffb9000       .debug$S                   0000000180000000     kernel32:KERNEL32.dll
 0000:fffb9000       .debug$S                   0000000180000000     kernel32:KERNEL32.dll
 0000:fffb9000       .debug$S                   0000000180000000     kernel32:KERNEL32.dll
 0000:fffb9000       .debug$S                   0000000180000000     kernel32:KERNEL32.dll
 0000:fffb9000       .debug$S                   0000000180000000     kernel32:KERNEL32.dll
 0000:fffb9000       .debug$S                   0000000180000000     kernel32:KERNEL32.dll
 0000:fffb9000       .debug$S                   0000000180000000     kernel32:KERNEL32.dll
 0000:fffb9000       .debug$S                   0000000180000000     kernel32:KERNEL32.dll
 0000:fffb9000       .debug$S                   0000000180000000     kernel32:KERNEL32.dll
 0000:fffb9000       .debug$S                   0000000180000000     kernel32:KERNEL32.dll
 0000:fffb9000       .debug$S                   0000000180000000     node_printer.exp
 0000:fffb9000       .debug$S                   0000000180000000     kernel32:KERNEL32.dll
 0000:fffb9000       .debug$S                   0000000180000000     kernel32:KERNEL32.dll
 0000:fffb9000       .debug$S                   0000000180000000     kernel32:KERNEL32.dll
 0000:fffb9000       .debug$S                   0000000180000000     kernel32:KERNEL32.dll
 0000:fffb9000       .debug$S                   0000000180000000     kernel32:KERNEL32.dll
 0000:fffb9000       .debug$S                   0000000180000000     kernel32:KERNEL32.dll
 0000:fffb9000       .debug$S                   0000000180000000     kernel32:KERNEL32.dll
 0000:fffb9000       .debug$S                   0000000180000000     kernel32:KERNEL32.dll
 0000:fffb9000       .debug$S                   0000000180000000     kernel32:KERNEL32.dll
 0000:fffb9000       .debug$S                   0000000180000000     kernel32:KERNEL32.dll
 0000:fffb9000       .debug$S                   0000000180000000     kernel32:KERNEL32.dll
 0000:fffb9000       .debug$S                   0000000180000000     kernel32:KERNEL32.dll
 0000:fffb9000       .debug$S                   0000000180000000     kernel32:KERNEL32.dll
 0000:fffb9000       .debug$S                   0000000180000000     kernel32:KERNEL32.dll
 0000:fffb9000       .debug$S                   0000000180000000     kernel32:KERNEL32.dll
 0000:fffb9000       .debug$S                   0000000180000000     kernel32:KERNEL32.dll
 0000:fffb9000       .debug$S                   0000000180000000     kernel32:KERNEL32.dll
 0000:fffb9000       .debug$S                   0000000180000000     kernel32:KERNEL32.dll
 0000:fffb9000       .debug$S                   0000000180000000     kernel32:KERNEL32.dll
 0000:fffb9000       .debug$S                   0000000180000000     kernel32:KERNEL32.dll
 0000:fffb9000       .debug$S                   0000000180000000     kernel32:KERNEL32.dll
 0000:fffb9000       .debug$S                   0000000180000000     kernel32:KERNEL32.dll
 0000:fffb9000       .debug$S                   0000000180000000     kernel32:KERNEL32.dll
 0000:fffb9000       .debug$S                   0000000180000000     kernel32:KERNEL32.dll
 0000:fffb9000       .debug$S                   0000000180000000     kernel32:KERNEL32.dll
 0000:fffb9000       .debug$S                   0000000180000000     kernel32:KERNEL32.dll
 0000:fffb9000       .debug$S                   0000000180000000     kernel32:KERNEL32.dll
 0000:fffb9000       .debug$S                   0000000180000000     kernel32:KERNEL32.dll
 0000:fffb9000       .debug$S                   0000000180000000     kernel32:KERNEL32.dll
 0000:fffb9000       .debug$S                   0000000180000000     kernel32:KERNEL32.dll
 0000:fffb9000       .debug$S                   0000000180000000     kernel32:KERNEL32.dll
 0000:fffb9000       .debug$S                   0000000180000000     kernel32:KERNEL32.dll
 0000:fffb9000       .debug$S                   0000000180000000     kernel32:KERNEL32.dll
 0000:fffb9000       .debug$S                   0000000180000000     kernel32:KERNEL32.dll
 0000:fffb9000       .debug$S                   0000000180000000     kernel32:KERNEL32.dll
 0000:fffb9000       .debug$S                   0000000180000000     kernel32:KERNEL32.dll
 0000:fffb9000       .debug$S                   0000000180000000     kernel32:KERNEL32.dll
 0000:fffb9000       .debug$S                   0000000180000000     kernel32:KERNEL32.dll
 0000:fffb9000       .debug$S                   0000000180000000     node:node.exe
 0000:fffb9000       .debug$S                   0000000180000000     node:node.exe
 0000:fffb9000       .debug$S                   0000000180000000     node:node.exe
 0000:fffb9000       .debug$S                   0000000180000000     node:node.exe
 0000:fffb9000       .debug$S                   0000000180000000     node:node.exe
 0000:fffb9000       .debug$S                   0000000180000000     node:node.exe
 0000:fffb9000       .debug$S                   0000000180000000     kernel32:KERNEL32.dll
 0000:fffb9000       .debug$S                   0000000180000000     node:node.exe
 0000:fffb9000       .debug$S                   0000000180000000     node:node.exe
 0000:fffb9000       .debug$S                   0000000180000000     kernel32:KERNEL32.dll
 0000:fffb9000       .debug$S                   0000000180000000     node:node.exe
 0000:fffb9000       .debug$S                   0000000180000000     kernel32:KERNEL32.dll
 0000:fffb9000       .debug$S                   0000000180000000     node:node.exe
 0000:fffb9000       .debug$S                   0000000180000000     node:node.exe
 0000:fffb9000       .debug$S                   0000000180000000     node:node.exe
 0000:fffb9000       .debug$S                   0000000180000000     node:node.exe
 0000:fffb9000       .debug$S                   0000000180000000     node:node.exe
 0000:fffb9000       .debug$S                   0000000180000000     node:node.exe
 0000:fffb9000       .debug$S                   0000000180000000     kernel32:KERNEL32.dll
 0000:fffb9000       .debug$S                   0000000180000000     node:node.exe
 0000:fffb9000       .debug$S                   0000000180000000     node:node.exe
 0000:fffb9000       .debug$S                   0000000180000000     node:node.exe
 0000:fffb9000       .debug$S                   0000000180000000     node:node.exe
 0000:fffb9000       .debug$S                   0000000180000000     node:node.exe
 0000:fffb9000       .debug$S                   0000000180000000     node:node.exe
 0000:fffb9000       .debug$S                   0000000180000000     node:node.exe
 0000:fffb9000       .debug$S                   0000000180000000     node:node.exe
 0000:fffb9000       .debug$S                   0000000180000000     node:node.exe
 0000:fffb9000       .debug$S                   0000000180000000     kernel32:KERNEL32.dll
 0000:fffb9000       .debug$S                   0000000180000000     node:node.exe
 0000:fffb9000       .debug$S                   0000000180000000     node:node.exe
 0000:fffb9000       .debug$S                   0000000180000000     node:node.exe
 0000:fffb9000       .debug$S                   0000000180000000     node:node.exe
 0000:fffb9000       .debug$S                   0000000180000000     node:node.exe
 0000:fffb9000       .debug$S                   0000000180000000     node:node.exe
 0000:fffb9000       .debug$S                   0000000180000000     node:node.exe
 0000:fffb9000       .debug$S                   0000000180000000     kernel32:KERNEL32.dll
 0000:fffb9000       .debug$S                   0000000180000000     node:node.exe
 0000:fffb9000       .debug$S                   0000000180000000     node:node.exe
 0000:fffb9000       .debug$S                   0000000180000000     kernel32:KERNEL32.dll
 0000:fffb9000       .debug$S                   0000000180000000     kernel32:KERNEL32.dll
 0000:fffb9000       .debug$S                   0000000180000000     kernel32:KERNEL32.dll
 0000:fffb9000       .debug$S                   0000000180000000     kernel32:KERNEL32.dll
 0000:fffb9000       .debug$S                   0000000180000000     kernel32:KERNEL32.dll
 0000:fffb9000       .debug$S                   0000000180000000     kernel32:KERNEL32.dll
 0000:fffb9000       .debug$S                   0000000180000000     winspool:WINSPOOL.DRV
 0000:fffb9000       .debug$S                   0000000180000000     winspool:WINSPOOL.DRV
 0000:fffb9000       .debug$S                   0000000180000000     winspool:WINSPOOL.DRV
 0000:fffb9000       .debug$S                   0000000180000000     kernel32:KERNEL32.dll
 0000:fffb9000       .debug$S                   0000000180000000     winspool:WINSPOOL.DRV
 0000:fffb9000       .debug$S                   0000000180000000     kernel32:KERNEL32.dll
 0000:fffb9000       .debug$S                   0000000180000000     winspool:WINSPOOL.DRV
 0000:fffb9000       .debug$S                   0000000180000000     winspool:WINSPOOL.DRV
 0000:fffb9000       .debug$S                   0000000180000000     winspool:WINSPOOL.DRV
 0000:fffb9000       .debug$S                   0000000180000000     winspool:WINSPOOL.DRV
 0000:fffb9000       .debug$S                   0000000180000000     winspool:WINSPOOL.DRV
 0000:fffb9000       .debug$S                   0000000180000000     winspool:WINSPOOL.DRV
 0000:fffb9000       .debug$S                   0000000180000000     winspool:WINSPOOL.DRV
 0000:fffb9000       .debug$S                   0000000180000000     winspool:WINSPOOL.DRV
 0000:fffb9000       .debug$S                   0000000180000000     winspool:WINSPOOL.DRV
 0000:fffb9000       .debug$S                   0000000180000000     winspool:WINSPOOL.DRV
 0000:fffb9000       .debug$S                   0000000180000000     winspool:WINSPOOL.DRV
 0000:fffb9000       .debug$S                   0000000180000000     kernel32:KERNEL32.dll
 0000:fffb9000       .debug$S                   0000000180000000     kernel32:KERNEL32.dll
 0000:fffb9000       .debug$S                   0000000180000000     kernel32:KERNEL32.dll
 0000:fffb9000       .debug$S                   0000000180000000     kernel32:KERNEL32.dll
 0000:fffb9000       .debug$S                   0000000180000000     kernel32:KERNEL32.dll
 0000:fffb9000       .debug$S                   0000000180000000     kernel32:KERNEL32.dll
 0000:fffb9000       .debug$S                   0000000180000000     kernel32:KERNEL32.dll
 0000:fffb9000       .debug$S                   0000000180000000     kernel32:KERNEL32.dll
 0000:fffb9000       .debug$S                   0000000180000000     kernel32:KERNEL32.dll
 0000:fffb9000       .debug$S                   0000000180000000     kernel32:KERNEL32.dll
 0000:fffb9000       .debug$S                   0000000180000000     kernel32:KERNEL32.dll
 0000:fffb9000       .debug$S                   0000000180000000     kernel32:KERNEL32.dll
 0000:fffb9000       .debug$S                   0000000180000000     kernel32:KERNEL32.dll
 0000:fffb9000       .debug$S                   0000000180000000     kernel32:KERNEL32.dll
 0000:fffb9000       .debug$S                   0000000180000000     kernel32:KERNEL32.dll
 0000:fffb9000       .debug$S                   0000000180000000     kernel32:KERNEL32.dll
 0000:fffb9000       .debug$S                   0000000180000000     kernel32:KERNEL32.dll
 0000:fffb9000       .debug$S                   0000000180000000     kernel32:KERNEL32.dll
 0000:fffb9000       .debug$S                   0000000180000000     kernel32:KERNEL32.dll
 0000:fffb9000       .debug$S                   0000000180000000     kernel32:KERNEL32.dll
 0000:fffb9000       .debug$S                   0000000180000000     kernel32:KERNEL32.dll
 0000:fffb9000       .debug$S                   0000000180000000     kernel32:KERNEL32.dll
 0000:fffb9000       .debug$S                   0000000180000000     kernel32:KERNEL32.dll
 0000:fffb9000       .debug$S                   0000000180000000     kernel32:KERNEL32.dll
 0000:fffb9000       .debug$S                   0000000180000000     kernel32:KERNEL32.dll
 0000:fffb9000       .debug$S                   0000000180000000     kernel32:KERNEL32.dll
 0000:fffb9000       .debug$S                   0000000180000000     kernel32:KERNEL32.dll
 0000:fffb9000       .debug$S                   0000000180000000     kernel32:KERNEL32.dll
 0000:fffb9000       .debug$S                   0000000180000000     kernel32:KERNEL32.dll
 0000:fffb9000       .debug$S                   0000000180000000     kernel32:KERNEL32.dll
 0000:fffb9000       .debug$S                   0000000180000000     kernel32:KERNEL32.dll
 0000:fffb9000       .debug$S                   0000000180000000     kernel32:KERNEL32.dll
 0001:00000000       ??__Einitlocks@std@@YAXXZ  0000000180001000 f   libcpmt:xlock.obj
 0001:00000020       ??__E_Fac_tidy_reg@std@@YAXXZ 0000000180001020 f   libcpmt:locale0.obj
 0001:0000002c       ??__Eclassic_locale@std@@YAXXZ 000000018000102c f   libcpmt:locale0.obj
 0001:00000038       ??__Einit_atexit@@YAXXZ    0000000180001038 f   libcpmt:iosptrs.obj
 0001:00000044       ??__Einitlocks@std@@YAXXZ  0000000180001044 f   libcpmt:iosptrs.obj
 0001:00000240       _register_node_printer     0000000180001240 f   node_printer.obj
 0001:000014a0       ?getStatusMap@?A0xcb87c0d3@@YAAEBV?$map@V?$basic_string@DU?$char_traits@D@std@@V?$allocator@D@2@@std@@KU?$less@V?$basic_string@DU?$char_traits@D@std@@V?$allocator@D@2@@std@@@2@V?$allocator@U?$pair@$$CBV?$basic_string@DU?$char_traits@D@std@@V?$allocator@D@2@@std@@K@std@@@2@@std@@XZ 00000001800024a0 f   node_printer_win.obj
 0001:00001b40       ?getJobStatusMap@?A0xcb87c0d3@@YAAEBV?$map@V?$basic_string@DU?$char_traits@D@std@@V?$allocator@D@2@@std@@KU?$less@V?$basic_string@DU?$char_traits@D@std@@V?$allocator@D@2@@std@@@2@V?$allocator@U?$pair@$$CBV?$basic_string@DU?$char_traits@D@std@@V?$allocator@D@2@@std@@K@std@@@2@@std@@XZ 0000000180002b40 f   node_printer_win.obj
 0001:00002020       ?getAttributeMap@?A0xcb87c0d3@@YAAEBV?$map@V?$basic_string@DU?$char_traits@D@std@@V?$allocator@D@2@@std@@KU?$less@V?$basic_string@DU?$char_traits@D@std@@V?$allocator@D@2@@std@@@2@V?$allocator@U?$pair@$$CBV?$basic_string@DU?$char_traits@D@std@@V?$allocator@D@2@@std@@K@std@@@2@@std@@XZ 0000000180003020 f   node_printer_win.obj
 0001:00002500       ?getJobCommandMap@?A0xcb87c0d3@@YAAEBV?$map@V?$basic_string@DU?$char_traits@D@std@@V?$allocator@D@2@@std@@KU?$less@V?$basic_string@DU?$char_traits@D@std@@V?$allocator@D@2@@std@@@2@V?$allocator@U?$pair@$$CBV?$basic_string@DU?$char_traits@D@std@@V?$allocator@D@2@@std@@K@std@@@2@@std@@XZ 0000000180003500 f   node_printer_win.obj
 0001:00002900       ?parseJobObject@?A0xcb87c0d3@@YAXPEAU_JOB_INFO_2W@@V?$Local@VObject@v8@@@v8@@@Z 0000000180003900 f   node_printer_win.obj
 0001:00003080       ?getLastErrorCodeAndMessage@?A0xcb87c0d3@@YA?AV?$basic_string@DU?$char_traits@D@std@@V?$allocator@D@2@@std@@XZ 0000000180004080 f   node_printer_win.obj
 0001:00003290       ?retrieveAndParseJobs@?A0xcb87c0d3@@YA?AV?$basic_string@DU?$char_traits@D@std@@V?$allocator@D@2@@std@@QEA_WAEBKV?$Local@VObject@v8@@@v8@@AEAUPrinterHandle@1@@Z 0000000180004290 f   node_printer_win.obj
 0001:00003600       ?parsePrinterInfo@?A0xcb87c0d3@@YA?AV?$basic_string@DU?$char_traits@D@std@@V?$allocator@D@2@@std@@PEBU_PRINTER_INFO_2W@@V?$Local@VObject@v8@@@v8@@AEAUPrinterHandle@1@@Z 0000000180004600 f   node_printer_win.obj
 0001:000068c0       no_op_initialize           00000001800078c0 f i libucrt:wsetlocale.obj
 0001:0000abc0       ?load_exe_hook@@YAP6A_JXZIPEAUDelayLoadInfo@@@Z 000000018000bbc0 f   win_delay_load_hook.obj
 0001:0000b618       tidy_global                000000018000c618 f   libcpmt:locale0.obj
 0001:0000be4c       ?initialize_pointers@@YAHXZ 000000018000ce4c f   libcpmt:winapisupp.obj
 0001:0000c550       $$000000                   000000018000d550     LIBCMT:_amdsecgs_.obj
 0001:0000c5d0       ?__scrt_initialize_thread_safe_statics@@YAHXZ 000000018000d5d0 f   LIBCMT:thread_safe_statics.obj
 0001:0000c6f0       ?__scrt_uninitialize_thread_safe_statics@@YAXXZ 000000018000d6f0 f   LIBCMT:thread_safe_statics.obj
 0001:0000ccb0       ?dllmain_crt_dispatch@@YAHQEAUHINSTANCE__@@KQEAX@Z 000000018000dcb0 f   LIBCMT:dll_dllmain.obj
 0001:0000cd00       ?dllmain_crt_process_attach@@YAHQEAUHINSTANCE__@@QEAX@Z 000000018000dd00 f   LIBCMT:dll_dllmain.obj
 0001:0000ce2c       ?dllmain_crt_process_detach@@YAH_N@Z 000000018000de2c f   LIBCMT:dll_dllmain.obj
 0001:0000ceb0       ?dllmain_dispatch@@YAHQEAUHINSTANCE__@@KQEAX@Z 000000018000deb0 f   LIBCMT:dll_dllmain.obj
 0001:0000cfa8       ?dllmain_raw@@YAHQEAUHINSTANCE__@@KQEAX@Z 000000018000dfa8 f   LIBCMT:dll_dllmain.obj
 0001:0000d0f0       $$000000                   000000018000e0f0     LIBCMT:_chkstk_.obj
 0001:0000d30c       capture_current_context    000000018000e30c f   LIBCMT:gs_report.obj
 0001:0000d37c       capture_previous_context   000000018000e37c f   LIBCMT:gs_report.obj
 0001:0000d930       $$000000                   000000018000e930     libvcruntime:memcpy.obj
 0001:0000d9d7       MoveSmall                  000000018000e9d7     libvcruntime:memcpy.obj
 0001:0000e040       ?CatchIt@@YAXPEAUEHExceptionRecord@@PEA_KPEAU_CONTEXT@@PEAU_xDISPATCHER_CONTEXT@@PEBU_s_FuncInfo@@PEBU_s_HandlerType@@PEBU_s_CatchableType@@PEBU_s_TryBlockMapEntry@@H1EE@Z 000000018000f040 f   libvcruntime:frame.obj
 0001:0000e104       ?ExFilterRethrow@@YAHPEAU_EXCEPTION_POINTERS@@PEAUEHExceptionRecord@@PEAH@Z 000000018000f104 f   libvcruntime:frame.obj
 0001:0000e18c       ?FindHandler@@YAXPEAUEHExceptionRecord@@PEA_KPEAU_CONTEXT@@PEAU_xDISPATCHER_CONTEXT@@PEBU_s_FuncInfo@@EH1@Z 000000018000f18c f   libvcruntime:frame.obj
 0001:0000e65c       ?FindHandlerForForeignException@@YAXPEAUEHExceptionRecord@@PEA_KPEAU_CONTEXT@@PEAU_xDISPATCHER_CONTEXT@@PEBU_s_FuncInfo@@HH1@Z 000000018000f65c f   libvcruntime:frame.obj
 0001:0000e8c8       ?IsInExceptionSpec@@YAEPEAUEHExceptionRecord@@PEBU_s_ESTypeList@@@Z 000000018000f8c8 f   libvcruntime:frame.obj
 0001:0000fab0       $$000000                   0000000180010ab0     libvcruntime:memset.obj
 0001:0000fb9c       MsetTab                    0000000180010b9c     libvcruntime:memset.obj
 0001:0000fc60       $$000000                   0000000180010c60     libvcruntime:memcmp.obj
 0001:0000fd38       ?try_get_function@@YAPEAXW4function_id@?A0x679b24ab@@QEBDQEBW4module_id@2@2@Z 0000000180010d38 f   libvcruntime:winapi_downlevel.obj
 0001:00010720       $$000000                   0000000180011720     libvcruntime:handlers.obj
 0001:00010770       $$000000                   0000000180011770     libvcruntime:_jmpuwind_.obj
 0001:00010c08       ??$common_vsprintf@Vformat_validation_base@__crt_stdio_output@@D@@YAH_KQEAD0QEBDQEAU__crt_locale_pointers@@1@Z 0000000180011c08 f   libucrt:output.obj
 0001:000124d8       call_wsetlocale            00000001800134d8 f   libucrt:setlocale.obj
 0001:00013154       ?x_ismbbtype_l@@YAHPEAU__crt_locale_pointers@@IHH@Z 0000000180014154 f   libucrt:ismbbyte.obj
 0001:000137b0       memcpy_s                   00000001800147b0 f   libucrt:cfout.obj
 0001:000137b0       memcpy_s                   00000001800147b0 f   libucrt:strtod.obj
 0001:00013840       $$000000                   0000000180014840     libucrt:pow.obj
 0001:00014ee0       $$000000                   0000000180015ee0     libucrt:powf.obj
 0001:00015e00       ?internal_isupper_l@@YA_NHQEAU__crt_locale_pointers@@@Z 0000000180016e00 f   libucrt:tolower_toupper.obj
 0001:00016590       ?atexit_exception_filter@@YAHK@Z 0000000180017590 f   libucrt:exit.obj
 0001:0001659c       ?common_exit@@YAXHW4_crt_exit_cleanup_mode@@W4_crt_exit_return_mode@@@Z 000000018001759c f   libucrt:exit.obj
 0001:00016708       ?exit_or_terminate_process@@YAXI@Z 0000000180017708 f   libucrt:exit.obj
 0001:00016754       ?try_cor_exit_process@@YAXI@Z 0000000180017754 f   libucrt:exit.obj
 0001:000167ec       ??$parse_command_line@D@@YAXPEADPEAPEAD0PEA_K2@Z 00000001800177ec f   libucrt:argv_parsing.obj
 0001:00016b84       ??$common_initialize_environment_nolock@D@@YAHXZ 0000000180017b84 f   libucrt:environment_initialization.obj
 0001:00016bf0       ??$create_environment@D@@YAQEAPEADQEAD@Z 0000000180017bf0 f   libucrt:environment_initialization.obj
 0001:00016cec       ??$free_environment@D@@YAXQEAPEAD@Z 0000000180017cec f   libucrt:environment_initialization.obj
 0001:00016cec       ??$free_environment@_W@@YAXQEAPEA_W@Z 0000000180017cec f   libucrt:environment_initialization.obj
 0001:00016d30       ??$uninitialize_environment_internal@D@@YAXAEAPEAPEAD@Z 0000000180017d30 f   libucrt:environment_initialization.obj
 0001:00016d4c       ??$uninitialize_environment_internal@_W@@YAXAEAPEAPEA_W@Z 0000000180017d4c f   libucrt:environment_initialization.obj
 0001:00016f84       ??R<lambda_4e60a939b0d047cfe11ddc22648dfba9>@@QEBAHXZ 0000000180017f84 f   libucrt:onexit.obj
 0001:00017234       initialize_global_variables 0000000180018234 f   libucrt:initialization.obj
 0001:00017248       initialize_c               0000000180018248 f   libucrt:initialization.obj
 0001:0001726c       uninitialize_environment   000000018001826c f   libucrt:initialization.obj
 0001:0001727c       uninitialize_global_state_isolation 000000018001827c f   libucrt:initialization.obj
 0001:0001727c       initialize_environment     000000018001827c f   libucrt:initialization.obj
 0001:0001727c       initialize_global_state_isolation 000000018001827c f   libucrt:initialization.obj
 0001:0001727c       uninitialize_c             000000018001827c f   libucrt:initialization.obj
 0001:0001727c       report_memory_leaks        000000018001827c f   libucrt:initialization.obj
 0001:00017280       initialize_pointers        0000000180018280 f   libucrt:initialization.obj
 0001:000172d4       uninitialize_vcruntime     00000001800182d4 f   libucrt:initialization.obj
 0001:000172dc       uninitialize_allocated_memory 00000001800182dc f   libucrt:initialization.obj
 0001:0001807c       ?construct_ptd_array@@YAXQEAU__acrt_ptd@@@Z 000000018001907c f   libucrt:per_thread_data.obj
 0001:0001814c       ?destroy_fls@@YAXPEAX@Z    000000018001914c f   libucrt:per_thread_data.obj
 0001:0001816c       ?destroy_ptd_array@@YAXQEAU__acrt_ptd@@@Z 000000018001916c f   libucrt:per_thread_data.obj
 0001:00018264       ?replace_current_thread_locale_nolock@@YAXQEAU__acrt_ptd@@QEAU__crt_locale_data@@@Z 0000000180019264 f   libucrt:per_thread_data.obj
 0001:00018bc0       ?fp_format_a@@YAHQEBNPEAD_KQEAD2H_NIQEAU__crt_locale_pointers@@@Z 0000000180019bc0 f   libucrt:cvt.obj
 0001:00018f20       ?fp_format_e@@YAHQEBNQEAD_K12H_NIQEAU__crt_locale_pointers@@@Z 0000000180019f20 f   libucrt:cvt.obj
 0001:00018ff0       ?fp_format_e_internal@@YAHQEAD_KH_NIQEAU_strflt@@2QEAU__crt_locale_pointers@@@Z 0000000180019ff0 f   libucrt:cvt.obj
 0001:000191cc       ?fp_format_f_internal@@YAHQEAD_KHQEAU_strflt@@_NQEAU__crt_locale_pointers@@@Z 000000018001a1cc f   libucrt:cvt.obj
 0001:00019314       ?fp_format_g@@YAHQEBNQEAD_K12H_NIQEAU__crt_locale_pointers@@@Z 000000018001a314 f   libucrt:cvt.obj
 0001:0001944c       ?fp_format_nan_or_infinity@@YAHW4__acrt_fp_class@@_NPEAD_K1@Z 000000018001a44c f   libucrt:cvt.obj
 0001:00019b10       ??R<lambda_2af78c5f5901b1372d98f9ab3177dfa6>@@QEBAXXZ 000000018001ab10 f   libucrt:wsetlocale.obj
 0001:00019ed4       _copytlocinfo_nolock       000000018001aed4 f   libucrt:wsetlocale.obj
 0001:0001a494       _wsetlocale_get_all        000000018001b494 f   libucrt:wsetlocale.obj
 0001:0001a67c       _wsetlocale_nolock         000000018001b67c f   libucrt:wsetlocale.obj
 0001:0001a904       _wsetlocale_set_cat        000000018001b904 f   libucrt:wsetlocale.obj
 0001:0001ac44       ?initialize_inherited_file_handles_nolock@@YAXXZ 000000018001bc44 f   libucrt:ioinit.obj
 0001:0001ad30       ?initialize_stdio_handles_nolock@@YAXXZ 000000018001bd30 f   libucrt:ioinit.obj
 0001:0001b938       ?<helper_func_cdecl>@<lambda_e2bb8337c48846e80c921ea5ddadc92d>@@CAHPEA_W@Z 000000018001c938 f   libucrt:winapi_thunks.obj
 0001:0001ba14       ?try_get_function@@YAPEAXW4function_id@?A0x63058377@@QEBDQEBW4module_id@2@2@Z 000000018001ca14 f   libucrt:winapi_thunks.obj
 0001:0001c2d0       ?_mbstowcs_l_helper@@YA_KPEA_WPEBD_KPEAU__crt_locale_pointers@@@Z 000000018001d2d0 f   libucrt:mbstowcs.obj
 0001:0001c5fc       ?_wcstombs_l_helper@@YA_KPEADPEB_W_KPEAU__crt_locale_pointers@@@Z 000000018001d5fc f   libucrt:wcstombs.obj
 0001:0001cb5c       ?InternalGetLocaleInfoA@@YAHQEAU__crt_locale_pointers@@QEB_WKQEADH@Z 000000018001db5c f   libucrt:getlocaleinfoa.obj
 0001:0001d078       ?__acrt_LCMapStringA_stat@@YAHPEAU__crt_locale_pointers@@PEB_WKPEBDHPEADHHH@Z 000000018001e078 f   libucrt:lcmapstringa.obj
 0001:0001d9e8       ?<helper_func_cdecl>@<lambda_2feae5270eb4d0d5532525f423405775>@@CAHPEBX0@Z 000000018001e9e8 f   libucrt:argv_wildcards.obj
 0001:0001d9fc       ??$common_expand_argv_wildcards@D@@YAHQEAPEADQEAPEAPEAD@Z 000000018001e9fc f   libucrt:argv_wildcards.obj
 0001:0001dc08       ??$copy_and_add_argument_to_buffer@D@@YAHQEBD0_KAEAV?$argument_list@D@?A0xca0879c4@@@Z 000000018001ec08 f   libucrt:argv_wildcards.obj
 0001:0001dd18       ??$expand_argument_wildcards@D@@YAHQEAD0AEAV?$argument_list@D@?A0xca0879c4@@@Z 000000018001ed18 f   libucrt:argv_wildcards.obj
 0001:0001dfcc       ??R<lambda_ad1ced32f4ac17aa236e5ef05d6b3b7c>@@QEBAXXZ 000000018001efcc f   libucrt:mbctype.obj
 0001:0001e1e4       ?getSystemCP@@YAHH@Z       000000018001f1e4 f   libucrt:mbctype.obj
 0001:0001e264       ?setSBCS@@YAXPEAU__crt_multibyte_data@@@Z 000000018001f264 f   libucrt:mbctype.obj
 0001:0001e2f4       ?setSBUpLow@@YAXPEAU__crt_multibyte_data@@@Z 000000018001f2f4 f   libucrt:mbctype.obj
 0001:0001e4d8       ?setmbcp_internal@@YAHH_N@Z 000000018001f4d8 f   libucrt:mbctype.obj
 0001:000206fc       common_flush_all           00000001800216fc f   libucrt:fflush.obj
 0001:00021210       ?free_crt_array_internal@@YAXQEAPEBX_K@Z 0000000180022210 f   libucrt:inittime.obj
 0001:00021268       ?initialize_lc_time@@YA_NQEAU__crt_lc_time_data@@QEAU__crt_locale_data@@@Z 0000000180022268 f   libucrt:inittime.obj
 0001:00021958       GetLocaleNameFromDefault   0000000180022958 f   libucrt:get_qualified_locale.obj
 0001:00021a00       GetLocaleNameFromLangCountry 0000000180022a00 f   libucrt:get_qualified_locale.obj
 0001:00021ad0       GetLocaleNameFromLanguage  0000000180022ad0 f   libucrt:get_qualified_locale.obj
 0001:00021b6c       LangCountryEnumProcEx      0000000180022b6c f   libucrt:get_qualified_locale.obj
 0001:00021f20       LanguageEnumProcEx         0000000180022f20 f   libucrt:get_qualified_locale.obj
 0001:0002200c       ProcessCodePage            000000018002300c f   libucrt:get_qualified_locale.obj
 0001:000220c0       TestDefaultCountry         00000001800230c0 f   libucrt:get_qualified_locale.obj
 0001:00022128       TranslateName              0000000180023128 f   libucrt:get_qualified_locale.obj
 0001:000223e4       CountryEnumProc            00000001800233e4 f   libucrt:getqloc_downlevel.obj
 0001:000224d0       GetLcidFromLangCountry     00000001800234d0 f   libucrt:getqloc_downlevel.obj
 0001:000225a0       GetLcidFromLanguage        00000001800235a0 f   libucrt:getqloc_downlevel.obj
 0001:00022638       LangCountryEnumProc        0000000180023638 f   libucrt:getqloc_downlevel.obj
 0001:0002287c       LanguageEnumProc           000000018002387c f   libucrt:getqloc_downlevel.obj
 0001:00022978       LcidFromHexString          0000000180023978 f   libucrt:getqloc_downlevel.obj
 0001:000229c8       ProcessCodePage            00000001800239c8 f   libucrt:getqloc_downlevel.obj
 0001:00022a78       TestDefaultLanguage        0000000180023a78 f   libucrt:getqloc_downlevel.obj
 0001:00022b24       TranslateName              0000000180023b24 f   libucrt:getqloc_downlevel.obj
 0001:00023160       $$000000                   0000000180024160     libucrt:fpsr.obj
 0001:000231c0       ?GetTableIndexFromLocaleName@@YAHPEB_W@Z 00000001800241c0 f   libucrt:lcidtoname_downlevel.obj
 0001:000234fc       _call_matherr              00000001800244fc f   libucrt:libm_error.obj
 0001:00023564       _exception_enabled         0000000180024564 f   libucrt:libm_error.obj
 0001:00023970       ?shortsort@@YAXPEAD0_KP6AHPEBX2@Z@Z 0000000180024970 f   libucrt:qsort.obj
 0001:00023eb4       ?initialize_multibyte@@YAHXZ 0000000180024eb4 f   libucrt:multibyte_initializer.obj
 0001:00024090       $$000000                   0000000180025090     libucrt:log10.obj
 0001:0002463c       ?write_double_translated_ansi_nolock@@YA?AUwrite_result@?A0x9c548279@@HQEBDI@Z 000000018002563c f   libucrt:write.obj
 0001:00024844       ?write_text_ansi_nolock@@YA?AUwrite_result@?A0x9c548279@@HQEBDI@Z 0000000180025844 f   libucrt:write.obj
 0001:0002494c       ?write_text_utf16le_nolock@@YA?AUwrite_result@?A0x9c548279@@HQEBDI@Z 000000018002594c f   libucrt:write.obj
 0001:00024a68       ?write_text_utf8_nolock@@YA?AUwrite_result@?A0x9c548279@@HQEBDI@Z 0000000180025a68 f   libucrt:write.obj
 0001:00024fac       ??$common_lseek_nolock@_J@@YA_JH_JH@Z 0000000180025fac f   libucrt:lseek.obj
 0001:00025260       ??$common_xtox@K_W@@YAHKQEA_W_KI_N@Z 0000000180026260 f   libucrt:xtoa.obj
 0001:0002530c       ??$common_xtox_s@K_W@@YAHKQEA_W_KI_N@Z 000000018002630c f   libucrt:xtoa.obj
 0001:00025644       common_control87           0000000180026644 f   libucrt:ieee.obj
 0001:00025990       _log_special_common        0000000180026990 f   libucrt:log_special.obj
 0001:00026670       $$000000                   0000000180027670     LIBCMT:_guard_dispatch_.obj
 0001:00026690       ?dtor$0@?0??_Locimp_dtor@_Locimp@locale@std@@CAXPEAV123@@Z@4HA 0000000180027690 f   libcpmt:locale0.obj
 0001:00026690       ?dtor$0@?0??_Init@locale@std@@CAPEAV_Locimp@12@_N@Z@4HA 0000000180027690 f   libcpmt:locale0.obj
 0001:0002669c       __scrt_is_nonwritable_in_current_image$filt$0 000000018002769c f   LIBCMT:utility.obj
 0001:000266b4       ?fin$0@?0??dllmain_crt_process_attach@@YAHQEAUHINSTANCE__@@QEAX@Z@4HA 00000001800276b4 f   LIBCMT:dll_dllmain.obj
 0001:000266cb       ?fin$0@?0??dllmain_crt_process_detach@@YAH_N@Z@4HA 00000001800276cb f   LIBCMT:dll_dllmain.obj
 0001:000266e7       ?filt$0@?0??dllmain_dispatch@@YAHQEAUHINSTANCE__@@KQEAX@Z@4HA 00000001800276e7 f   LIBCMT:dll_dllmain.obj
 0001:0002671d       __CxxCallCatchBlock$filt$0 000000018002771d f   libvcruntime:frame.obj
 0001:00026742       __CxxCallCatchBlock$fin$1  0000000180027742 f   libvcruntime:frame.obj
 0001:000267ba       __DestructExceptionObject$filt$0 00000001800277ba f   libvcruntime:frame.obj
 0001:000267d2       __FrameUnwindToState$filt$0 00000001800277d2 f   libvcruntime:frame.obj
 0001:000267e8       __FrameUnwindToState$fin$1 00000001800277e8 f   libvcruntime:frame.obj
 0001:0002680b       _CallSETranslator$filt$0   000000018002780b f   libvcruntime:trnsctrl.obj
 0001:00026857       setlocale$fin$0            0000000180027857 f   libucrt:setlocale.obj
 0001:00026872       _query_new_handler$fin$0   0000000180027872 f   libucrt:new_handler.obj
 0001:00026888       ?filt$0@?0??common_exit@@YAXHW4_crt_exit_cleanup_mode@@W4_crt_exit_return_mode@@@Z@4HA 0000000180027888 f   libucrt:exit.obj
 0001:000268a3       ?fin$1@?0??common_exit@@YAXHW4_crt_exit_cleanup_mode@@W4_crt_exit_return_mode@@@Z@4HA 00000001800278a3 f   libucrt:exit.obj
 0001:000268bc       ?fin$0@?0???$?RV<lambda_e24bbb7b643b32fcea6fa61b31d4c984>@@AEAV<lambda_275893d493268fdec8709772e3fcec0e>@@V<lambda_9d71df4d7cf3f480f8d633942495c3b0>@@@?$__crt_seh_guarded_call@H@@QEAAH$$QEAV<lambda_e24bbb7b643b32fcea6fa61b31d4c984>@@AEAV<lambda_275893d493268fdec8709772e3fcec0e>@@$$QEAV<lambda_9d71df4d7cf3f480f8d633942495c3b0>@@@Z@4HA 00000001800278bc f   libucrt:onexit.obj
 0001:000268d9       ?fin$0@?0???$?RV<lambda_99476a1ad63dd22509b5d3e65b0ffc95>@@AEAV<lambda_ad1ced32f4ac17aa236e5ef05d6b3b7c>@@V<lambda_f7424dd8d45958661754dc4f2697e9c3>@@@?$__crt_seh_guarded_call@X@@QEAAX$$QEAV<lambda_99476a1ad63dd22509b5d3e65b0ffc95>@@AEAV<lambda_ad1ced32f4ac17aa236e5ef05d6b3b7c>@@$$QEAV<lambda_f7424dd8d45958661754dc4f2697e9c3>@@@Z@4HA 00000001800278d9 f   libucrt:mbctype.obj
 0001:000268d9       ?fin$0@?0???$?RV<lambda_b8c45f8f788dd370798f47cfe8ac3a86>@@AEAV<lambda_4e60a939b0d047cfe11ddc22648dfba9>@@V<lambda_332c3edc96d0294ec56c57d38c1cdfd5>@@@?$__crt_seh_guarded_call@H@@QEAAH$$QEAV<lambda_b8c45f8f788dd370798f47cfe8ac3a86>@@AEAV<lambda_4e60a939b0d047cfe11ddc22648dfba9>@@$$QEAV<lambda_332c3edc96d0294ec56c57d38c1cdfd5>@@@Z@4HA 00000001800278d9 f   libucrt:onexit.obj
 0001:000268d9       ?fin$0@?0???$?RV<lambda_d67e8342c384adda8f857579ab50b2ae>@@AEAV<lambda_30712929f77e709619002f448b6a9510>@@V<lambda_4525336fd7e478d965fb7ca7a337cad8>@@@?$__crt_seh_guarded_call@X@@QEAAX$$QEAV<lambda_d67e8342c384adda8f857579ab50b2ae>@@AEAV<lambda_30712929f77e709619002f448b6a9510>@@$$QEAV<lambda_4525336fd7e478d965fb7ca7a337cad8>@@@Z@4HA 00000001800278d9 f   libucrt:wsetlocale.obj
 0001:000268d9       ?fin$0@?0???$?RV<lambda_46352004c1216016012b18bd6f87e700>@@AEAV<lambda_3bd07e1a1191394380780325891bf33f>@@V<lambda_334532d3f185bcaa59b5be82d7d22bff>@@@?$__crt_seh_guarded_call@X@@QEAAX$$QEAV<lambda_46352004c1216016012b18bd6f87e700>@@AEAV<lambda_3bd07e1a1191394380780325891bf33f>@@$$QEAV<lambda_334532d3f185bcaa59b5be82d7d22bff>@@@Z@4HA 00000001800278d9 f   libucrt:per_thread_data.obj
 0001:000268d9       ?fin$0@?0???$?RV<lambda_fb3a7dec4e47f37f22dae91bb15c9095>@@AEAV<lambda_698284760c8add0bfb0756c19673e34b>@@V<lambda_dfb8eca1e75fef3034a8fb18dd509707>@@@?$__crt_seh_guarded_call@X@@QEAAX$$QEAV<lambda_fb3a7dec4e47f37f22dae91bb15c9095>@@AEAV<lambda_698284760c8add0bfb0756c19673e34b>@@$$QEAV<lambda_dfb8eca1e75fef3034a8fb18dd509707>@@@Z@4HA 00000001800278d9 f   libucrt:per_thread_data.obj
 0001:000268d9       ?fin$0@?0???$?RV<lambda_5e887d1dcbef67a5eb4283622ba103bf>@@AEAV<lambda_4466841279450cc726390878d4a41900>@@V<lambda_341c25c0346d94847f1f3c463c57e077>@@@?$__crt_seh_guarded_call@X@@QEAAX$$QEAV<lambda_5e887d1dcbef67a5eb4283622ba103bf>@@AEAV<lambda_4466841279450cc726390878d4a41900>@@$$QEAV<lambda_341c25c0346d94847f1f3c463c57e077>@@@Z@4HA 00000001800278d9 f   libucrt:per_thread_data.obj
 0001:000268d9       ?fin$0@?0???$?RV<lambda_c36588078e9f5dfd39652860aa6b3aaf>@@AEAV<lambda_ec61778202f4f5fc7e7711acc23c3bca>@@V<lambda_dc9d2797ccde5d239b4a0efae8ebd7db>@@@?$__crt_seh_guarded_call@P6AXH@Z@@QEAAP6AXH@Z$$QEAV<lambda_c36588078e9f5dfd39652860aa6b3aaf>@@AEAV<lambda_ec61778202f4f5fc7e7711acc23c3bca>@@$$QEAV<lambda_dc9d2797ccde5d239b4a0efae8ebd7db>@@@Z@4HA 00000001800278d9 f   libucrt:signal.obj
 0001:000268d9       ?fin$0@?0???$?RV<lambda_630b2aca97f6d20d5b5ea6529ea6b6af>@@AEAV<lambda_af91936f1d075d609f72d9d8cba980af>@@V<lambda_e82fa975f615b5c7c7b0e4d178fdae67>@@@?$__crt_seh_guarded_call@H@@QEAAH$$QEAV<lambda_630b2aca97f6d20d5b5ea6529ea6b6af>@@AEAV<lambda_af91936f1d075d609f72d9d8cba980af>@@$$QEAV<lambda_e82fa975f615b5c7c7b0e4d178fdae67>@@@Z@4HA 00000001800278d9 f   libucrt:winapi_thunks.obj
 0001:000268d9       ?fin$0@?0???$?RV<lambda_72d1df2b273a38828b1ce30cbf4cdab5>@@AEAV<lambda_876a65b173b8412d3a47c70a915b0cf4>@@V<lambda_41932305e351933ebe8f8be3ed8bb5dc>@@@?$__crt_seh_guarded_call@X@@QEAAX$$QEAV<lambda_72d1df2b273a38828b1ce30cbf4cdab5>@@AEAV<lambda_876a65b173b8412d3a47c70a915b0cf4>@@$$QEAV<lambda_41932305e351933ebe8f8be3ed8bb5dc>@@@Z@4HA 00000001800278d9 f   libucrt:per_thread_data.obj
 0001:000268f3       raise$fin$0                00000001800278f3 f   libucrt:signal.obj
 0001:00026917       ?fin$0@?0???$?RV<lambda_5df02c53a8f32f81fd64e5bbb78039f1>@@AEAV<lambda_2af78c5f5901b1372d98f9ab3177dfa6>@@AEAV<lambda_f51fe5fd7c79a33db34fc9310f277369>@@@?$__crt_seh_guarded_call@X@@QEAAX$$QEAV<lambda_5df02c53a8f32f81fd64e5bbb78039f1>@@AEAV<lambda_2af78c5f5901b1372d98f9ab3177dfa6>@@AEAV<lambda_f51fe5fd7c79a33db34fc9310f277369>@@@Z@4HA 0000000180027917 f   libucrt:wsetlocale.obj
 0001:00026938       __acrt_lowio_ensure_fh_exists$fin$0 0000000180027938 f   libucrt:osfinfo.obj
 0001:00026938       __acrt_initialize_lowio$fin$0 0000000180027938 f   libucrt:ioinit.obj
 0001:00026951       _ctrlfp$filt$0             0000000180027951 f   libucrt:fpctrl.obj
 0001:00026951       common_control87$filt$0    0000000180027951 f   libucrt:ieee.obj
 0001:0002697d       __acrt_update_thread_multibyte_data$fin$0 000000018002797d f   libucrt:mbctype.obj
 0001:00026996       __acrt_update_thread_locale_data$fin$0 0000000180027996 f   libucrt:locale_refcounting.obj
 0001:00026996       __acrt_uninitialize_locale$fin$0 0000000180027996 f   libucrt:wsetlocale.obj
 0001:000269af       _fcloseall$fin$0           00000001800279af f   libucrt:closeall.obj
 0001:000269c8       common_flush_all$fin$0     00000001800279c8 f   libucrt:fflush.obj
 0001:000269e2       common_flush_all$fin$1     00000001800279e2 f   libucrt:fflush.obj
 0001:000269fb       _write$fin$0               00000001800279fb f   libucrt:write.obj
 0001:00026a12       fclose$fin$0               0000000180027a12 f   libucrt:fclose.obj
 0001:00026a2a       ?fin$0@?0???$?RV<lambda_bfedae4ebbf01fab1bb6dcc6a9e276e0>@@AEAV<lambda_2fe9b910cf3cbf4a0ab98a02ba45b3ec>@@V<lambda_237c231691f317818eb88cc1d5d642d6>@@@?$__crt_seh_guarded_call@H@@QEAAH$$QEAV<lambda_bfedae4ebbf01fab1bb6dcc6a9e276e0>@@AEAV<lambda_2fe9b910cf3cbf4a0ab98a02ba45b3ec>@@$$QEAV<lambda_237c231691f317818eb88cc1d5d642d6>@@@Z@4HA 0000000180027a2a f   libucrt:close.obj
 0001:00026a2a       ?fin$0@?0???$?RV<lambda_b521505b218e5242e90febf6bfebc422>@@AEAV<lambda_6978c1fb23f02e42e1d9e99668cc68aa>@@V<lambda_314360699dd331753a4119843814e9a7>@@@?$__crt_seh_guarded_call@H@@QEAAH$$QEAV<lambda_b521505b218e5242e90febf6bfebc422>@@AEAV<lambda_6978c1fb23f02e42e1d9e99668cc68aa>@@$$QEAV<lambda_314360699dd331753a4119843814e9a7>@@@Z@4HA 0000000180027a2a f   libucrt:commit.obj
 0001:00026a50       _IsNonwritableInCurrentImage$filt$0 0000000180027a50 f   LIBCMT:pesect.obj
 0001:00026a70       ??__Fresult@?1??getStatusMap@?A0xcb87c0d3@@YAAEBV?$map@V?$basic_string@DU?$char_traits@D@std@@V?$allocator@D@2@@std@@KU?$less@V?$basic_string@DU?$char_traits@D@std@@V?$allocator@D@2@@std@@@2@V?$allocator@U?$pair@$$CBV?$basic_string@DU?$char_traits@D@std@@V?$allocator@D@2@@std@@K@std@@@2@@std@@XZ@YAXXZ 0000000180027a70 f   node_printer_win.obj
 0001:00026ae0       ??__Fresult@?1??getJobStatusMap@?A0xcb87c0d3@@YAAEBV?$map@V?$basic_string@DU?$char_traits@D@std@@V?$allocator@D@2@@std@@KU?$less@V?$basic_string@DU?$char_traits@D@std@@V?$allocator@D@2@@std@@@2@V?$allocator@U?$pair@$$CBV?$basic_string@DU?$char_traits@D@std@@V?$allocator@D@2@@std@@K@std@@@2@@std@@XZ@YAXXZ 0000000180027ae0 f   node_printer_win.obj
 0001:00026b50       ??__Fresult@?1??getAttributeMap@?A0xcb87c0d3@@YAAEBV?$map@V?$basic_string@DU?$char_traits@D@std@@V?$allocator@D@2@@std@@KU?$less@V?$basic_string@DU?$char_traits@D@std@@V?$allocator@D@2@@std@@@2@V?$allocator@U?$pair@$$CBV?$basic_string@DU?$char_traits@D@std@@V?$allocator@D@2@@std@@K@std@@@2@@std@@XZ@YAXXZ 0000000180027b50 f   node_printer_win.obj
 0001:00026bc0       ??__Fresult@?1??getJobCommandMap@?A0xcb87c0d3@@YAAEBV?$map@V?$basic_string@DU?$char_traits@D@std@@V?$allocator@D@2@@std@@KU?$less@V?$basic_string@DU?$char_traits@D@std@@V?$allocator@D@2@@std@@@2@V?$allocator@U?$pair@$$CBV?$basic_string@DU?$char_traits@D@std@@V?$allocator@D@2@@std@@K@std@@@2@@std@@XZ@YAXXZ 0000000180027bc0 f   node_printer_win.obj
 0001:00026c34       ??__Finitlocks@std@@YAXXZ  0000000180027c34 f   libcpmt:xlock.obj
 0001:00026c40       ??__F_Fac_tidy_reg@std@@YAXXZ 0000000180027c40 f   libcpmt:locale0.obj
 0001:00026c6c       ??__Fclassic_locale@std@@YAXXZ 0000000180027c6c f   libcpmt:locale0.obj
 0001:00026ccc       ??__Finit_atexit@@YAXXZ    0000000180027ccc f   libcpmt:iosptrs.obj
 0001:00026d20       ??__Finitlocks@std@@YAXXZ  0000000180027d20 f   libcpmt:iosptrs.obj
 0002:00000340       ?initlocks$initializer$@std@@3P6AXXZEA 0000000180028340     libcpmt:xlock.obj
 0002:00000348       ?initlocks$initializer$@std@@3P6AXXZEA 0000000180028348     libcpmt:iosptrs.obj
 0002:00000350       ?init_atexit$initializer$@@3P6AXXZEA 0000000180028350     libcpmt:iosptrs.obj
 0002:00000358       ?_Fac_tidy_reg$initializer$@std@@3P6AXXZEA 0000000180028358     libcpmt:locale0.obj
 0002:00000360       ?classic_locale$initializer$@std@@3P6AXXZEA 0000000180028360     libcpmt:locale0.obj
 0002:00000380       ?pinit@@3P6AHXZEA          0000000180028380     libcpmt:winapisupp.obj
 0002:00000388       ?__scrt_initialize_tss_var@@3P6AHXZEA 0000000180028388     LIBCMT:thread_safe_statics.obj
 0002:000004c8       $cppxdata$??_G_Fac_node@std@@QEAAPEAXI@Z 00000001800284c8     libcpmt:locale0.obj
 0002:000004f0       $cppxdata$?_Locimp_dtor@_Locimp@locale@std@@CAXPEAV123@@Z 00000001800284f0     libcpmt:locale0.obj
 0002:00000518       $cppxdata$??_G_Locimp@locale@std@@MEAAPEAXI@Z 0000000180028518     libcpmt:locale0.obj
 0002:00000540       $cppxdata$?_Init@locale@std@@CAPEAV_Locimp@12@_N@Z 0000000180028540     libcpmt:locale0.obj
 0002:00000568       $cppxdata$??__Fclassic_locale@std@@YAXXZ 0000000180028568     libcpmt:locale0.obj
 0002:000005e0       ?_Win_errtab@std@@3QBU_Win_errtab_t@1@B 00000001800285e0     libcpmt:syserror.obj
 0002:00000830       ?_Sys_errtab@std@@3QBU_Sys_errtab_t@1@B 0000000180028830     libcpmt:syserror.obj
 0002:000013d0       $cppxdata$??__Finit_atexit@@YAXXZ 00000001800293d0     libcpmt:iosptrs.obj
 0002:00001910       digits                     0000000180029910     libcpmt:xstoul.obj
 0002:00001938       ndigs                      0000000180029938     libcpmt:xstoul.obj
 0002:00001960       digits                     0000000180029960     libcpmt:xstoull.obj
 0002:00001988       ndigs                      0000000180029988     libcpmt:xstoull.obj
 0002:00001fe0       ?LcidToLocaleNameTable@@3QBULcidToLocaleName@@B 0000000180029fe0     libcpmt:winapinls.obj
 0002:00002e20       ?LocaleNameToIndexTable@@3QBULocaleNameIndex@@B 000000018002ae20     libcpmt:winapinls.obj
 0002:00004d08       GS_ExceptionPointers       000000018002cd08     LIBCMT:gs_report.obj
 0002:00004d50       ?ExceptionTemplate@?1??_CxxThrowException@@9@4UEHExceptionRecord@@B 000000018002cd50     libvcruntime:throw.obj
 0002:00004dc0       ?ExceptionTemplate@?1??_UnwindNestedFrames@@9@4U_EXCEPTION_RECORD@@B 000000018002cdc0     libvcruntime:trnsctrl.obj
 0002:00004e58       ?module_names@?A0x679b24ab@@3QBQEB_WB 000000018002ce58     libvcruntime:winapi_downlevel.obj
 0002:00004f28       ?candidate_modules@?1??try_get_FlsAlloc@@YAP6AKP6AXPEAX@Z@ZXZ@4QBW4module_id@?A0x679b24ab@@B 000000018002cf28     libvcruntime:winapi_downlevel.obj
 0002:00004f30       ?candidate_modules@?1??try_get_FlsFree@@YAP6AHK@ZXZ@4QBW4module_id@?A0x679b24ab@@B 000000018002cf30     libvcruntime:winapi_downlevel.obj
 0002:00004f38       ?candidate_modules@?1??try_get_FlsGetValue@@YAP6APEAXK@ZXZ@4QBW4module_id@?A0x679b24ab@@B 000000018002cf38     libvcruntime:winapi_downlevel.obj
 0002:00004f40       ?candidate_modules@?1??try_get_FlsSetValue@@YAP6AHKPEAX@ZXZ@4QBW4module_id@?A0x679b24ab@@B 000000018002cf40     libvcruntime:winapi_downlevel.obj
 0002:00004f48       ?candidate_modules@?1??try_get_InitializeCriticalSectionEx@@YAP6AHPEAU_RTL_CRITICAL_SECTION@@KK@ZXZ@4QBW4module_id@?A0x679b24ab@@B 000000018002cf48     libvcruntime:winapi_downlevel.obj
 0002:00004f50       ?tokenTable@@3QBQEBDB      000000018002cf50     libvcruntime:undname.obj
 0002:00004fc0       ?nameTable@@3QBQEBDB       000000018002cfc0     libvcruntime:undname.obj
 0002:00005248       ?rttiTable@@3QBQEBDB       000000018002d248     libvcruntime:undname.obj
 0002:00006160       errtable                   000000018002e160     libucrt:errno.obj
 0002:00006ca0       __flag_x_one_y_snan        000000018002eca0     libucrt:pow.obj
 0002:00006ca4       __flag_x_zero_z_inf        000000018002eca4     libucrt:pow.obj
 0002:00006ca8       __flag_x_nan               000000018002eca8     libucrt:pow.obj
 0002:00006cac       __flag_y_nan               000000018002ecac     libucrt:pow.obj
 0002:00006cb0       __flag_x_nan_y_nan         000000018002ecb0     libucrt:pow.obj
 0002:00006cb4       __flag_x_neg_y_notint      000000018002ecb4     libucrt:pow.obj
 0002:00006cb8       __flag_z_zero              000000018002ecb8     libucrt:pow.obj
 0002:00006cbc       __flag_z_denormal          000000018002ecbc     libucrt:pow.obj
 0002:00006cc0       __flag_z_inf               000000018002ecc0     libucrt:pow.obj
 0002:00006cd0       __ay_max_bound             000000018002ecd0     libucrt:pow.obj
 0002:00006cd8       __ay_min_bound             000000018002ecd8     libucrt:pow.obj
 0002:00006ce0       __sign_mask                000000018002ece0     libucrt:pow.obj
 0002:00006ce8       __sign_and_exp_mask        000000018002ece8     libucrt:pow.obj
 0002:00006cf0       __exp_mask                 000000018002ecf0     libucrt:pow.obj
 0002:00006cf8       __neg_inf                  000000018002ecf8     libucrt:pow.obj
 0002:00006d00       __pos_inf                  000000018002ed00     libucrt:pow.obj
 0002:00006d08       __pos_one                  000000018002ed08     libucrt:pow.obj
 0002:00006d10       __pos_zero                 000000018002ed10     libucrt:pow.obj
 0002:00006d18       __exp_mant_mask            000000018002ed18     libucrt:pow.obj
 0002:00006d20       __mant_mask                000000018002ed20     libucrt:pow.obj
 0002:00006d28       __ind_pattern              000000018002ed28     libucrt:pow.obj
 0002:00006d30       __neg_qnan                 000000018002ed30     libucrt:pow.obj
 0002:00006d38       __qnan                     000000018002ed38     libucrt:pow.obj
 0002:00006d40       __qnan_set                 000000018002ed40     libucrt:pow.obj
 0002:00006d48       __neg_one                  000000018002ed48     libucrt:pow.obj
 0002:00006d50       __neg_zero                 000000018002ed50     libucrt:pow.obj
 0002:00006d58       __exp_shift                000000018002ed58     libucrt:pow.obj
 0002:00006d60       __exp_bias                 000000018002ed60     libucrt:pow.obj
 0002:00006d68       __exp_bias_m1              000000018002ed68     libucrt:pow.obj
 0002:00006d70       __yexp_53                  000000018002ed70     libucrt:pow.obj
 0002:00006d78       __mant_full                000000018002ed78     libucrt:pow.obj
 0002:00006d80       __1_before_mant            000000018002ed80     libucrt:pow.obj
 0002:00006d88       __mask_mant_all8           000000018002ed88     libucrt:pow.obj
 0002:00006d90       __mask_mant9               000000018002ed90     libucrt:pow.obj
 0002:00006da0       __real_fffffffff8000000    000000018002eda0     libucrt:pow.obj
 0002:00006db0       __mask_8000000000000000    000000018002edb0     libucrt:pow.obj
 0002:00006dc0       __real_4090040000000000    000000018002edc0     libucrt:pow.obj
 0002:00006dd0       __real_C090C80000000000    000000018002edd0     libucrt:pow.obj
 0002:00006de0       __real_ninf                000000018002ede0     libucrt:pow.obj
 0002:00006df0       __real_inf                 000000018002edf0     libucrt:pow.obj
 0002:00006e00       __real_nan                 000000018002ee00     libucrt:pow.obj
 0002:00006e10       __real_mant                000000018002ee10     libucrt:pow.obj
 0002:00006e20       __mask_1023                000000018002ee20     libucrt:pow.obj
 0002:00006e30       __mask_001                 000000018002ee30     libucrt:pow.obj
 0002:00006e40       __real_log2_lead           000000018002ee40     libucrt:pow.obj
 0002:00006e50       __real_log2_tail           000000018002ee50     libucrt:pow.obj
 0002:00006e60       __real_two                 000000018002ee60     libucrt:pow.obj
 0002:00006e70       __real_one                 000000018002ee70     libucrt:pow.obj
 0002:00006e80       __real_half                000000018002ee80     libucrt:pow.obj
 0002:00006e90       __mask_100                 000000018002ee90     libucrt:pow.obj
 0002:00006ea0       __real_1_over_2            000000018002eea0     libucrt:pow.obj
 0002:00006eb0       __real_1_over_3            000000018002eeb0     libucrt:pow.obj
 0002:00006ec0       __real_1_over_4            000000018002eec0     libucrt:pow.obj
 0002:00006ed0       __real_1_over_5            000000018002eed0     libucrt:pow.obj
 0002:00006ee0       __real_1_over_6            000000018002eee0     libucrt:pow.obj
 0002:00006ef0       __real_1_over_7            000000018002eef0     libucrt:pow.obj
 0002:00006f00       __mask_1023_f              000000018002ef00     libucrt:pow.obj
 0002:00006f10       __mask_2045                000000018002ef10     libucrt:pow.obj
 0002:00006f20       __real_threshold           000000018002ef20     libucrt:pow.obj
 0002:00006f30       __real_notsign             000000018002ef30     libucrt:pow.obj
 0002:00006f40       __log_F_inv_head           000000018002ef40     libucrt:pow.obj
 0002:00007750       __log_F_inv_tail           000000018002f750     libucrt:pow.obj
 0002:00007f60       __denormal_threshold       000000018002ff60     libucrt:pow.obj
 0002:00007f70       __enable_almost_inf        000000018002ff70     libucrt:pow.obj
 0002:00007f80       __real_zero                000000018002ff80     libucrt:pow.obj
 0002:00007f90       __real_smallest_denormal   000000018002ff90     libucrt:pow.obj
 0002:00007fa0       __denormal_tiny_threshold  000000018002ffa0     libucrt:pow.obj
 0002:00007fb0       __real_p65536              000000018002ffb0     libucrt:pow.obj
 0002:00007fc0       __real_m68800              000000018002ffc0     libucrt:pow.obj
 0002:00007fd0       __real_64_by_log2          000000018002ffd0     libucrt:pow.obj
 0002:00007fe0       __real_log2_by_64_head     000000018002ffe0     libucrt:pow.obj
 0002:00007ff0       __real_log2_by_64_tail     000000018002fff0     libucrt:pow.obj
 0002:00008000       __real_1_by_720            0000000180030000     libucrt:pow.obj
 0002:00008010       __real_1_by_120            0000000180030010     libucrt:pow.obj
 0002:00008020       __real_1_by_24             0000000180030020     libucrt:pow.obj
 0002:00008030       __real_1_by_6              0000000180030030     libucrt:pow.obj
 0002:00008040       __real_1_by_2              0000000180030040     libucrt:pow.obj
 0002:00008050       __flag_x_one_y_snan        0000000180030050     libucrt:powf.obj
 0002:00008054       __flag_x_zero_z_inf        0000000180030054     libucrt:powf.obj
 0002:00008058       __flag_x_nan               0000000180030058     libucrt:powf.obj
 0002:0000805c       __flag_y_nan               000000018003005c     libucrt:powf.obj
 0002:00008060       __flag_x_nan_y_nan         0000000180030060     libucrt:powf.obj
 0002:00008064       __flag_x_neg_y_notint      0000000180030064     libucrt:powf.obj
 0002:00008068       __flag_z_zero              0000000180030068     libucrt:powf.obj
 0002:0000806c       __flag_z_denormal          000000018003006c     libucrt:powf.obj
 0002:00008070       __flag_z_inf               0000000180030070     libucrt:powf.obj
 0002:00008074       L__1_by_3                  0000000180030074     libucrt:powf.obj
 0002:0000807c       L__log2                    000000018003007c     libucrt:powf.obj
 0002:00008084       L__max_exp_arg             0000000180030084     libucrt:powf.obj
 0002:0000808c       L__min_exp_arg             000000018003008c     libucrt:powf.obj
 0002:00008094       L__real_log2_by_64         0000000180030094     libucrt:powf.obj
 0002:0000809c       L__1_by_6                  000000018003009c     libucrt:powf.obj
 0002:000080a4       L__real_threshold          00000001800300a4     libucrt:powf.obj
 0002:000080ac       L__real_one                00000001800300ac     libucrt:powf.obj
 0002:000080b4       L__real_two                00000001800300b4     libucrt:powf.obj
 0002:000080bc       L__neg_zero                00000001800300bc     libucrt:powf.obj
 0002:000080d0       L__real_ca42               00000001800300d0     libucrt:powf.obj
 0002:000080d8       L__real_ca4                00000001800300d8     libucrt:powf.obj
 0002:000080e0       L__real_ca31               00000001800300e0     libucrt:powf.obj
 0002:000080e8       L__real_ca3                00000001800300e8     libucrt:powf.obj
 0002:000080f0       L__clear_sign              00000001800300f0     libucrt:powf.obj
 0002:00008100       L__real_64_by_log2         0000000180030100     libucrt:powf.obj
 0002:00008110       L__1_by_2                  0000000180030110     libucrt:powf.obj
 0002:00008120       L__1023                    0000000180030120     libucrt:powf.obj
 0002:00008130       L__xexp_bits_xmantissa_bits 0000000180030130     libucrt:powf.obj
 0002:00008a50       __acrt_initializers        0000000180030a50     libucrt:initialization.obj
 0002:00008cb0       _first_127char             0000000180030cb0     libucrt:wsetlocale.obj
 0002:000093d0       ?_names@?1??_get_fname@@9@9 00000001800313d0     libucrt:fpexcept.obj
 0002:00009680       module_names               0000000180031680     libucrt:winapi_thunks.obj
 0002:00009bb0       ?candidate_modules@?1??try_get_CompareStringEx@@YAP6AHPEB_WK0H0HPEAU_nlsversioninfo@@PEAX_J@ZXZ@4QBW4module_id@?A0x63058377@@B 0000000180031bb0     libucrt:winapi_thunks.obj
 0002:00009bb8       ?candidate_modules@?1??try_get_EnumSystemLocalesEx@@YAP6AHP6AHPEA_WK_J@ZK1PEAX@ZXZ@4QBW4module_id@?A0x63058377@@B 0000000180031bb8     libucrt:winapi_thunks.obj
 0002:00009bd8       ?candidate_modules@?1??try_get_FlsAlloc@@YAP6AKP6AXPEAX@Z@ZXZ@4QBW4module_id@?A0x63058377@@B 0000000180031bd8     libucrt:winapi_thunks.obj
 0002:00009be0       ?candidate_modules@?1??try_get_FlsFree@@YAP6AHK@ZXZ@4QBW4module_id@?A0x63058377@@B 0000000180031be0     libucrt:winapi_thunks.obj
 0002:00009be8       ?candidate_modules@?1??try_get_FlsGetValue@@YAP6APEAXK@ZXZ@4QBW4module_id@?A0x63058377@@B 0000000180031be8     libucrt:winapi_thunks.obj
 0002:00009bf0       ?candidate_modules@?1??try_get_FlsSetValue@@YAP6AHKPEAX@ZXZ@4QBW4module_id@?A0x63058377@@B 0000000180031bf0     libucrt:winapi_thunks.obj
 0002:00009bf8       ?candidate_modules@?1??try_get_GetCurrentPackageId@@YAP6AJPEAIPEAE@ZXZ@4QBW4module_id@?A0x63058377@@B 0000000180031bf8     libucrt:winapi_thunks.obj
 0002:00009c00       ?candidate_modules@?1??try_get_GetLocaleInfoEx@@YAP6AHPEB_WKPEA_WH@ZXZ@4QBW4module_id@?A0x63058377@@B 0000000180031c00     libucrt:winapi_thunks.obj
 0002:00009c08       ?candidate_modules@?1??try_get_GetUserDefaultLocaleName@@YAP6AHPEA_WH@ZXZ@4QBW4module_id@?A0x63058377@@B 0000000180031c08     libucrt:winapi_thunks.obj
 0002:00009c30       ?candidate_modules@?1??try_get_InitializeCriticalSectionEx@@YAP6AHPEAU_RTL_CRITICAL_SECTION@@KK@ZXZ@4QBW4module_id@?A0x63058377@@B 0000000180031c30     libucrt:winapi_thunks.obj
 0002:00009c38       ?candidate_modules@?1??try_get_IsValidLocaleName@@YAP6AHPEB_W@ZXZ@4QBW4module_id@?A0x63058377@@B 0000000180031c38     libucrt:winapi_thunks.obj
 0002:00009c58       ?candidate_modules@?1??try_get_LCMapStringEx@@YAP6AHPEB_WK0HPEA_WHPEAU_nlsversioninfo@@PEAX_J@ZXZ@4QBW4module_id@?A0x63058377@@B 0000000180031c58     libucrt:winapi_thunks.obj
 0002:00009c60       ?candidate_modules@?1??try_get_LCIDToLocaleName@@YAP6AHKPEA_WHK@ZXZ@4QBW4module_id@?A0x63058377@@B 0000000180031c60     libucrt:winapi_thunks.obj
 0002:00009c80       ?candidate_modules@?1??try_get_LocaleNameToLCID@@YAP6AKPEB_WK@ZXZ@4QBW4module_id@?A0x63058377@@B 0000000180031c80     libucrt:winapi_thunks.obj
 0002:0000bae0       _mb_locale_names           0000000180033ae0     libucrt:mbctype.obj
 0002:0000cb00       __real@433fffffffffffff    0000000180034b00     libucrt:fpsr.obj
 0002:0000cb08       __real@c33fffffffffffff    0000000180034b08     libucrt:fpsr.obj
 0002:0000cb10       LcidToLocaleNameTable      0000000180034b10     libucrt:lcidtoname_downlevel.obj
 0002:0000d950       LocaleNameToIndexTable     0000000180035950     libucrt:lcidtoname_downlevel.obj
 0002:0000e790       __real_ninf                0000000180036790     libucrt:log10.obj
 0002:0000e7a0       __real_inf                 00000001800367a0     libucrt:log10.obj
 0002:0000e7b0       __real_neg_qnan            00000001800367b0     libucrt:log10.obj
 0002:0000e7c0       __real_qnanbit             00000001800367c0     libucrt:log10.obj
 0002:0000e7d0       __int_1023                 00000001800367d0     libucrt:log10.obj
 0002:0000e7e0       __mask_001                 00000001800367e0     libucrt:log10.obj
 0002:0000e7f0       __mask_mant                00000001800367f0     libucrt:log10.obj
 0002:0000e800       __mask_mant_top8           0000000180036800     libucrt:log10.obj
 0002:0000e810       __mask_mant9               0000000180036810     libucrt:log10.obj
 0002:0000e820       __real_log10_e             0000000180036820     libucrt:log10.obj
 0002:0000e830       __real_log10_e_lead        0000000180036830     libucrt:log10.obj
 0002:0000e840       __real_log10_e_tail        0000000180036840     libucrt:log10.obj
 0002:0000e850       __real_log10_2_lead        0000000180036850     libucrt:log10.obj
 0002:0000e860       __real_log10_2_tail        0000000180036860     libucrt:log10.obj
 0002:0000e870       __real_two                 0000000180036870     libucrt:log10.obj
 0002:0000e880       __real_one                 0000000180036880     libucrt:log10.obj
 0002:0000e890       __real_half                0000000180036890     libucrt:log10.obj
 0002:0000e8a0       __mask_100                 00000001800368a0     libucrt:log10.obj
 0002:0000e8b0       __real_1_over_512          00000001800368b0     libucrt:log10.obj
 0002:0000e8c0       __real_1_over_2            00000001800368c0     libucrt:log10.obj
 0002:0000e8d0       __real_1_over_3            00000001800368d0     libucrt:log10.obj
 0002:0000e8e0       __real_1_over_4            00000001800368e0     libucrt:log10.obj
 0002:0000e8f0       __real_1_over_5            00000001800368f0     libucrt:log10.obj
 0002:0000e900       __real_1_over_6            0000000180036900     libucrt:log10.obj
 0002:0000e910       __real_neg_1023            0000000180036910     libucrt:log10.obj
 0002:0000e920       __mask_2045                0000000180036920     libucrt:log10.obj
 0002:0000e930       __real_threshold           0000000180036930     libucrt:log10.obj
 0002:0000e940       __real_near_one_lt         0000000180036940     libucrt:log10.obj
 0002:0000e950       __real_near_one_gt         0000000180036950     libucrt:log10.obj
 0002:0000e960       __real_min_norm            0000000180036960     libucrt:log10.obj
 0002:0000e970       __real_notsign             0000000180036970     libucrt:log10.obj
 0002:0000e980       __real_ca1                 0000000180036980     libucrt:log10.obj
 0002:0000e990       __real_ca2                 0000000180036990     libucrt:log10.obj
 0002:0000e9a0       __real_ca3                 00000001800369a0     libucrt:log10.obj
 0002:0000e9b0       __real_ca4                 00000001800369b0     libucrt:log10.obj
 0002:0000e9c0       __mask_lower               00000001800369c0     libucrt:log10.obj
 0002:0000e9d0       __flag_x_zero              00000001800369d0     libucrt:log10.obj
 0002:0000e9d4       __flag_x_neg               00000001800369d4     libucrt:log10.obj
 0002:0000e9d8       __flag_x_nan               00000001800369d8     libucrt:log10.obj
 0002:00011440       $unwind$?NODE_SET_METHOD@node@@YAXV?$Local@VObject@v8@@@v8@@PEBDP6AXAEBV?$FunctionCallbackInfo@VValue@v8@@@3@@Z@Z 0000000180039440     node_printer.obj
 0002:00011450       $unwind$?initNode@@YAXV?$Local@VObject@v8@@@v8@@@Z 0000000180039450     node_printer.obj
 0002:00011458       $unwind$?getStringOrBufferFromV8Value@@YA_NV?$Local@VValue@v8@@@v8@@AEAV?$basic_string@DU?$char_traits@D@std@@V?$allocator@D@2@@std@@@Z 0000000180039458     node_printer.obj
 0002:00011460       $chain$0$?getStringOrBufferFromV8Value@@YA_NV?$Local@VValue@v8@@@v8@@AEAV?$basic_string@DU?$char_traits@D@std@@V?$allocator@D@2@@std@@@Z 0000000180039460     node_printer.obj
 0002:00011474       $chain$1$?getStringOrBufferFromV8Value@@YA_NV?$Local@VValue@v8@@@v8@@AEAV?$basic_string@DU?$char_traits@D@std@@V?$allocator@D@2@@std@@@Z 0000000180039474     node_printer.obj
 0002:00011484       $unwind$__acrt_FlsSetValue 0000000180039484     libucrt:winapi_thunks.obj
 0002:00011484       $unwind$??_G?$basic_stringbuf@DU?$char_traits@D@std@@V?$allocator@D@2@@std@@UEAAPEAXI@Z 0000000180039484     node_printer_win.obj
 0002:00011484       $unwind$__acrt_stdio_flush_nolock 0000000180039484     libucrt:fflush.obj
 0002:00011484       $unwind$??$common_lseek_nolock@_J@@YA_JH_JH@Z 0000000180039484     libucrt:lseek.obj
 0002:00011484       $unwind$memcpy_s           0000000180039484     libucrt:cfout.obj
 0002:00011484       $unwind$?type_case_n@?$output_processor@DV?$string_output_adapter@D@__crt_stdio_output@@V?$format_validation_base@DV?$string_output_adapter@D@__crt_stdio_output@@@2@@__crt_stdio_output@@AEAA_NXZ 0000000180039484     libucrt:output.obj
 0002:00011484       $unwind$?assign@?$basic_string@DU?$char_traits@D@std@@V?$allocator@D@2@@std@@QEAAAEAV12@_KD@Z 0000000180039484     node_printer_win.obj
 0002:00011484       $unwind$_DllMainCRTStartup 0000000180039484     LIBCMT:dll_dllmain.obj
 0002:00011484       $unwind$__acrt_GetUserDefaultLocaleName 0000000180039484     libucrt:winapi_thunks.obj
 0002:00011484       $unwind$__acrt_getptd_noexit 0000000180039484     libucrt:per_thread_data.obj
 0002:00011484       $unwind$?__scrt_initialize_thread_safe_statics@@YAHXZ 0000000180039484     LIBCMT:thread_safe_statics.obj
 0002:00011484       $unwind$?assign@?$basic_string@DU?$char_traits@D@std@@V?$allocator@D@2@@std@@QEAAAEAV12@PEBD_K@Z 0000000180039484     node_printer.obj
 0002:00011484       $unwind$_initterm_e        0000000180039484     libucrt:initterm.obj
 0002:00011484       $unwind$_RTC_Initialize    0000000180039484     LIBCMT:_initsect_.obj
 0002:00011484       $unwind$??_G?$basic_streambuf@DU?$char_traits@D@std@@@std@@UEAAPEAXI@Z 0000000180039484     node_printer_win.obj
 0002:00011484       $unwind$?_Tidy@ios_base@std@@AEAAXXZ 0000000180039484     libcpmt:ios.obj
 0002:00011484       $unwind$memcpy_s           0000000180039484     libucrt:strtod.obj
 0002:00011484       $unwind$_exception_enabled 0000000180039484     libucrt:libm_error.obj
 0002:00011484       $unwind$__acrt_execute_uninitializers 0000000180039484     libucrt:shared_initialization.obj
 0002:00011484       $unwind$??0_Init_locks@std@@QEAA@XZ 0000000180039484     libcpmt:xlock.obj
 0002:00011484       $unwind$_Init_thread_wait  0000000180039484     LIBCMT:thread_safe_statics.obj
 0002:00011484       $unwind$__vcrt_getptd_noexit 0000000180039484     libvcruntime:per_thread_data.obj
 0002:00011484       $unwind$_RTC_Terminate     0000000180039484     LIBCMT:_initsect_.obj
 0002:00011484       $unwind$?type_case_s@?$output_processor@DV?$string_output_adapter@D@__crt_stdio_output@@V?$format_validation_base@DV?$string_output_adapter@D@__crt_stdio_output@@@2@@__crt_stdio_output@@AEAA_NXZ 0000000180039484     libucrt:output.obj
 0002:00011484       $unwind$?free_crt_array_internal@@YAXQEAPEBX_K@Z 0000000180039484     libucrt:inittime.obj
 0002:00011484       $unwind$??R<lambda_ad1ced32f4ac17aa236e5ef05d6b3b7c>@@QEBAXXZ 0000000180039484     libucrt:mbctype.obj
 0002:00011484       $unwind$?type_case_Z@?$output_processor@DV?$string_output_adapter@D@__crt_stdio_output@@V?$format_validation_base@DV?$string_output_adapter@D@__crt_stdio_output@@@2@@__crt_stdio_output@@AEAA_NXZ 0000000180039484     libucrt:output.obj
 0002:00011484       $unwind$_Getcvt            0000000180039484     libcpmt:xwctomb.obj
 0002:00011484       $unwind$??4?$_Yarn@D@std@@QEAAAEAV01@PEBD@Z 0000000180039484     libcpmt:locale0.obj
 0002:00011484       $unwind$__vcrt_FlsSetValue 0000000180039484     libvcruntime:winapi_downlevel.obj
 0002:00011484       $unwind$__acrt_LocaleNameToLCID 0000000180039484     libucrt:winapi_thunks.obj
 0002:00011494       $unwind$_free_osfhnd       0000000180039494     libucrt:osfinfo.obj
 0002:00011494       $unwind$_wcstombs_s_l      0000000180039494     libucrt:wcstombs.obj
 0002:00011494       $unwind$__std_exception_copy 0000000180039494     libvcruntime:std_exception.obj
 0002:00011494       $unwind$?initialize_stdio_handles_nolock@@YAXXZ 0000000180039494     libucrt:ioinit.obj
 0002:00011494       $unwind$?assign@?$basic_string@DU?$char_traits@D@std@@V?$allocator@D@2@@std@@QEAAAEAV12@AEBV12@_K1@Z 0000000180039494     node_printer.obj
 0002:000114a8       $unwind$?_Copy@?$basic_string@DU?$char_traits@D@std@@V?$allocator@D@2@@std@@QEAAX_K0@Z 00000001800394a8     node_printer.obj
 0002:000114bc       $unwind$??0_LocaleUpdate@@QEAA@QEAU__crt_locale_pointers@@@Z 00000001800394bc     libucrt:output.obj
 0002:000114bc       $unwind$?_Assign_rv@?$basic_string@DU?$char_traits@D@std@@V?$allocator@D@2@@std@@QEAAX$$QEAV12@@Z 00000001800394bc     node_printer_win.obj
 0002:000114bc       $unwind$__acrt_IsValidLocaleName 00000001800394bc     libucrt:winapi_thunks.obj
 0002:000114bc       $unwind$?type_case_c_tchar@?$output_processor@DV?$string_output_adapter@D@__crt_stdio_output@@V?$format_validation_base@DV?$string_output_adapter@D@__crt_stdio_output@@@2@@__crt_stdio_output@@AEAA_ND@Z 00000001800394bc     libucrt:output.obj
 0002:000114bc       $unwind$??_Gios_base@std@@UEAAPEAXI@Z 00000001800394bc     node_printer_win.obj
 0002:000114bc       $unwind$?<helper_func_cdecl>@<lambda_e2bb8337c48846e80c921ea5ddadc92d>@@CAHPEA_W@Z 00000001800394bc     libucrt:winapi_thunks.obj
 0002:000114bc       $unwind$??_Gexception@std@@UEAAPEAXI@Z 00000001800394bc     libcpmt:xthrow.obj
 0002:000114bc       $unwind$__vcrt_FlsFree     00000001800394bc     libvcruntime:winapi_downlevel.obj
 0002:000114bc       $unwind$?__SetUnwindTryBlock@@YAXPEA_KPEAU_xDISPATCHER_CONTEXT@@PEBU_s_FuncInfo@@H@Z 00000001800394bc     libvcruntime:ehstate.obj
 0002:000114bc       $unwind$__acrt_errno_map_os_error 00000001800394bc     libucrt:errno.obj
 0002:000114bc       $unwind$GetLocaleNameFromLangCountry 00000001800394bc     libucrt:get_qualified_locale.obj
 0002:000114bc       $unwind$__acrt_invoke_user_matherr 00000001800394bc     libucrt:matherr.obj
 0002:000114bc       $unwind$strncpy_s          00000001800394bc     libucrt:strncpy_s.obj
 0002:000114bc       $unwind$wcsncpy_s          00000001800394bc     libucrt:wcsncpy_s.obj
 0002:000114bc       $unwind$??1_Init_locks@std@@QEAA@XZ 00000001800394bc     libcpmt:xlock.obj
 0002:000114bc       $unwind$_close_nolock      00000001800394bc     libucrt:close.obj
 0002:000114bc       $unwind$_FindAndUnlinkFrame 00000001800394bc     libvcruntime:trnsctrl.obj
 0002:000114bc       $unwind$_updatetlocinfoEx_nolock 00000001800394bc     libucrt:locale_refcounting.obj
 0002:000114bc       $unwind$??1?$basic_ostringstream@DU?$char_traits@D@std@@V?$allocator@D@2@@std@@UEAA@XZ 00000001800394bc     node_printer_win.obj
 0002:000114bc       $unwind$__acrt_uninitialize_lowio 00000001800394bc     libucrt:ioinit.obj
 0002:000114bc       $unwind$__acrt_getptd      00000001800394bc     libucrt:per_thread_data.obj
 0002:000114bc       $unwind$GetLocaleNameFromLanguage 00000001800394bc     libucrt:get_qualified_locale.obj
 0002:000114bc       $unwind$??$common_initialize_environment_nolock@D@@YAHXZ 00000001800394bc     libucrt:environment_initialization.obj
 0002:000114bc       $unwind$?replace_current_thread_locale_nolock@@YAXQEAU__acrt_ptd@@QEAU__crt_locale_data@@@Z 00000001800394bc     libucrt:per_thread_data.obj
 0002:000114bc       $unwind$??_G?$numpunct@D@std@@MEAAPEAXI@Z 00000001800394bc     node_printer_win.obj
 0002:000114bc       $unwind$??_Gbad_array_new_length@std@@UEAAPEAXI@Z 00000001800394bc     LIBCMT:throw_bad_alloc.obj
 0002:000114bc       $unwind$??0?$basic_streambuf@DU?$char_traits@D@std@@@std@@IEAA@XZ 00000001800394bc     node_printer_win.obj
 0002:000114bc       $unwind$??_Gbad_alloc@std@@UEAAPEAXI@Z 00000001800394bc     libcpmt:xthrow.obj
 0002:000114bc       $unwind$??_G?$ctype@D@std@@MEAAPEAXI@Z 00000001800394bc     node_printer_win.obj
 0002:000114bc       $unwind$??_G?$basic_ostringstream@DU?$char_traits@D@std@@V?$allocator@D@2@@std@@UEAAPEAXI@Z 00000001800394bc     node_printer_win.obj
 0002:000114bc       $unwind$??_G?$basic_ostream@DU?$char_traits@D@std@@@std@@UEAAPEAXI@Z 00000001800394bc     node_printer_win.obj
 0002:000114bc       $unwind$??_Glogic_error@std@@UEAAPEAXI@Z 00000001800394bc     libcpmt:xthrow.obj
 0002:000114bc       $unwind$??_Glength_error@std@@UEAAPEAXI@Z 00000001800394bc     libcpmt:xthrow.obj
 0002:000114bc       $unwind$??_Glocale@std@@QEAAPEAXI@Z 00000001800394bc     node_printer_win.obj
 0002:000114bc       $unwind$?ExFilterRethrow@@YAHPEAU_EXCEPTION_POINTERS@@PEAUEHExceptionRecord@@PEAH@Z 00000001800394bc     libvcruntime:frame.obj
 0002:000114bc       $unwind$?DloadAcquireSectionWriteAccess@@YAXXZ 00000001800394bc     DelayImp:delayhlp.obj
 0002:000114bc       $unwind$__acrt_FlsGetValue 00000001800394bc     libucrt:winapi_thunks.obj
 0002:000114bc       $unwind$_fclose_nolock     00000001800394bc     libucrt:fclose.obj
 0002:000114bc       $unwind$??0sentry@?$basic_ostream@DU?$char_traits@D@std@@@std@@QEAA@AEAV12@@Z 00000001800394bc     node_printer_win.obj
 0002:000114bc       $unwind$??_Gout_of_range@std@@UEAAPEAXI@Z 00000001800394bc     libcpmt:xthrow.obj
 0002:000114bc       $unwind$__acrt_locale_initialize_time 00000001800394bc     libucrt:inittime.obj
 0002:000114bc       $unwind$?force_decimal_point@__crt_stdio_output@@YAXPEADQEAU__crt_locale_pointers@@@Z 00000001800394bc     libucrt:output.obj
 0002:000114bc       $unwind$??$common_xtox@K_W@@YAHKQEA_W_KI_N@Z 00000001800394bc     libucrt:xtoa.obj
 0002:000114bc       $unwind$??R?$less@V?$basic_string@DU?$char_traits@D@std@@V?$allocator@D@2@@std@@@std@@QEBA_NAEBV?$basic_string@DU?$char_traits@D@std@@V?$allocator@D@2@@1@0@Z 00000001800394bc     node_printer_win.obj
 0002:000114bc       $unwind$?internal_isupper_l@@YA_NHQEAU__crt_locale_pointers@@@Z 00000001800394bc     libucrt:tolower_toupper.obj
 0002:000114bc       $unwind$__acrt_FlsFree     00000001800394bc     libucrt:winapi_thunks.obj
 0002:000114bc       $unwind$_Deletegloballocale 00000001800394bc     libcpmt:locale0.obj
 0002:000114bc       $unwind$__acrt_FlsAlloc    00000001800394bc     libucrt:winapi_thunks.obj
 0002:000114bc       $unwind$??_Gbad_exception@std@@UEAAPEAXI@Z 00000001800394bc     libvcruntime:frame.obj
 0002:000114bc       $unwind$??1_Locinfo@std@@QEAA@XZ 00000001800394bc     node_printer_win.obj
 0002:000114bc       $unwind$__vcrt_FlsGetValue 00000001800394bc     libvcruntime:winapi_downlevel.obj
 0002:000114bc       $unwind$?DloadGetSRWLockFunctionPointers@@YAEXZ 00000001800394bc     DelayImp:delayhlp.obj
 0002:000114bc       $unwind$?erase@?$basic_string@DU?$char_traits@D@std@@V?$allocator@D@2@@std@@QEAAAEAV12@_K0@Z 00000001800394bc     node_printer.obj
 0002:000114bc       $unwind$GetLcidFromLanguage 00000001800394bc     libucrt:getqloc_downlevel.obj
 0002:000114bc       $unwind$_realloc_base      00000001800394bc     libucrt:realloc_base.obj
 0002:000114bc       $unwind$GetLcidFromLangCountry 00000001800394bc     libucrt:getqloc_downlevel.obj
 0002:000114bc       $unwind$_callnewh          00000001800394bc     libucrt:new_handler.obj
 0002:000114bc       $unwind$?_New_Locimp@_Locimp@locale@std@@CAPEAV123@_N@Z 00000001800394bc     libcpmt:locale0.obj
 0002:000114bc       $unwind$__vcrt_FlsAlloc    00000001800394bc     libvcruntime:winapi_downlevel.obj
 0002:000114bc       $unwind$?_Locinfo_ctor@_Locinfo@std@@SAXPEAV12@PEBD@Z 00000001800394bc     libcpmt:locale0.obj
 0002:000114bc       $unwind$?try_cor_exit_process@@YAXI@Z 00000001800394bc     libucrt:exit.obj
 0002:000114c8       $unwind$_statfp            00000001800394c8     libucrt:fpctrl.obj
 0002:000114c8       $unwind$_errno             00000001800394c8     libucrt:errno.obj
 0002:000114c8       $unwind$??__Fresult@?1??getJobStatusMap@?A0xcb87c0d3@@YAAEBV?$map@V?$basic_string@DU?$char_traits@D@std@@V?$allocator@D@2@@std@@KU?$less@V?$basic_string@DU?$char_traits@D@std@@V?$allocator@D@2@@std@@@2@V?$allocator@U?$pair@$$CBV?$basic_string@DU?$char_traits@D@std@@V?$allocator@D@2@@std@@K@std@@@2@@std@@XZ@YAXXZ 00000001800394c8     node_printer_win.obj
 0002:000114c8       $unwind$?allocate@?$allocator@D@std@@QEAAPEAD_K@Z 00000001800394c8     node_printer.obj
 0002:000114c8       $unwind$??__F_Fac_tidy_reg@std@@YAXXZ 00000001800394c8     libcpmt:locale0.obj
 0002:000114c8       $unwind$_copytlocinfo_nolock 00000001800394c8     libucrt:wsetlocale.obj
 0002:000114c8       $unwind$?__GetCurrentState@@YAHPEA_KPEAU_xDISPATCHER_CONTEXT@@PEBU_s_FuncInfo@@@Z 00000001800394c8     libvcruntime:ehstate.obj
 0002:000114c8       $unwind$?deallocate@?$allocator@D@std@@QEAAXPEAD_K@Z 00000001800394c8     node_printer.obj
 0002:000114c8       $unwind$?_Locinfo_dtor@_Locinfo@std@@SAXPEAV12@@Z 00000001800394c8     libcpmt:locale0.obj
 0002:000114c8       $unwind$_GetImageBase      00000001800394c8     libvcruntime:trnsctrl.obj
 0002:000114c8       $unwind$?__scrt_uninitialize_thread_safe_statics@@YAXXZ 00000001800394c8     LIBCMT:thread_safe_statics.obj
 0002:000114c8       $unwind$??__Fresult@?1??getStatusMap@?A0xcb87c0d3@@YAAEBV?$map@V?$basic_string@DU?$char_traits@D@std@@V?$allocator@D@2@@std@@KU?$less@V?$basic_string@DU?$char_traits@D@std@@V?$allocator@D@2@@std@@@2@V?$allocator@U?$pair@$$CBV?$basic_string@DU?$char_traits@D@std@@V?$allocator@D@2@@std@@K@std@@@2@@std@@XZ@YAXXZ 00000001800394c8     node_printer_win.obj
 0002:000114c8       $unwind$___lc_codepage_func 00000001800394c8     libucrt:initctype.obj
 0002:000114c8       $unwind$___lc_locale_name_func 00000001800394c8     libucrt:initctype.obj
 0002:000114c8       $unwind$__scrt_initialize_default_local_stdio_options 00000001800394c8     LIBCMT:default_local_stdio_options.obj
 0002:000114c8       $unwind$_GetThrowImageBase 00000001800394c8     libvcruntime:trnsctrl.obj
 0002:000114c8       $unwind$__acrt_uninitialize_critical 00000001800394c8     libucrt:initialization.obj
 0002:000114c8       $unwind$_invoke_watson     00000001800394c8     libucrt:invalid_parameter.obj
 0002:000114c8       $unwind$__acrt_thread_attach 00000001800394c8     libucrt:initialization.obj
 0002:000114c8       $unwind$_stricmp           00000001800394c8     libucrt:stricmp.obj
 0002:000114c8       $unwind$__acrt_initialize_multibyte 00000001800394c8     libucrt:mbctype.obj
 0002:000114c8       $unwind$?dllmain_crt_dispatch@@YAHQEAUHINSTANCE__@@KQEAX@Z 00000001800394c8     LIBCMT:dll_dllmain.obj
 0002:000114c8       $unwind$__acrt_can_use_vista_locale_apis 00000001800394c8     libucrt:winapi_thunks.obj
 0002:000114c8       $unwind$__acrt_thread_detach 00000001800394c8     libucrt:initialization.obj
 0002:000114c8       $unwind$_getfpstatusword   00000001800394c8     libucrt:_fenvutils.obj
 0002:000114c8       $unwind$_wcsicmp           00000001800394c8     libucrt:wcsicmp.obj
 0002:000114c8       $unwind$abort              00000001800394c8     libucrt:abort.obj
 0002:000114c8       $unwind$__vcrt_freefls     00000001800394c8     libvcruntime:per_thread_data.obj
 0002:000114c8       $unwind$initialize_c       00000001800394c8     libucrt:initialization.obj
 0002:000114c8       $unwind$__acrt_initialize_command_line 00000001800394c8     libucrt:argv_data.obj
 0002:000114c8       $unwind$uninitialize_environment 00000001800394c8     libucrt:initialization.obj
 0002:000114c8       $unwind$_getfpcontrolword  00000001800394c8     libucrt:_fenvutils.obj
 0002:000114c8       $unwind$__vcrt_getptd      00000001800394c8     libvcruntime:per_thread_data.obj
 0002:000114c8       $unwind$?state_case_normal_tchar@?$output_processor@DV?$string_output_adapter@D@__crt_stdio_output@@V?$format_validation_base@DV?$string_output_adapter@D@__crt_stdio_output@@@2@@__crt_stdio_output@@AEAA_ND@Z 00000001800394c8     libucrt:output.obj
 0002:000114c8       $unwind$tidy_global        00000001800394c8     libcpmt:locale0.obj
 0002:000114c8       $unwind$__vcrt_uninitialize_ptd 00000001800394c8     libvcruntime:per_thread_data.obj
 0002:000114c8       $unwind$__vcrt_initialize_ptd 00000001800394c8     libvcruntime:per_thread_data.obj
 0002:000114c8       $unwind$?state_case_size@?$output_processor@DV?$string_output_adapter@D@__crt_stdio_output@@V?$format_validation_base@DV?$string_output_adapter@D@__crt_stdio_output@@@2@@__crt_stdio_output@@AEAA_NXZ 00000001800394c8     libucrt:output.obj
 0002:000114c8       $unwind$___mb_cur_max_func 00000001800394c8     libucrt:initctype.obj
 0002:000114c8       $unwind$__report_rangecheckfailure 00000001800394c8     LIBCMT:gs_report.obj
 0002:000114c8       $unwind$?initialize_multibyte@@YAHXZ 00000001800394c8     libucrt:multibyte_initializer.obj
 0002:000114c8       $unwind$atexit             00000001800394c8     LIBCMT:utility.obj
 0002:000114c8       $unwind$__dcrt_terminate_console_output 00000001800394c8     libucrt:initcon.obj
 0002:000114c8       $unwind$__GSHandlerCheck   00000001800394c8     LIBCMT:_gshandler_.obj
 0002:000114c8       $unwind$__scrt_acquire_startup_lock 00000001800394c8     LIBCMT:utility.obj
 0002:000114c8       $unwind$??__Einitlocks@std@@YAXXZ 00000001800394c8     libcpmt:iosptrs.obj
 0002:000114c8       $unwind$__acrt_release_locale_ref 00000001800394c8     libucrt:locale_refcounting.obj
 0002:000114c8       $unwind$_wcsnicmp          00000001800394c8     libucrt:wcsnicmp.obj
 0002:000114c8       $unwind$__vcrt_thread_detach 00000001800394c8     libvcruntime:initialization.obj
 0002:000114c8       $unwind$?_Atexit@@YAXP6AXXZ@Z 00000001800394c8     libcpmt:iosptrs.obj
 0002:000114c8       $unwind$__scrt_dllmain_before_initialize_c 00000001800394c8     LIBCMT:utility.obj
 0002:000114c8       $unwind$__vcrt_thread_attach 00000001800394c8     libvcruntime:initialization.obj
 0002:000114c8       $unwind$__scrt_dllmain_after_initialize_c 00000001800394c8     LIBCMT:utility.obj
 0002:000114c8       $unwind$__vcrt_uninitialize_critical 00000001800394c8     libvcruntime:initialization.obj
 0002:000114c8       $unwind$_msize             00000001800394c8     libucrt:msize.obj
 0002:000114c8       $unwind$??__Fresult@?1??getAttributeMap@?A0xcb87c0d3@@YAAEBV?$map@V?$basic_string@DU?$char_traits@D@std@@V?$allocator@D@2@@std@@KU?$less@V?$basic_string@DU?$char_traits@D@std@@V?$allocator@D@2@@std@@@2@V?$allocator@U?$pair@$$CBV?$basic_string@DU?$char_traits@D@std@@V?$allocator@D@2@@std@@K@std@@@2@@std@@XZ@YAXXZ 00000001800394c8     node_printer_win.obj
 0002:000114c8       $unwind$__acrt_initialize_heap 00000001800394c8     libucrt:heap_handle.obj
 0002:000114c8       $unwind$__vcrt_uninitialize 00000001800394c8     libvcruntime:initialization.obj
 0002:000114c8       $unwind$??1_Lockit@std@@QEAA@XZ 00000001800394c8     libcpmt:xlock.obj
 0002:000114c8       $unwind$__scrt_dllmain_uninitialize_c 00000001800394c8     LIBCMT:utility.obj
 0002:000114c8       $unwind$localeconv         00000001800394c8     libucrt:localeconv.obj
 0002:000114c8       $unwind$??$_Immortalize@V_Iostream_error_category@std@@@std@@YAAEAV_Iostream_error_category@0@XZ 00000001800394c8     node_printer_win.obj
 0002:000114c8       $unwind$__crtDownlevelLocaleNameToLCID 00000001800394c8     libcpmt:winapinls.obj
 0002:000114c8       $unwind$__vcrt_initialize  00000001800394c8     libvcruntime:initialization.obj
 0002:000114c8       $unwind$__scrt_dllmain_uninitialize_critical 00000001800394c8     LIBCMT:utility.obj
 0002:000114c8       $unwind$??__Einitlocks@std@@YAXXZ 00000001800394c8     libcpmt:xlock.obj
 0002:000114c8       $unwind$_fileno            00000001800394c8     libucrt:fileno.obj
 0002:000114c8       $unwind$__scrt_dllmain_crt_thread_attach 00000001800394c8     LIBCMT:utility.obj
 0002:000114c8       $unwind$__scrt_dllmain_crt_thread_detach 00000001800394c8     LIBCMT:utility.obj
 0002:000114c8       $unwind$??$uninitialize_environment_internal@_W@@YAXAEAPEAPEA_W@Z 00000001800394c8     libucrt:environment_initialization.obj
 0002:000114c8       $unwind$??$uninitialize_environment_internal@D@@YAXAEAPEAPEAD@Z 00000001800394c8     libucrt:environment_initialization.obj
 0002:000114c8       $unwind$__dcrt_uninitialize_environments_nolock 00000001800394c8     libucrt:environment_initialization.obj
 0002:000114c8       $unwind$tolower            00000001800394c8     libucrt:tolower_toupper.obj
 0002:000114c8       $unwind$_get_osfhandle     00000001800394c8     libucrt:osfinfo.obj
 0002:000114c8       $unwind$__acrt_uninitialize_ptd 00000001800394c8     libucrt:per_thread_data.obj
 0002:000114c8       $unwind$__acrt_initialize_ptd 00000001800394c8     libucrt:per_thread_data.obj
 0002:000114c8       $unwind$??__Fresult@?1??getJobCommandMap@?A0xcb87c0d3@@YAAEBV?$map@V?$basic_string@DU?$char_traits@D@std@@V?$allocator@D@2@@std@@KU?$less@V?$basic_string@DU?$char_traits@D@std@@V?$allocator@D@2@@std@@@2@V?$allocator@U?$pair@$$CBV?$basic_string@DU?$char_traits@D@std@@V?$allocator@D@2@@std@@K@std@@@2@@std@@XZ@YAXXZ 00000001800394c8     node_printer_win.obj
 0002:000114c8       $unwind$__pctype_func      00000001800394c8     libucrt:ctype.obj
 0002:000114c8       $unwind$__std_terminate    00000001800394c8     libvcruntime:frame.obj
 0002:000114c8       $unwind$_isatty            00000001800394c8     libucrt:isatty.obj
 0002:000114c8       $unwind$__FrameUnwindFilter 00000001800394c8     libvcruntime:frame.obj
 0002:000114c8       $unwind$_set_errno_from_matherr 00000001800394c8     libucrt:fpexcept.obj
 0002:000114c8       $unwind$__acrt_DownlevelLocaleNameToLCID 00000001800394c8     libucrt:lcidtoname_downlevel.obj
 0002:000114c8       $unwind$__doserrno         00000001800394c8     libucrt:errno.obj
 0002:000114d0       $unwind$sprintf_s          00000001800394d0     node_printer_win.obj
 0002:000114e0       $unwind$??0logic_error@std@@QEAA@AEBV01@@Z 00000001800394e0     libcpmt:xthrow.obj
 0002:000114e0       $unwind$_set_statfp        00000001800394e0     libucrt:fpctrl.obj
 0002:000114e0       $unwind$??1?$basic_string@DU?$char_traits@D@std@@V?$allocator@D@2@@std@@QEAA@XZ 00000001800394e0     node_printer_win.obj
 0002:000114e0       $unwind$?do_widen@?$ctype@D@std@@MEBAPEBDPEBD0PEAD@Z 00000001800394e0     node_printer_win.obj
 0002:000114e0       $unwind$??0bad_exception@std@@QEAA@AEBV01@@Z 00000001800394e0     libvcruntime:frame.obj
 0002:000114e0       $unwind$?do_narrow@?$ctype@D@std@@MEBAPEBDPEBD0DPEAD@Z 00000001800394e0     node_printer_win.obj
 0002:000114e0       $unwind$??0length_error@std@@QEAA@AEBV01@@Z 00000001800394e0     libcpmt:xthrow.obj
 0002:000114e0       $unwind$_clrfp             00000001800394e0     libucrt:fpctrl.obj
 0002:000114e0       $unwind$?DloadReleaseSectionWriteAccess@@YAXXZ 00000001800394e0     DelayImp:delayhlp.obj
 0002:000114e0       $unwind$??_G_Facet_base@std@@UEAAPEAXI@Z 00000001800394e0     node_printer_win.obj
 0002:000114e0       $unwind$??0bad_alloc@std@@QEAA@AEBV01@@Z 00000001800394e0     libcpmt:xthrow.obj
 0002:000114e0       $unwind$??_Gruntime_error@std@@UEAAPEAXI@Z 00000001800394e0     node_printer_win.obj
 0002:000114e0       $unwind$??0out_of_range@std@@QEAA@AEBV01@@Z 00000001800394e0     libcpmt:xthrow.obj
 0002:000114e0       $unwind$_clearfp           00000001800394e0     libucrt:ieee.obj
 0002:000114e0       $unwind$??_Gexception@stdext@@UEAAPEAXI@Z 00000001800394e0     node_printer_win.obj
 0002:000114e0       $unwind$_Getctype          00000001800394e0     libcpmt:_tolower.obj
 0002:000114e0       $unwind$__acrt_freeptd     00000001800394e0     libucrt:per_thread_data.obj
 0002:000114e0       $unwind$_fflush_nolock     00000001800394e0     libucrt:fflush.obj
 0002:000114e0       $unwind$??0exception@std@@QEAA@AEBV01@@Z 00000001800394e0     libcpmt:xthrow.obj
 0002:000114e0       $unwind$??_Gerror_category@std@@UEAAPEAXI@Z 00000001800394e0     node_printer_win.obj
 0002:000114e0       $unwind$fesetenv           00000001800394e0     libucrt:fesetenv.obj
 0002:000114e0       $unwind$__std_exception_destroy 00000001800394e0     libvcruntime:std_exception.obj
 0002:000114e0       $unwind$?do_grouping@?$numpunct@D@std@@MEBA?AV?$basic_string@DU?$char_traits@D@std@@V?$allocator@D@2@@2@XZ 00000001800394e0     node_printer_win.obj
 0002:000114e0       $unwind$__acrt_fp_strflt_to_string 00000001800394e0     libucrt:_fptostr.obj
 0002:000114e0       $unwind$?do_falsename@?$numpunct@D@std@@MEBA?AV?$basic_string@DU?$char_traits@D@std@@V?$allocator@D@2@@2@XZ 00000001800394e0     node_printer_win.obj
 0002:000114e0       $unwind$__std_type_info_destroy_list 00000001800394e0     libvcruntime:std_type_info.obj
 0002:000114e0       $unwind$?do_truename@?$numpunct@D@std@@MEBA?AV?$basic_string@DU?$char_traits@D@std@@V?$allocator@D@2@@2@XZ 00000001800394e0     node_printer_win.obj
 0002:000114e0       $unwind$?initialize_pointers@@YAHXZ 00000001800394e0     libcpmt:winapisupp.obj
 0002:000114e0       $unwind$feholdexcept       00000001800394e0     libucrt:feholdexcept.obj
 0002:000114e0       $unwind$_calloc_base       00000001800394e0     libucrt:calloc_base.obj
 0002:000114e0       $unwind$??_G?$num_put@DV?$ostreambuf_iterator@DU?$char_traits@D@std@@@std@@@std@@MEAAPEAXI@Z 00000001800394e0     node_printer_win.obj
 0002:000114e0       $unwind$fegetenv           00000001800394e0     libucrt:fegetenv.obj
 0002:000114e0       $unwind$??0_Lockit@std@@QEAA@H@Z 00000001800394e0     libcpmt:xlock.obj
 0002:000114e0       $unwind$?_Tidy@?$basic_stringbuf@DU?$char_traits@D@std@@V?$allocator@D@2@@std@@IEAAXXZ 00000001800394e0     node_printer_win.obj
 0002:000114e0       $unwind$_malloc_base       00000001800394e0     libucrt:malloc_base.obj
 0002:000114e0       $unwind$?exit_or_terminate_process@@YAXI@Z 00000001800394e0     libucrt:exit.obj
 0002:000114e0       $unwind$?_Ios_base_dtor@ios_base@std@@CAXPEAV12@@Z 00000001800394e0     libcpmt:ios.obj
 0002:000114e0       $unwind$??_G_System_error@std@@UEAAPEAXI@Z 00000001800394e0     node_printer_win.obj
 0002:000114e0       $unwind$?type_case_integer@?$output_processor@DV?$string_output_adapter@D@__crt_stdio_output@@V?$format_validation_base@DV?$string_output_adapter@D@__crt_stdio_output@@@2@@__crt_stdio_output@@AEAA_NI_N@Z 00000001800394e0     libucrt:output.obj
 0002:000114e0       $unwind$__scrt_uninitialize_crt 00000001800394e0     LIBCMT:utility.obj
 0002:000114e0       $unwind$__scrt_initialize_crt 00000001800394e0     LIBCMT:utility.obj
 0002:000114e0       $unwind$__scrt_release_startup_lock 00000001800394e0     LIBCMT:utility.obj
 0002:000114e0       $unwind$__acrt_update_multibyte_info 00000001800394e0     libucrt:locale_update.obj
 0002:000114e0       $unwind$__vcrt_initialize_locks 00000001800394e0     libvcruntime:locks.obj
 0002:000114e0       $unwind$__acrt_update_locale_info 00000001800394e0     libucrt:locale_update.obj
 0002:000114e0       $unwind$?load_exe_hook@@YAP6A_JXZIPEAUDelayLoadInfo@@@Z 00000001800394e0     win_delay_load_hook.obj
 0002:000114e0       $unwind$_onexit            00000001800394e0     LIBCMT:utility.obj
 0002:000114e0       $unwind$?message@_Iostream_error_category@std@@UEBA?AV?$basic_string@DU?$char_traits@D@std@@V?$allocator@D@2@@2@H@Z 00000001800394e0     node_printer_win.obj
 0002:000114e0       $unwind$_setfpstatusword   00000001800394e0     libucrt:_fenvutils.obj
 0002:000114e0       $unwind$__vcrt_uninitialize_locks 00000001800394e0     libvcruntime:locks.obj
 0002:000114e0       $unwind$__acrt_allocate_buffer_for_argv 00000001800394e0     libucrt:argv_parsing.obj
 0002:000114e0       $unwind$uninitialize_allocated_memory 00000001800394e0     libucrt:initialization.obj
 0002:000114e0       $unwind$??_G_Iostream_error_category@std@@UEAAPEAXI@Z 00000001800394e0     node_printer_win.obj
 0002:000114e0       $unwind$_IsExceptionObjectToBeDestroyed 00000001800394e0     libvcruntime:trnsctrl.obj
 0002:000114e0       $unwind$initialize_pointers 00000001800394e0     libucrt:initialization.obj
 0002:000114e0       $unwind$?state_case_normal@?$output_processor@DV?$string_output_adapter@D@__crt_stdio_output@@V?$format_validation_base@DV?$string_output_adapter@D@__crt_stdio_output@@@2@@__crt_stdio_output@@AEAA_NXZ 00000001800394e0     libucrt:output.obj
 0002:000114e0       $unwind$?_Setgloballocale@locale@std@@CAXPEAX@Z 00000001800394e0     libcpmt:locale0.obj
 0002:000114e0       $unwind$__vcrt_freeptd     00000001800394e0     libvcruntime:per_thread_data.obj
 0002:000114e0       $unwind$??0?$output_processor@DV?$string_output_adapter@D@__crt_stdio_output@@V?$format_validation_base@DV?$string_output_adapter@D@__crt_stdio_output@@@2@@__crt_stdio_output@@QEAA@AEBV?$string_output_adapter@D@1@_KQEBDQEAU__crt_locale_pointers@@QEAD@Z 00000001800394e0     libucrt:output.obj
 0002:000114e0       $unwind$_CreateFrameInfo   00000001800394e0     libvcruntime:trnsctrl.obj
 0002:000114e0       $unwind$__raise_securityfailure 00000001800394e0     LIBCMT:gs_report.obj
 0002:000114e0       $unwind$wcscpy_s           00000001800394e0     libucrt:wcscpy_s.obj
 0002:000114e0       $unwind$wcscat_s           00000001800394e0     libucrt:wcscat_s.obj
 0002:000114e0       $unwind$_SetThrowImageBase 00000001800394e0     libvcruntime:trnsctrl.obj
 0002:000114e0       $unwind$??_Gfailure@ios_base@std@@UEAAPEAXI@Z 00000001800394e0     node_printer_win.obj
 0002:000114e0       $unwind$__acrt_uninitialize_stdio 00000001800394e0     libucrt:_file.obj
 0002:000114e0       $unwind$?__StateFromIp@@YAHPEBU_s_FuncInfo@@PEAU_xDISPATCHER_CONTEXT@@_J@Z 00000001800394e0     libvcruntime:ehstate.obj
 0002:000114e0       $unwind$_SetImageBase      00000001800394e0     libvcruntime:trnsctrl.obj
 0002:000114e0       $unwind$?uflow@?$basic_streambuf@DU?$char_traits@D@std@@@std@@MEAAHXZ 00000001800394e0     node_printer_win.obj
 0002:000114e0       $unwind$__acrt_stdio_free_buffer_nolock 00000001800394e0     libucrt:_freebuf.obj
 0002:000114e0       $unwind$_purecall          00000001800394e0     libvcruntime:purevirt.obj
 0002:000114e0       $unwind$strcpy_s           00000001800394e0     libucrt:strcpy_s.obj
 0002:000114e0       $unwind$??_Gtype_info@@UEAAPEAXI@Z 00000001800394e0     LIBCMT:std_type_info_static.obj
 0002:000114e0       $unwind$?_Facet_Register@std@@YAXPEAV_Facet_base@1@@Z 00000001800394e0     libcpmt:locale0.obj
 0002:000114e0       $unwind$__acrt_initialize_locks 00000001800394e0     libucrt:locks.obj
 0002:000114e0       $unwind$??2@YAPEAX_K@Z     00000001800394e0     LIBCMT:new_scalar.obj
 0002:000114e0       $unwind$__acrt_uninitialize_locks 00000001800394e0     libucrt:locks.obj
 0002:000114e0       $unwind$??0bad_array_new_length@std@@QEAA@AEBV01@@Z 00000001800394e0     LIBCMT:throw_bad_alloc.obj
 0002:000114e0       $unwind$??$_Insert_at@AEAU?$pair@$$CBV?$basic_string@DU?$char_traits@D@std@@V?$allocator@D@2@@std@@K@std@@PEAU?$_Tree_node@U?$pair@$$CBV?$basic_string@DU?$char_traits@D@std@@V?$allocator@D@2@@std@@K@std@@PEAX@2@@?$_Tree@V?$_Tmap_traits@V?$basic_string@DU?$char_traits@D@std@@V?$allocator@D@2@@std@@KU?$less@V?$basic_string@DU?$char_traits@D@std@@V?$allocator@D@2@@std@@@2@V?$allocator@U?$pair@$$CBV?$basic_string@DU?$char_traits@D@std@@V?$allocator@D@2@@std@@K@std@@@2@$0A@@std@@@std@@IEAA?AV?$_Tree_iterator@V?$_Tree_val@U?$_Tree_simple_types@U?$pair@$$CBV?$basic_string@DU?$char_traits@D@std@@V?$allocator@D@2@@std@@K@std@@@std@@@std@@@1@_NPEAU?$_Tree_node@U?$pair@$$CBV?$basic_string@DU?$char_traits@D@std@@V?$allocator@D@2@@std@@K@std@@PEAX@1@AEAU?$pair@$$CBV?$basic_string@DU?$char_traits@D@std@@V?$allocator@D@2@@std@@K@1@1@Z 00000001800394e0     node_printer_win.obj
 0002:000114e0       $unwind$_Init_thread_notify 00000001800394e0     LIBCMT:thread_safe_statics.obj
 0002:000114e0       $unwind$?__GetUnwindTryBlock@@YAHPEA_KPEAU_xDISPATCHER_CONTEXT@@PEBU_s_FuncInfo@@@Z 00000001800394e0     libvcruntime:ehstate.obj
 0002:000114e0       $unwind$__acrt_uninitialize_winapi_thunks 00000001800394e0     libucrt:winapi_thunks.obj
 0002:000114e0       $unwind$_Init_thread_footer 00000001800394e0     LIBCMT:thread_safe_statics.obj
 0002:000114e0       $unwind$_Init_thread_header 00000001800394e0     LIBCMT:thread_safe_statics.obj
 0002:000114e8       $unwind$_invalid_parameter_noinfo_noreturn 00000001800394e8     libucrt:invalid_parameter.obj
 0002:000114e8       $unwind$wctomb_s           00000001800394e8     libucrt:wctomb.obj
 0002:000114e8       $unwind$_itow_s            00000001800394e8     libucrt:xtoa.obj
 0002:000114e8       $unwind$_wtol              00000001800394e8     libucrt:atox.obj
 0002:000114e8       $unwind$?_Doraise@runtime_error@std@@MEBAXXZ 00000001800394e8     node_printer_win.obj
 0002:000114e8       $unwind$_invalid_parameter_noinfo 00000001800394e8     libucrt:invalid_parameter.obj
 0002:000114e8       $unwind$?_Doraise@failure@ios_base@std@@MEBAXXZ 00000001800394e8     node_printer_win.obj
 0002:000114e8       $unwind$mbstowcs_s         00000001800394e8     libucrt:mbstowcs.obj
 0002:000114e8       $unwind$_log10_special     00000001800394e8     libucrt:log_special.obj
 0002:000114f0       $unwind$??0_Locinfo@std@@QEAA@PEBD@Z 00000001800394f0     node_printer_win.obj
 0002:000114f0       $unwind$?x_ismbbtype_l@@YAHPEAU__crt_locale_pointers@@IHH@Z 00000001800394f0     libucrt:ismbbyte.obj
 0002:000114f0       $unwind$_stricmp_l         00000001800394f0     libucrt:stricmp.obj
 0002:00011500       $unwind$?_Getcat@?$ctype@D@std@@SA_KPEAPEBVfacet@locale@2@PEBV42@@Z 0000000180039500     node_printer_win.obj
 0002:00011510       $chain$0$?_Getcat@?$ctype@D@std@@SA_KPEAPEBVfacet@locale@2@PEBV42@@Z 0000000180039510     node_printer_win.obj
 0002:00011524       $chain$1$?_Getcat@?$ctype@D@std@@SA_KPEAPEBVfacet@locale@2@PEBV42@@Z 0000000180039524     node_printer_win.obj
 0002:00011534       $unwind$ProcessCodePage    0000000180039534     libucrt:getqloc_downlevel.obj
 0002:00011534       $unwind$ProcessCodePage    0000000180039534     libucrt:get_qualified_locale.obj
 0002:00011534       $unwind$TestDefaultLanguage 0000000180039534     libucrt:getqloc_downlevel.obj
 0002:00011534       $unwind$?do_toupper@?$ctype@D@std@@MEBAPEBDPEADPEBD@Z 0000000180039534     node_printer_win.obj
 0002:00011534       $unwind$?do_tolower@?$ctype@D@std@@MEBAPEBDPEADPEBD@Z 0000000180039534     node_printer_win.obj
 0002:00011544       $chain$0$?do_tolower@?$ctype@D@std@@MEBAPEBDPEADPEBD@Z 0000000180039544     node_printer_win.obj
 0002:00011558       $chain$1$?do_tolower@?$ctype@D@std@@MEBAPEBDPEADPEBD@Z 0000000180039558     node_printer_win.obj
 0002:00011568       $chain$0$?do_toupper@?$ctype@D@std@@MEBAPEBDPEADPEBD@Z 0000000180039568     node_printer_win.obj
 0002:0001157c       $chain$1$?do_toupper@?$ctype@D@std@@MEBAPEBDPEADPEBD@Z 000000018003957c     node_printer_win.obj
 0002:0001158c       $unwind$??0_System_error@std@@IEAA@Verror_code@1@AEBV?$basic_string@DU?$char_traits@D@std@@V?$allocator@D@2@@1@@Z 000000018003958c     node_printer_win.obj
 0002:000115a8       $unwind$?clear@ios_base@std@@QEAAXH_N@Z 00000001800395a8     node_printer_win.obj
 0002:000115bc       $chain$0$?clear@ios_base@std@@QEAAXH_N@Z 00000001800395bc     node_printer_win.obj
 0002:000115d0       $chain$1$?clear@ios_base@std@@QEAAXH_N@Z 00000001800395d0     node_printer_win.obj
 0002:000115e0       $chain$2$?clear@ios_base@std@@QEAAXH_N@Z 00000001800395e0     node_printer_win.obj
 0002:000115f4       $unwind$?getAttributeMap@?A0xcb87c0d3@@YAAEBV?$map@V?$basic_string@DU?$char_traits@D@std@@V?$allocator@D@2@@std@@KU?$less@V?$basic_string@DU?$char_traits@D@std@@V?$allocator@D@2@@std@@@2@V?$allocator@U?$pair@$$CBV?$basic_string@DU?$char_traits@D@std@@V?$allocator@D@2@@std@@K@std@@@2@@std@@XZ 00000001800395f4     node_printer_win.obj
 0002:000115f4       $unwind$?construct_ptd_array@@YAXQEAU__acrt_ptd@@@Z 00000001800395f4     libucrt:per_thread_data.obj
 0002:000115f4       $unwind$?getStatusMap@?A0xcb87c0d3@@YAAEBV?$map@V?$basic_string@DU?$char_traits@D@std@@V?$allocator@D@2@@std@@KU?$less@V?$basic_string@DU?$char_traits@D@std@@V?$allocator@D@2@@std@@@2@V?$allocator@U?$pair@$$CBV?$basic_string@DU?$char_traits@D@std@@V?$allocator@D@2@@std@@K@std@@@2@@std@@XZ 00000001800395f4     node_printer_win.obj
 0002:000115f4       $unwind$?getJobStatusMap@?A0xcb87c0d3@@YAAEBV?$map@V?$basic_string@DU?$char_traits@D@std@@V?$allocator@D@2@@std@@KU?$less@V?$basic_string@DU?$char_traits@D@std@@V?$allocator@D@2@@std@@@2@V?$allocator@U?$pair@$$CBV?$basic_string@DU?$char_traits@D@std@@V?$allocator@D@2@@std@@K@std@@@2@@std@@XZ 00000001800395f4     node_printer_win.obj
 0002:000115fc       $chain$2$?getStatusMap@?A0xcb87c0d3@@YAAEBV?$map@V?$basic_string@DU?$char_traits@D@std@@V?$allocator@D@2@@std@@KU?$less@V?$basic_string@DU?$char_traits@D@std@@V?$allocator@D@2@@std@@@2@V?$allocator@U?$pair@$$CBV?$basic_string@DU?$char_traits@D@std@@V?$allocator@D@2@@std@@K@std@@@2@@std@@XZ 00000001800395fc     node_printer_win.obj
 0002:00011618       $chain$3$?getStatusMap@?A0xcb87c0d3@@YAAEBV?$map@V?$basic_string@DU?$char_traits@D@std@@V?$allocator@D@2@@std@@KU?$less@V?$basic_string@DU?$char_traits@D@std@@V?$allocator@D@2@@std@@@2@V?$allocator@U?$pair@$$CBV?$basic_string@DU?$char_traits@D@std@@V?$allocator@D@2@@std@@K@std@@@2@@std@@XZ 0000000180039618     node_printer_win.obj
 0002:00011628       $chain$2$?getJobStatusMap@?A0xcb87c0d3@@YAAEBV?$map@V?$basic_string@DU?$char_traits@D@std@@V?$allocator@D@2@@std@@KU?$less@V?$basic_string@DU?$char_traits@D@std@@V?$allocator@D@2@@std@@@2@V?$allocator@U?$pair@$$CBV?$basic_string@DU?$char_traits@D@std@@V?$allocator@D@2@@std@@K@std@@@2@@std@@XZ 0000000180039628     node_printer_win.obj
 0002:00011644       $chain$3$?getJobStatusMap@?A0xcb87c0d3@@YAAEBV?$map@V?$basic_string@DU?$char_traits@D@std@@V?$allocator@D@2@@std@@KU?$less@V?$basic_string@DU?$char_traits@D@std@@V?$allocator@D@2@@std@@@2@V?$allocator@U?$pair@$$CBV?$basic_string@DU?$char_traits@D@std@@V?$allocator@D@2@@std@@K@std@@@2@@std@@XZ 0000000180039644     node_printer_win.obj
 0002:00011654       $chain$2$?getAttributeMap@?A0xcb87c0d3@@YAAEBV?$map@V?$basic_string@DU?$char_traits@D@std@@V?$allocator@D@2@@std@@KU?$less@V?$basic_string@DU?$char_traits@D@std@@V?$allocator@D@2@@std@@@2@V?$allocator@U?$pair@$$CBV?$basic_string@DU?$char_traits@D@std@@V?$allocator@D@2@@std@@K@std@@@2@@std@@XZ 0000000180039654     node_printer_win.obj
 0002:00011670       $chain$3$?getAttributeMap@?A0xcb87c0d3@@YAAEBV?$map@V?$basic_string@DU?$char_traits@D@std@@V?$allocator@D@2@@std@@KU?$less@V?$basic_string@DU?$char_traits@D@std@@V?$allocator@D@2@@std@@@2@V?$allocator@U?$pair@$$CBV?$basic_string@DU?$char_traits@D@std@@V?$allocator@D@2@@std@@K@std@@@2@@std@@XZ 0000000180039670     node_printer_win.obj
 0002:00011680       $unwind$?getJobCommandMap@?A0xcb87c0d3@@YAAEBV?$map@V?$basic_string@DU?$char_traits@D@std@@V?$allocator@D@2@@std@@KU?$less@V?$basic_string@DU?$char_traits@D@std@@V?$allocator@D@2@@std@@@2@V?$allocator@U?$pair@$$CBV?$basic_string@DU?$char_traits@D@std@@V?$allocator@D@2@@std@@K@std@@@2@@std@@XZ 0000000180039680     node_printer_win.obj
 0002:00011688       $chain$2$?getJobCommandMap@?A0xcb87c0d3@@YAAEBV?$map@V?$basic_string@DU?$char_traits@D@std@@V?$allocator@D@2@@std@@KU?$less@V?$basic_string@DU?$char_traits@D@std@@V?$allocator@D@2@@std@@@2@V?$allocator@U?$pair@$$CBV?$basic_string@DU?$char_traits@D@std@@V?$allocator@D@2@@std@@K@std@@@2@@std@@XZ 0000000180039688     node_printer_win.obj
 0002:000116a4       $chain$3$?getJobCommandMap@?A0xcb87c0d3@@YAAEBV?$map@V?$basic_string@DU?$char_traits@D@std@@V?$allocator@D@2@@std@@KU?$less@V?$basic_string@DU?$char_traits@D@std@@V?$allocator@D@2@@std@@@2@V?$allocator@U?$pair@$$CBV?$basic_string@DU?$char_traits@D@std@@V?$allocator@D@2@@std@@K@std@@@2@@std@@XZ 00000001800396a4     node_printer_win.obj
 0002:000116b4       $unwind$?parseJobObject@?A0xcb87c0d3@@YAXPEAU_JOB_INFO_2W@@V?$Local@VObject@v8@@@v8@@@Z 00000001800396b4     node_printer_win.obj
 0002:000116c4       $unwind$?getLastErrorCodeAndMessage@?A0xcb87c0d3@@YA?AV?$basic_string@DU?$char_traits@D@std@@V?$allocator@D@2@@std@@XZ 00000001800396c4     node_printer_win.obj
 0002:000116e4       $unwind$?retrieveAndParseJobs@?A0xcb87c0d3@@YA?AV?$basic_string@DU?$char_traits@D@std@@V?$allocator@D@2@@std@@QEA_WAEBKV?$Local@VObject@v8@@@v8@@AEAUPrinterHandle@1@@Z 00000001800396e4     node_printer_win.obj
 0002:00011704       $unwind$?parsePrinterInfo@?A0xcb87c0d3@@YA?AV?$basic_string@DU?$char_traits@D@std@@V?$allocator@D@2@@std@@PEBU_PRINTER_INFO_2W@@V?$Local@VObject@v8@@@v8@@AEAUPrinterHandle@1@@Z 0000000180039704     node_printer_win.obj
 0002:00011720       $unwind$?getPrinters@@YAXAEBV?$FunctionCallbackInfo@VValue@v8@@@v8@@@Z 0000000180039720     node_printer_win.obj
 0002:00011748       $unwind$?getDefaultPrinterName@@YAXAEBV?$FunctionCallbackInfo@VValue@v8@@@v8@@@Z 0000000180039748     node_printer_win.obj
 0002:00011754       $chain$0$?getDefaultPrinterName@@YAXAEBV?$FunctionCallbackInfo@VValue@v8@@@v8@@@Z 0000000180039754     node_printer_win.obj
 0002:00011768       $chain$1$?getDefaultPrinterName@@YAXAEBV?$FunctionCallbackInfo@VValue@v8@@@v8@@@Z 0000000180039768     node_printer_win.obj
 0002:00011778       $unwind$?getPrinter@@YAXAEBV?$FunctionCallbackInfo@VValue@v8@@@v8@@@Z 0000000180039778     node_printer_win.obj
 0002:00011794       $chain$0$?getPrinter@@YAXAEBV?$FunctionCallbackInfo@VValue@v8@@@v8@@@Z 0000000180039794     node_printer_win.obj
 0002:000117a8       $chain$1$?getPrinter@@YAXAEBV?$FunctionCallbackInfo@VValue@v8@@@v8@@@Z 00000001800397a8     node_printer_win.obj
 0002:000117b8       $unwind$?PrintFile@@YAXAEBV?$FunctionCallbackInfo@VValue@v8@@@v8@@@Z 00000001800397b8     node_printer_win.obj
 0002:000117b8       $unwind$?getPrinterDriverOptions@@YAXAEBV?$FunctionCallbackInfo@VValue@v8@@@v8@@@Z 00000001800397b8     node_printer_win.obj
 0002:000117c0       $unwind$?getJob@@YAXAEBV?$FunctionCallbackInfo@VValue@v8@@@v8@@@Z 00000001800397c0     node_printer_win.obj
 0002:000117d8       $chain$0$?getJob@@YAXAEBV?$FunctionCallbackInfo@VValue@v8@@@v8@@@Z 00000001800397d8     node_printer_win.obj
 0002:000117ec       $chain$1$?getJob@@YAXAEBV?$FunctionCallbackInfo@VValue@v8@@@v8@@@Z 00000001800397ec     node_printer_win.obj
 0002:00011800       $chain$2$?getJob@@YAXAEBV?$FunctionCallbackInfo@VValue@v8@@@v8@@@Z 0000000180039800     node_printer_win.obj
 0002:00011814       $chain$3$?getJob@@YAXAEBV?$FunctionCallbackInfo@VValue@v8@@@v8@@@Z 0000000180039814     node_printer_win.obj
 0002:00011824       $chain$4$?getJob@@YAXAEBV?$FunctionCallbackInfo@VValue@v8@@@v8@@@Z 0000000180039824     node_printer_win.obj
 0002:00011834       $chain$5$?getJob@@YAXAEBV?$FunctionCallbackInfo@VValue@v8@@@v8@@@Z 0000000180039834     node_printer_win.obj
 0002:00011844       $unwind$?setJob@@YAXAEBV?$FunctionCallbackInfo@VValue@v8@@@v8@@@Z 0000000180039844     node_printer_win.obj
 0002:0001185c       $chain$1$?setJob@@YAXAEBV?$FunctionCallbackInfo@VValue@v8@@@v8@@@Z 000000018003985c     node_printer_win.obj
 0002:00011874       $chain$2$?setJob@@YAXAEBV?$FunctionCallbackInfo@VValue@v8@@@v8@@@Z 0000000180039874     node_printer_win.obj
 0002:00011888       $chain$4$?setJob@@YAXAEBV?$FunctionCallbackInfo@VValue@v8@@@v8@@@Z 0000000180039888     node_printer_win.obj
 0002:000118a0       $chain$5$?setJob@@YAXAEBV?$FunctionCallbackInfo@VValue@v8@@@v8@@@Z 00000001800398a0     node_printer_win.obj
 0002:000118b4       $chain$6$?setJob@@YAXAEBV?$FunctionCallbackInfo@VValue@v8@@@v8@@@Z 00000001800398b4     node_printer_win.obj
 0002:000118c4       $chain$7$?setJob@@YAXAEBV?$FunctionCallbackInfo@VValue@v8@@@v8@@@Z 00000001800398c4     node_printer_win.obj
 0002:000118d4       $chain$8$?setJob@@YAXAEBV?$FunctionCallbackInfo@VValue@v8@@@v8@@@Z 00000001800398d4     node_printer_win.obj
 0002:000118e4       $unwind$?getSupportedJobCommands@@YAXAEBV?$FunctionCallbackInfo@VValue@v8@@@v8@@@Z 00000001800398e4     node_printer_win.obj
 0002:000118f4       $unwind$?getSupportedPrintFormats@@YAXAEBV?$FunctionCallbackInfo@VValue@v8@@@v8@@@Z 00000001800398f4     node_printer_win.obj
 0002:0001191c       $unwind$?PrintDirect@@YAXAEBV?$FunctionCallbackInfo@VValue@v8@@@v8@@@Z 000000018003991c     node_printer_win.obj
 0002:00011938       $chain$1$?PrintDirect@@YAXAEBV?$FunctionCallbackInfo@VValue@v8@@@v8@@@Z 0000000180039938     node_printer_win.obj
 0002:00011950       $chain$2$?PrintDirect@@YAXAEBV?$FunctionCallbackInfo@VValue@v8@@@v8@@@Z 0000000180039950     node_printer_win.obj
 0002:00011960       $unwind$?seekpos@?$basic_stringbuf@DU?$char_traits@D@std@@V?$allocator@D@2@@std@@MEAA?AV?$fpos@U_Mbstatet@@@2@V32@H@Z 0000000180039960     node_printer_win.obj
 0002:0001196c       $unwind$?seekoff@?$basic_stringbuf@DU?$char_traits@D@std@@V?$allocator@D@2@@std@@MEAA?AV?$fpos@U_Mbstatet@@@2@_JHH@Z 000000018003996c     node_printer_win.obj
 0002:0001197c       $unwind$?overflow@?$basic_stringbuf@DU?$char_traits@D@std@@V?$allocator@D@2@@std@@MEAAHH@Z 000000018003997c     node_printer_win.obj
 0002:0001197c       $unwind$__CxxCallCatchBlock$fin$1 000000018003997c     libvcruntime:frame.obj
 0002:00011988       $chain$0$?overflow@?$basic_stringbuf@DU?$char_traits@D@std@@V?$allocator@D@2@@std@@MEAAHH@Z 0000000180039988     node_printer_win.obj
 0002:0001199c       $chain$6$?overflow@?$basic_stringbuf@DU?$char_traits@D@std@@V?$allocator@D@2@@std@@MEAAHH@Z 000000018003999c     node_printer_win.obj
 0002:000119c0       $chain$7$?overflow@?$basic_stringbuf@DU?$char_traits@D@std@@V?$allocator@D@2@@std@@MEAAHH@Z 00000001800399c0     node_printer_win.obj
 0002:000119dc       $unwind$??6?$basic_ostream@DU?$char_traits@D@std@@@std@@QEAAAEAV01@K@Z 00000001800399dc     node_printer_win.obj
 0002:000119e4       $chain$1$??6?$basic_ostream@DU?$char_traits@D@std@@@std@@QEAAAEAV01@K@Z 00000001800399e4     node_printer_win.obj
 0002:000119fc       $chain$3$??6?$basic_ostream@DU?$char_traits@D@std@@@std@@QEAAAEAV01@K@Z 00000001800399fc     node_printer_win.obj
 0002:00011a14       $chain$4$??6?$basic_ostream@DU?$char_traits@D@std@@@std@@QEAAAEAV01@K@Z 0000000180039a14     node_printer_win.obj
 0002:00011a28       $chain$5$??6?$basic_ostream@DU?$char_traits@D@std@@@std@@QEAAAEAV01@K@Z 0000000180039a28     node_printer_win.obj
 0002:00011a38       $chain$6$??6?$basic_ostream@DU?$char_traits@D@std@@@std@@QEAAAEAV01@K@Z 0000000180039a38     node_printer_win.obj
 0002:00011a4c       $chain$9$??6?$basic_ostream@DU?$char_traits@D@std@@@std@@QEAAAEAV01@K@Z 0000000180039a4c     node_printer_win.obj
 0002:00011a4c       $chain$7$??6?$basic_ostream@DU?$char_traits@D@std@@@std@@QEAAAEAV01@K@Z 0000000180039a4c     node_printer_win.obj
 0002:00011a5c       $chain$8$??6?$basic_ostream@DU?$char_traits@D@std@@@std@@QEAAAEAV01@K@Z 0000000180039a5c     node_printer_win.obj
 0002:00011a74       $unwind$?xsputn@?$basic_streambuf@DU?$char_traits@D@std@@@std@@MEAA_JPEBD_J@Z 0000000180039a74     node_printer_win.obj
 0002:00011a88       $chain$0$?xsputn@?$basic_streambuf@DU?$char_traits@D@std@@@std@@MEAA_JPEBD_J@Z 0000000180039a88     node_printer_win.obj
 0002:00011a9c       $chain$1$?xsputn@?$basic_streambuf@DU?$char_traits@D@std@@@std@@MEAA_JPEBD_J@Z 0000000180039a9c     node_printer_win.obj
 0002:00011aac       $unwind$?xsgetn@?$basic_streambuf@DU?$char_traits@D@std@@@std@@MEAA_JPEAD_J@Z 0000000180039aac     node_printer_win.obj
 0002:00011abc       $chain$1$?xsgetn@?$basic_streambuf@DU?$char_traits@D@std@@@std@@MEAA_JPEAD_J@Z 0000000180039abc     node_printer_win.obj
 0002:00011ad4       $chain$2$?xsgetn@?$basic_streambuf@DU?$char_traits@D@std@@@std@@MEAA_JPEAD_J@Z 0000000180039ad4     node_printer_win.obj
 0002:00011ae4       $chain$3$?xsgetn@?$basic_streambuf@DU?$char_traits@D@std@@@std@@MEAA_JPEAD_J@Z 0000000180039ae4     node_printer_win.obj
 0002:00011afc       $unwind$?do_put@?$num_put@DV?$ostreambuf_iterator@DU?$char_traits@D@std@@@std@@@std@@MEBA?AV?$ostreambuf_iterator@DU?$char_traits@D@std@@@2@V32@AEAVios_base@2@DPEBX@Z 0000000180039afc     node_printer_win.obj
 0002:00011b14       $unwind$?do_put@?$num_put@DV?$ostreambuf_iterator@DU?$char_traits@D@std@@@std@@@std@@MEBA?AV?$ostreambuf_iterator@DU?$char_traits@D@std@@@2@V32@AEAVios_base@2@DO@Z 0000000180039b14     node_printer_win.obj
 0002:00011b14       $unwind$?do_put@?$num_put@DV?$ostreambuf_iterator@DU?$char_traits@D@std@@@std@@@std@@MEBA?AV?$ostreambuf_iterator@DU?$char_traits@D@std@@@2@V32@AEAVios_base@2@DN@Z 0000000180039b14     node_printer_win.obj
 0002:00011b38       $unwind$?do_put@?$num_put@DV?$ostreambuf_iterator@DU?$char_traits@D@std@@@std@@@std@@MEBA?AV?$ostreambuf_iterator@DU?$char_traits@D@std@@@2@V32@AEAVios_base@2@DK@Z 0000000180039b38     node_printer_win.obj
 0002:00011b38       $unwind$?do_put@?$num_put@DV?$ostreambuf_iterator@DU?$char_traits@D@std@@@std@@@std@@MEBA?AV?$ostreambuf_iterator@DU?$char_traits@D@std@@@2@V32@AEAVios_base@2@DJ@Z 0000000180039b38     node_printer_win.obj
 0002:00011b38       $unwind$?do_put@?$num_put@DV?$ostreambuf_iterator@DU?$char_traits@D@std@@@std@@@std@@MEBA?AV?$ostreambuf_iterator@DU?$char_traits@D@std@@@2@V32@AEAVios_base@2@D_K@Z 0000000180039b38     node_printer_win.obj
 0002:00011b38       $unwind$?do_put@?$num_put@DV?$ostreambuf_iterator@DU?$char_traits@D@std@@@std@@@std@@MEBA?AV?$ostreambuf_iterator@DU?$char_traits@D@std@@@2@V32@AEAVios_base@2@D_J@Z 0000000180039b38     node_printer_win.obj
 0002:00011b50       $unwind$?do_put@?$num_put@DV?$ostreambuf_iterator@DU?$char_traits@D@std@@@std@@@std@@MEBA?AV?$ostreambuf_iterator@DU?$char_traits@D@std@@@2@V32@AEAVios_base@2@D_N@Z 0000000180039b50     node_printer_win.obj
 0002:00011b6c       $chain$1$?do_put@?$num_put@DV?$ostreambuf_iterator@DU?$char_traits@D@std@@@std@@@std@@MEBA?AV?$ostreambuf_iterator@DU?$char_traits@D@std@@@2@V32@AEAVios_base@2@D_N@Z 0000000180039b6c     node_printer_win.obj
 0002:00011b84       $chain$2$?do_put@?$num_put@DV?$ostreambuf_iterator@DU?$char_traits@D@std@@@std@@@std@@MEBA?AV?$ostreambuf_iterator@DU?$char_traits@D@std@@@2@V32@AEAVios_base@2@D_N@Z 0000000180039b84     node_printer_win.obj
 0002:00011b98       $chain$3$?do_put@?$num_put@DV?$ostreambuf_iterator@DU?$char_traits@D@std@@@std@@@std@@MEBA?AV?$ostreambuf_iterator@DU?$char_traits@D@std@@@2@V32@AEAVios_base@2@D_N@Z 0000000180039b98     node_printer_win.obj
 0002:00011ba8       $chain$4$?do_put@?$num_put@DV?$ostreambuf_iterator@DU?$char_traits@D@std@@@std@@@std@@MEBA?AV?$ostreambuf_iterator@DU?$char_traits@D@std@@@2@V32@AEAVios_base@2@D_N@Z 0000000180039ba8     node_printer_win.obj
 0002:00011bb8       $chain$5$?do_put@?$num_put@DV?$ostreambuf_iterator@DU?$char_traits@D@std@@@std@@@std@@MEBA?AV?$ostreambuf_iterator@DU?$char_traits@D@std@@@2@V32@AEAVios_base@2@D_N@Z 0000000180039bb8     node_printer_win.obj
 0002:00011bd0       $unwind$?append@?$basic_string@DU?$char_traits@D@std@@V?$allocator@D@2@@std@@QEAAAEAV12@_KD@Z 0000000180039bd0     node_printer_win.obj
 0002:00011bd0       $unwind$?append@?$basic_string@DU?$char_traits@D@std@@V?$allocator@D@2@@std@@QEAAAEAV12@PEBD_K@Z 0000000180039bd0     node_printer_win.obj
 0002:00011be0       $chain$0$?append@?$basic_string@DU?$char_traits@D@std@@V?$allocator@D@2@@std@@QEAAAEAV12@PEBD_K@Z 0000000180039be0     node_printer_win.obj
 0002:00011bf4       $chain$1$?append@?$basic_string@DU?$char_traits@D@std@@V?$allocator@D@2@@std@@QEAAAEAV12@PEBD_K@Z 0000000180039bf4     node_printer_win.obj
 0002:00011c04       $chain$2$?append@?$basic_string@DU?$char_traits@D@std@@V?$allocator@D@2@@std@@QEAAAEAV12@PEBD_K@Z 0000000180039c04     node_printer_win.obj
 0002:00011c18       $unwind$?append@?$basic_string@DU?$char_traits@D@std@@V?$allocator@D@2@@std@@QEAAAEAV12@AEBV12@_K1@Z 0000000180039c18     node_printer_win.obj
 0002:00011c2c       $chain$0$?append@?$basic_string@DU?$char_traits@D@std@@V?$allocator@D@2@@std@@QEAAAEAV12@AEBV12@_K1@Z 0000000180039c2c     node_printer_win.obj
 0002:00011c40       $chain$1$?append@?$basic_string@DU?$char_traits@D@std@@V?$allocator@D@2@@std@@QEAAAEAV12@AEBV12@_K1@Z 0000000180039c40     node_printer_win.obj
 0002:00011c50       $chain$2$?append@?$basic_string@DU?$char_traits@D@std@@V?$allocator@D@2@@std@@QEAAAEAV12@AEBV12@_K1@Z 0000000180039c50     node_printer_win.obj
 0002:00011c64       $unwind$?str@?$basic_stringbuf@DU?$char_traits@D@std@@V?$allocator@D@2@@std@@QEBA?AV?$basic_string@DU?$char_traits@D@std@@V?$allocator@D@2@@2@XZ 0000000180039c64     node_printer_win.obj
 0002:00011c7c       $unwind$?_Iput@?$num_put@DV?$ostreambuf_iterator@DU?$char_traits@D@std@@@std@@@std@@AEBA?AV?$ostreambuf_iterator@DU?$char_traits@D@std@@@2@V32@AEAVios_base@2@DPEAD_K@Z 0000000180039c7c     node_printer_win.obj
 0002:00011ca0       $unwind$?_Fput@?$num_put@DV?$ostreambuf_iterator@DU?$char_traits@D@std@@@std@@@std@@AEBA?AV?$ostreambuf_iterator@DU?$char_traits@D@std@@@2@V32@AEAVios_base@2@DPEBD_K@Z 0000000180039ca0     node_printer_win.obj
 0002:00011cc4       $chain$0$?append@?$basic_string@DU?$char_traits@D@std@@V?$allocator@D@2@@std@@QEAAAEAV12@_KD@Z 0000000180039cc4     node_printer_win.obj
 0002:00011cd8       $chain$1$?append@?$basic_string@DU?$char_traits@D@std@@V?$allocator@D@2@@std@@QEAAAEAV12@_KD@Z 0000000180039cd8     node_printer_win.obj
 0002:00011ce8       $chain$2$?append@?$basic_string@DU?$char_traits@D@std@@V?$allocator@D@2@@std@@QEAAAEAV12@_KD@Z 0000000180039ce8     node_printer_win.obj
 0002:00011cfc       $unwind$?flush@?$basic_ostream@DU?$char_traits@D@std@@@std@@QEAAAEAV12@XZ 0000000180039cfc     node_printer_win.obj
 0002:00011cfc       $unwind$??0length_error@std@@QEAA@PEBD@Z 0000000180039cfc     libcpmt:xthrow.obj
 0002:00011cfc       $unwind$??0out_of_range@std@@QEAA@PEBD@Z 0000000180039cfc     libcpmt:xthrow.obj
 0002:00011cfc       $unwind$strtol             0000000180039cfc     libucrt:strtox.obj
 0002:00011cfc       $unwind$??$common_xtox_s@K_W@@YAHKQEA_W_KI_N@Z 0000000180039cfc     libucrt:xtoa.obj
 0002:00011cfc       $unwind$__stdio_common_vsprintf_s 0000000180039cfc     libucrt:output.obj
 0002:00011d04       $chain$1$?flush@?$basic_ostream@DU?$char_traits@D@std@@@std@@QEAAAEAV12@XZ 0000000180039d04     node_printer_win.obj
 0002:00011d1c       $chain$4$?flush@?$basic_ostream@DU?$char_traits@D@std@@@std@@QEAAAEAV12@XZ 0000000180039d1c     node_printer_win.obj
 0002:00011d1c       $chain$2$?flush@?$basic_ostream@DU?$char_traits@D@std@@@std@@QEAAAEAV12@XZ 0000000180039d1c     node_printer_win.obj
 0002:00011d2c       $chain$3$?flush@?$basic_ostream@DU?$char_traits@D@std@@@std@@QEAAAEAV12@XZ 0000000180039d2c     node_printer_win.obj
 0002:00011d44       $unwind$?expand_if_necessary@?$argument_list@D@?A0xca0879c4@@AEAAHXZ 0000000180039d44     libucrt:argv_wildcards.obj
 0002:00011d44       $unwind$__acrt_lowio_create_handle_array 0000000180039d44     libucrt:osfinfo.obj
 0002:00011d44       $unwind$?_ExecutionInCatch@@YAHPEAU_xDISPATCHER_CONTEXT@@PEBU_s_FuncInfo@@@Z 0000000180039d44     libvcruntime:trnsctrl.obj
 0002:00011d44       $unwind$?process@?$output_processor@DV?$string_output_adapter@D@__crt_stdio_output@@V?$format_validation_base@DV?$string_output_adapter@D@__crt_stdio_output@@@2@@__crt_stdio_output@@QEAAHXZ 0000000180039d44     libucrt:output.obj
 0002:00011d44       $unwind$__acrt_execute_initializers 0000000180039d44     libucrt:shared_initialization.obj
 0002:00011d44       $unwind$__crtInitializeCriticalSectionEx 0000000180039d44     libcpmt:winapisupp.obj
 0002:00011d44       $unwind$_recalloc_base     0000000180039d44     libucrt:recalloc.obj
 0002:00011d44       $unwind$?dllmain_raw@@YAHQEAUHINSTANCE__@@KQEAX@Z 0000000180039d44     LIBCMT:dll_dllmain.obj
 0002:00011d44       $unwind$??$ensure_buffer_is_big_enough@D@formatting_buffer@__crt_stdio_output@@QEAA_N_K@Z 0000000180039d44     libucrt:output.obj
 0002:00011d44       $unwind$__acrt_InitializeCriticalSectionEx 0000000180039d44     libucrt:winapi_thunks.obj
 0002:00011d44       $unwind$__vcrt_InitializeCriticalSectionEx 0000000180039d44     libvcruntime:winapi_downlevel.obj
 0002:00011d44       $unwind$_seh_filter_exe    0000000180039d44     libucrt:exception_filter.obj
 0002:00011d44       $unwind$?setSBCS@@YAXPEAU__crt_multibyte_data@@@Z 0000000180039d44     libucrt:mbctype.obj
 0002:00011d44       $unwind$__acrt_free_locale 0000000180039d44     libucrt:locale_refcounting.obj
 0002:00011d44       $unwind$?init@?$basic_ios@DU?$char_traits@D@std@@@std@@IEAAXPEAV?$basic_streambuf@DU?$char_traits@D@std@@@2@_N@Z 0000000180039d44     node_printer_win.obj
 0002:00011d44       $unwind$__scrt_dllmain_exception_filter 0000000180039d44     LIBCMT:utility.obj
 0002:00011d58       $unwind$?widen@?$basic_ios@DU?$char_traits@D@std@@@std@@QEBADD@Z 0000000180039d58     node_printer_win.obj
 0002:00011d64       $unwind$?_Erase@?$_Tree@V?$_Tmap_traits@V?$basic_string@DU?$char_traits@D@std@@V?$allocator@D@2@@std@@KU?$less@V?$basic_string@DU?$char_traits@D@std@@V?$allocator@D@2@@std@@@2@V?$allocator@U?$pair@$$CBV?$basic_string@DU?$char_traits@D@std@@V?$allocator@D@2@@std@@K@std@@@2@$0A@@std@@@std@@IEAAXPEAU?$_Tree_node@U?$pair@$$CBV?$basic_string@DU?$char_traits@D@std@@V?$allocator@D@2@@std@@K@std@@PEAX@2@@Z 0000000180039d64     node_printer_win.obj
 0002:00011d74       $chain$0$?_Erase@?$_Tree@V?$_Tmap_traits@V?$basic_string@DU?$char_traits@D@std@@V?$allocator@D@2@@std@@KU?$less@V?$basic_string@DU?$char_traits@D@std@@V?$allocator@D@2@@std@@@2@V?$allocator@U?$pair@$$CBV?$basic_string@DU?$char_traits@D@std@@V?$allocator@D@2@@std@@K@std@@@2@$0A@@std@@@std@@IEAAXPEAU?$_Tree_node@U?$pair@$$CBV?$basic_string@DU?$char_traits@D@std@@V?$allocator@D@2@@std@@K@std@@PEAX@2@@Z 0000000180039d74     node_printer_win.obj
 0002:00011d88       $chain$1$?_Erase@?$_Tree@V?$_Tmap_traits@V?$basic_string@DU?$char_traits@D@std@@V?$allocator@D@2@@std@@KU?$less@V?$basic_string@DU?$char_traits@D@std@@V?$allocator@D@2@@std@@@2@V?$allocator@U?$pair@$$CBV?$basic_string@DU?$char_traits@D@std@@V?$allocator@D@2@@std@@K@std@@@2@$0A@@std@@@std@@IEAAXPEAU?$_Tree_node@U?$pair@$$CBV?$basic_string@DU?$char_traits@D@std@@V?$allocator@D@2@@std@@K@std@@PEAX@2@@Z 0000000180039d88     node_printer_win.obj
 0002:00011d98       $chain$2$?_Erase@?$_Tree@V?$_Tmap_traits@V?$basic_string@DU?$char_traits@D@std@@V?$allocator@D@2@@std@@KU?$less@V?$basic_string@DU?$char_traits@D@std@@V?$allocator@D@2@@std@@@2@V?$allocator@U?$pair@$$CBV?$basic_string@DU?$char_traits@D@std@@V?$allocator@D@2@@std@@K@std@@@2@$0A@@std@@@std@@IEAAXPEAU?$_Tree_node@U?$pair@$$CBV?$basic_string@DU?$char_traits@D@std@@V?$allocator@D@2@@std@@K@std@@PEAX@2@@Z 0000000180039d98     node_printer_win.obj
 0002:00011dac       $unwind$??$use_facet@V?$numpunct@D@std@@@std@@YAAEBV?$numpunct@D@0@AEBVlocale@0@@Z 0000000180039dac     node_printer_win.obj
 0002:00011dac       $unwind$??$use_facet@V?$ctype@D@std@@@std@@YAAEBV?$ctype@D@0@AEBVlocale@0@@Z 0000000180039dac     node_printer_win.obj
 0002:00011dbc       $unwind$??$?6U?$char_traits@D@std@@@std@@YAAEAV?$basic_ostream@DU?$char_traits@D@std@@@0@AEAV10@PEBD@Z 0000000180039dbc     node_printer_win.obj
 0002:00011dc4       $chain$3$??$?6U?$char_traits@D@std@@@std@@YAAEAV?$basic_ostream@DU?$char_traits@D@std@@@0@AEAV10@PEBD@Z 0000000180039dc4     node_printer_win.obj
 0002:00011de4       $chain$4$??$?6U?$char_traits@D@std@@@std@@YAAEAV?$basic_ostream@DU?$char_traits@D@std@@@0@AEAV10@PEBD@Z 0000000180039de4     node_printer_win.obj
 0002:00011df8       $chain$5$??$?6U?$char_traits@D@std@@@std@@YAAEAV?$basic_ostream@DU?$char_traits@D@std@@@0@AEAV10@PEBD@Z 0000000180039df8     node_printer_win.obj
 0002:00011df8       $chain$7$??$?6U?$char_traits@D@std@@@std@@YAAEAV?$basic_ostream@DU?$char_traits@D@std@@@0@AEAV10@PEBD@Z 0000000180039df8     node_printer_win.obj
 0002:00011e08       $chain$6$??$?6U?$char_traits@D@std@@@std@@YAAEAV?$basic_ostream@DU?$char_traits@D@std@@@0@AEAV10@PEBD@Z 0000000180039e08     node_printer_win.obj
 0002:00011e28       $unwind$??$?6DU?$char_traits@D@std@@V?$allocator@D@1@@std@@YAAEAV?$basic_ostream@DU?$char_traits@D@std@@@0@AEAV10@AEBV?$basic_string@DU?$char_traits@D@std@@V?$allocator@D@2@@0@@Z 0000000180039e28     node_printer_win.obj
 0002:00011e40       $unwind$??$use_facet@V?$num_put@DV?$ostreambuf_iterator@DU?$char_traits@D@std@@@std@@@std@@@std@@YAAEBV?$num_put@DV?$ostreambuf_iterator@DU?$char_traits@D@std@@@std@@@0@AEBVlocale@0@@Z 0000000180039e40     node_printer_win.obj
 0002:00011e54       $unwind$?_Getcat@?$numpunct@D@std@@SA_KPEAPEBVfacet@locale@2@PEBV42@@Z 0000000180039e54     node_printer_win.obj
 0002:00011e64       $chain$0$?_Getcat@?$numpunct@D@std@@SA_KPEAPEBVfacet@locale@2@PEBV42@@Z 0000000180039e64     node_printer_win.obj
 0002:00011e78       $chain$1$?_Getcat@?$numpunct@D@std@@SA_KPEAPEBVfacet@locale@2@PEBV42@@Z 0000000180039e78     node_printer_win.obj
 0002:00011e88       $unwind$?_Init@?$numpunct@D@std@@IEAAXAEBV_Locinfo@2@_N@Z 0000000180039e88     node_printer_win.obj
 0002:00011ea0       $unwind$??$emplace@U?$pair@PEBDH@std@@@?$_Tree@V?$_Tmap_traits@V?$basic_string@DU?$char_traits@D@std@@V?$allocator@D@2@@std@@KU?$less@V?$basic_string@DU?$char_traits@D@std@@V?$allocator@D@2@@std@@@2@V?$allocator@U?$pair@$$CBV?$basic_string@DU?$char_traits@D@std@@V?$allocator@D@2@@std@@K@std@@@2@$0A@@std@@@std@@QEAA?AU?$pair@V?$_Tree_iterator@V?$_Tree_val@U?$_Tree_simple_types@U?$pair@$$CBV?$basic_string@DU?$char_traits@D@std@@V?$allocator@D@2@@std@@K@std@@@std@@@std@@@std@@_N@1@$$QEAU?$pair@PEBDH@1@@Z 0000000180039ea0     node_printer_win.obj
 0002:00011eb8       $unwind$??$_Insert_nohint@AEAU?$pair@$$CBV?$basic_string@DU?$char_traits@D@std@@V?$allocator@D@2@@std@@K@std@@PEAU?$_Tree_node@U?$pair@$$CBV?$basic_string@DU?$char_traits@D@std@@V?$allocator@D@2@@std@@K@std@@PEAX@2@@?$_Tree@V?$_Tmap_traits@V?$basic_string@DU?$char_traits@D@std@@V?$allocator@D@2@@std@@KU?$less@V?$basic_string@DU?$char_traits@D@std@@V?$allocator@D@2@@std@@@2@V?$allocator@U?$pair@$$CBV?$basic_string@DU?$char_traits@D@std@@V?$allocator@D@2@@std@@K@std@@@2@$0A@@std@@@std@@IEAA?AU?$pair@V?$_Tree_iterator@V?$_Tree_val@U?$_Tree_simple_types@U?$pair@$$CBV?$basic_string@DU?$char_traits@D@std@@V?$allocator@D@2@@std@@K@std@@@std@@@std@@@std@@_N@1@_NAEAU?$pair@$$CBV?$basic_string@DU?$char_traits@D@std@@V?$allocator@D@2@@std@@K@1@PEAU?$_Tree_node@U?$pair@$$CBV?$basic_string@DU?$char_traits@D@std@@V?$allocator@D@2@@std@@K@std@@PEAX@1@@Z 0000000180039eb8     node_printer_win.obj
 0002:00011ecc       $chain$1$??$_Insert_nohint@AEAU?$pair@$$CBV?$basic_string@DU?$char_traits@D@std@@V?$allocator@D@2@@std@@K@std@@PEAU?$_Tree_node@U?$pair@$$CBV?$basic_string@DU?$char_traits@D@std@@V?$allocator@D@2@@std@@K@std@@PEAX@2@@?$_Tree@V?$_Tmap_traits@V?$basic_string@DU?$char_traits@D@std@@V?$allocator@D@2@@std@@KU?$less@V?$basic_string@DU?$char_traits@D@std@@V?$allocator@D@2@@std@@@2@V?$allocator@U?$pair@$$CBV?$basic_string@DU?$char_traits@D@std@@V?$allocator@D@2@@std@@K@std@@@2@$0A@@std@@@std@@IEAA?AU?$pair@V?$_Tree_iterator@V?$_Tree_val@U?$_Tree_simple_types@U?$pair@$$CBV?$basic_string@DU?$char_traits@D@std@@V?$allocator@D@2@@std@@K@std@@@std@@@std@@@std@@_N@1@_NAEAU?$pair@$$CBV?$basic_string@DU?$char_traits@D@std@@V?$allocator@D@2@@std@@K@1@PEAU?$_Tree_node@U?$pair@$$CBV?$basic_string@DU?$char_traits@D@std@@V?$allocator@D@2@@std@@K@std@@PEAX@1@@Z 0000000180039ecc     node_printer_win.obj
 0002:00011ee4       $chain$2$??$_Insert_nohint@AEAU?$pair@$$CBV?$basic_string@DU?$char_traits@D@std@@V?$allocator@D@2@@std@@K@std@@PEAU?$_Tree_node@U?$pair@$$CBV?$basic_string@DU?$char_traits@D@std@@V?$allocator@D@2@@std@@K@std@@PEAX@2@@?$_Tree@V?$_Tmap_traits@V?$basic_string@DU?$char_traits@D@std@@V?$allocator@D@2@@std@@KU?$less@V?$basic_string@DU?$char_traits@D@std@@V?$allocator@D@2@@std@@@2@V?$allocator@U?$pair@$$CBV?$basic_string@DU?$char_traits@D@std@@V?$allocator@D@2@@std@@K@std@@@2@$0A@@std@@@std@@IEAA?AU?$pair@V?$_Tree_iterator@V?$_Tree_val@U?$_Tree_simple_types@U?$pair@$$CBV?$basic_string@DU?$char_traits@D@std@@V?$allocator@D@2@@std@@K@std@@@std@@@std@@@std@@_N@1@_NAEAU?$pair@$$CBV?$basic_string@DU?$char_traits@D@std@@V?$allocator@D@2@@std@@K@1@PEAU?$_Tree_node@U?$pair@$$CBV?$basic_string@DU?$char_traits@D@std@@V?$allocator@D@2@@std@@K@std@@PEAX@1@@Z 0000000180039ee4     node_printer_win.obj
 0002:00011ef4       xdata                      0000000180039ef4     node:node.exe
 0002:00011efc       $unwind$??_G_Fac_node@std@@QEAAPEAXI@Z 0000000180039efc     libcpmt:locale0.obj
 0002:00011f18       $ip2state$??_G_Fac_node@std@@QEAAPEAXI@Z 0000000180039f18     libcpmt:locale0.obj
 0002:00011f30       $unwind$?_Locimp_dtor@_Locimp@locale@std@@CAXPEAV123@@Z 0000000180039f30     libcpmt:locale0.obj
 0002:00011f4c       $stateUnwindMap$?_Locimp_dtor@_Locimp@locale@std@@CAXPEAV123@@Z 0000000180039f4c     libcpmt:locale0.obj
 0002:00011f4c       $stateUnwindMap$?_Init@locale@std@@CAPEAV_Locimp@12@_N@Z 0000000180039f4c     libcpmt:locale0.obj
 0002:00011f58       $ip2state$?_Locimp_dtor@_Locimp@locale@std@@CAXPEAV123@@Z 0000000180039f58     libcpmt:locale0.obj
 0002:00011f70       $unwind$??_G_Locimp@locale@std@@MEAAPEAXI@Z 0000000180039f70     libcpmt:locale0.obj
 0002:00011f88       $ip2state$??_G_Locimp@locale@std@@MEAAPEAXI@Z 0000000180039f88     libcpmt:locale0.obj
 0002:00011fa0       $unwind$?_Init@locale@std@@CAPEAV_Locimp@12@_N@Z 0000000180039fa0     libcpmt:locale0.obj
 0002:00011fb8       $ip2state$?_Init@locale@std@@CAPEAV_Locimp@12@_N@Z 0000000180039fb8     libcpmt:locale0.obj
 0002:00011fd0       $unwind$??__Fclassic_locale@std@@YAXXZ 0000000180039fd0     libcpmt:locale0.obj
 0002:00011fe8       $ip2state$??__Fclassic_locale@std@@YAXXZ 0000000180039fe8     libcpmt:locale0.obj
 0002:00012000       $unwind$_Tolower           000000018003a000     libcpmt:_tolower.obj
 0002:00012010       $unwind$_Toupper           000000018003a010     libcpmt:_toupper.obj
 0002:00012024       $unwind$??__Finit_atexit@@YAXXZ 000000018003a024     libcpmt:iosptrs.obj
 0002:00012034       $stateUnwindMap$??__Fclassic_locale@std@@YAXXZ 000000018003a034     libcpmt:locale0.obj
 0002:00012034       $stateUnwindMap$??_G_Locimp@locale@std@@MEAAPEAXI@Z 000000018003a034     libcpmt:locale0.obj
 0002:00012034       $stateUnwindMap$??__Finit_atexit@@YAXXZ 000000018003a034     libcpmt:iosptrs.obj
 0002:00012034       $stateUnwindMap$??_G_Fac_node@std@@QEAAPEAXI@Z 000000018003a034     libcpmt:locale0.obj
 0002:00012040       $ip2state$??__Finit_atexit@@YAXXZ 000000018003a040     libcpmt:iosptrs.obj
 0002:00012058       $unwind$__crtLCMapStringA  000000018003a058     libcpmt:StlLCMapStringA.obj
 0002:00012080       $xdatasym                  000000018003a080     LIBCMT:_amdsecgs_.obj
 0002:00012084       $unwind$__scrt_is_nonwritable_in_current_image 000000018003a084     LIBCMT:utility.obj
 0002:000120a4       $unwind$__scrt_is_nonwritable_in_current_image$filt$0 000000018003a0a4     LIBCMT:utility.obj
 0002:000120ac       $unwind$__scrt_initialize_onexit_tables 000000018003a0ac     LIBCMT:utility.obj
 0002:000120b8       $unwind$?dllmain_crt_process_attach@@YAHQEAUHINSTANCE__@@QEAX@Z 000000018003a0b8     LIBCMT:dll_dllmain.obj
 0002:000120e4       $unwind$_fcloseall$fin$0   000000018003a0e4     libucrt:closeall.obj
 0002:000120e4       $unwind$_query_new_handler$fin$0 000000018003a0e4     libucrt:new_handler.obj
 0002:000120e4       $unwind$__FrameUnwindToState$fin$1 000000018003a0e4     libvcruntime:frame.obj
 0002:000120e4       $unwind$?fin$0@?0???$?RV<lambda_d67e8342c384adda8f857579ab50b2ae>@@AEAV<lambda_30712929f77e709619002f448b6a9510>@@V<lambda_4525336fd7e478d965fb7ca7a337cad8>@@@?$__crt_seh_guarded_call@X@@QEAAX$$QEAV<lambda_d67e8342c384adda8f857579ab50b2ae>@@AEAV<lambda_30712929f77e709619002f448b6a9510>@@$$QEAV<lambda_4525336fd7e478d965fb7ca7a337cad8>@@@Z@4HA 000000018003a0e4     libucrt:wsetlocale.obj
 0002:000120e4       $unwind$?fin$1@?0??common_exit@@YAXHW4_crt_exit_cleanup_mode@@W4_crt_exit_return_mode@@@Z@4HA 000000018003a0e4     libucrt:exit.obj
 0002:000120e4       $unwind$_write$fin$0       000000018003a0e4     libucrt:write.obj
 0002:000120e4       $unwind$__FrameUnwindToState$filt$0 000000018003a0e4     libvcruntime:frame.obj
 0002:000120e4       $unwind$?fin$0@?0???$?RV<lambda_46352004c1216016012b18bd6f87e700>@@AEAV<lambda_3bd07e1a1191394380780325891bf33f>@@V<lambda_334532d3f185bcaa59b5be82d7d22bff>@@@?$__crt_seh_guarded_call@X@@QEAAX$$QEAV<lambda_46352004c1216016012b18bd6f87e700>@@AEAV<lambda_3bd07e1a1191394380780325891bf33f>@@$$QEAV<lambda_334532d3f185bcaa59b5be82d7d22bff>@@@Z@4HA 000000018003a0e4     libucrt:per_thread_data.obj
 0002:000120e4       $unwind$?fin$0@?0???$?RV<lambda_fb3a7dec4e47f37f22dae91bb15c9095>@@AEAV<lambda_698284760c8add0bfb0756c19673e34b>@@V<lambda_dfb8eca1e75fef3034a8fb18dd509707>@@@?$__crt_seh_guarded_call@X@@QEAAX$$QEAV<lambda_fb3a7dec4e47f37f22dae91bb15c9095>@@AEAV<lambda_698284760c8add0bfb0756c19673e34b>@@$$QEAV<lambda_dfb8eca1e75fef3034a8fb18dd509707>@@@Z@4HA 000000018003a0e4     libucrt:per_thread_data.obj
 0002:000120e4       $unwind$fclose$fin$0       000000018003a0e4     libucrt:fclose.obj
 0002:000120e4       $unwind$raise$fin$0        000000018003a0e4     libucrt:signal.obj
 0002:000120e4       $unwind$?fin$0@?0??dllmain_crt_process_attach@@YAHQEAUHINSTANCE__@@QEAX@Z@4HA 000000018003a0e4     LIBCMT:dll_dllmain.obj
 0002:000120e4       $unwind$__CxxCallCatchBlock$filt$0 000000018003a0e4     libvcruntime:frame.obj
 0002:000120e4       $unwind$?fin$0@?0???$?RV<lambda_5df02c53a8f32f81fd64e5bbb78039f1>@@AEAV<lambda_2af78c5f5901b1372d98f9ab3177dfa6>@@AEAV<lambda_f51fe5fd7c79a33db34fc9310f277369>@@@?$__crt_seh_guarded_call@X@@QEAAX$$QEAV<lambda_5df02c53a8f32f81fd64e5bbb78039f1>@@AEAV<lambda_2af78c5f5901b1372d98f9ab3177dfa6>@@AEAV<lambda_f51fe5fd7c79a33db34fc9310f277369>@@@Z@4HA 000000018003a0e4     libucrt:wsetlocale.obj
 0002:000120e4       $unwind$_ctrlfp$filt$0     000000018003a0e4     libucrt:fpctrl.obj
 0002:000120e4       $unwind$__acrt_update_thread_locale_data$fin$0 000000018003a0e4     libucrt:locale_refcounting.obj
 0002:000120e4       $unwind$?fin$0@?0???$?RV<lambda_bfedae4ebbf01fab1bb6dcc6a9e276e0>@@AEAV<lambda_2fe9b910cf3cbf4a0ab98a02ba45b3ec>@@V<lambda_237c231691f317818eb88cc1d5d642d6>@@@?$__crt_seh_guarded_call@H@@QEAAH$$QEAV<lambda_bfedae4ebbf01fab1bb6dcc6a9e276e0>@@AEAV<lambda_2fe9b910cf3cbf4a0ab98a02ba45b3ec>@@$$QEAV<lambda_237c231691f317818eb88cc1d5d642d6>@@@Z@4HA 000000018003a0e4     libucrt:close.obj
 0002:000120e4       $unwind$__acrt_initialize_lowio$fin$0 000000018003a0e4     libucrt:ioinit.obj
 0002:000120e4       $unwind$common_flush_all$fin$1 000000018003a0e4     libucrt:fflush.obj
 0002:000120e4       $unwind$?fin$0@?0???$?RV<lambda_b8c45f8f788dd370798f47cfe8ac3a86>@@AEAV<lambda_4e60a939b0d047cfe11ddc22648dfba9>@@V<lambda_332c3edc96d0294ec56c57d38c1cdfd5>@@@?$__crt_seh_guarded_call@H@@QEAAH$$QEAV<lambda_b8c45f8f788dd370798f47cfe8ac3a86>@@AEAV<lambda_4e60a939b0d047cfe11ddc22648dfba9>@@$$QEAV<lambda_332c3edc96d0294ec56c57d38c1cdfd5>@@@Z@4HA 000000018003a0e4     libucrt:onexit.obj
 0002:000120e4       $unwind$_IsNonwritableInCurrentImage$filt$0 000000018003a0e4     LIBCMT:pesect.obj
 0002:000120e4       $unwind$?fin$0@?0???$?RV<lambda_b521505b218e5242e90febf6bfebc422>@@AEAV<lambda_6978c1fb23f02e42e1d9e99668cc68aa>@@V<lambda_314360699dd331753a4119843814e9a7>@@@?$__crt_seh_guarded_call@H@@QEAAH$$QEAV<lambda_b521505b218e5242e90febf6bfebc422>@@AEAV<lambda_6978c1fb23f02e42e1d9e99668cc68aa>@@$$QEAV<lambda_314360699dd331753a4119843814e9a7>@@@Z@4HA 000000018003a0e4     libucrt:commit.obj
 0002:000120e4       $unwind$?fin$0@?0???$?RV<lambda_5e887d1dcbef67a5eb4283622ba103bf>@@AEAV<lambda_4466841279450cc726390878d4a41900>@@V<lambda_341c25c0346d94847f1f3c463c57e077>@@@?$__crt_seh_guarded_call@X@@QEAAX$$QEAV<lambda_5e887d1dcbef67a5eb4283622ba103bf>@@AEAV<lambda_4466841279450cc726390878d4a41900>@@$$QEAV<lambda_341c25c0346d94847f1f3c463c57e077>@@@Z@4HA 000000018003a0e4     libucrt:per_thread_data.obj
 0002:000120e4       $unwind$?fin$0@?0???$?RV<lambda_630b2aca97f6d20d5b5ea6529ea6b6af>@@AEAV<lambda_af91936f1d075d609f72d9d8cba980af>@@V<lambda_e82fa975f615b5c7c7b0e4d178fdae67>@@@?$__crt_seh_guarded_call@H@@QEAAH$$QEAV<lambda_630b2aca97f6d20d5b5ea6529ea6b6af>@@AEAV<lambda_af91936f1d075d609f72d9d8cba980af>@@$$QEAV<lambda_e82fa975f615b5c7c7b0e4d178fdae67>@@@Z@4HA 000000018003a0e4     libucrt:winapi_thunks.obj
 0002:000120e4       $unwind$__DestructExceptionObject$filt$0 000000018003a0e4     libvcruntime:frame.obj
 0002:000120e4       $unwind$__acrt_update_thread_multibyte_data$fin$0 000000018003a0e4     libucrt:mbctype.obj
 0002:000120e4       $unwind$?fin$0@?0???$?RV<lambda_99476a1ad63dd22509b5d3e65b0ffc95>@@AEAV<lambda_ad1ced32f4ac17aa236e5ef05d6b3b7c>@@V<lambda_f7424dd8d45958661754dc4f2697e9c3>@@@?$__crt_seh_guarded_call@X@@QEAAX$$QEAV<lambda_99476a1ad63dd22509b5d3e65b0ffc95>@@AEAV<lambda_ad1ced32f4ac17aa236e5ef05d6b3b7c>@@$$QEAV<lambda_f7424dd8d45958661754dc4f2697e9c3>@@@Z@4HA 000000018003a0e4     libucrt:mbctype.obj
 0002:000120e4       $unwind$common_flush_all$fin$0 000000018003a0e4     libucrt:fflush.obj
 0002:000120e4       $unwind$?fin$0@?0??dllmain_crt_process_detach@@YAH_N@Z@4HA 000000018003a0e4     LIBCMT:dll_dllmain.obj
 0002:000120e4       $unwind$__acrt_lowio_ensure_fh_exists$fin$0 000000018003a0e4     libucrt:osfinfo.obj
 0002:000120e4       $unwind$common_control87$filt$0 000000018003a0e4     libucrt:ieee.obj
 0002:000120e4       $unwind$__acrt_uninitialize_locale$fin$0 000000018003a0e4     libucrt:wsetlocale.obj
 0002:000120e4       $unwind$?fin$0@?0???$?RV<lambda_e24bbb7b643b32fcea6fa61b31d4c984>@@AEAV<lambda_275893d493268fdec8709772e3fcec0e>@@V<lambda_9d71df4d7cf3f480f8d633942495c3b0>@@@?$__crt_seh_guarded_call@H@@QEAAH$$QEAV<lambda_e24bbb7b643b32fcea6fa61b31d4c984>@@AEAV<lambda_275893d493268fdec8709772e3fcec0e>@@$$QEAV<lambda_9d71df4d7cf3f480f8d633942495c3b0>@@@Z@4HA 000000018003a0e4     libucrt:onexit.obj
 0002:000120e4       $unwind$?fin$0@?0???$?RV<lambda_72d1df2b273a38828b1ce30cbf4cdab5>@@AEAV<lambda_876a65b173b8412d3a47c70a915b0cf4>@@V<lambda_41932305e351933ebe8f8be3ed8bb5dc>@@@?$__crt_seh_guarded_call@X@@QEAAX$$QEAV<lambda_72d1df2b273a38828b1ce30cbf4cdab5>@@AEAV<lambda_876a65b173b8412d3a47c70a915b0cf4>@@$$QEAV<lambda_41932305e351933ebe8f8be3ed8bb5dc>@@@Z@4HA 000000018003a0e4     libucrt:per_thread_data.obj
 0002:000120e4       $unwind$?fin$0@?0???$?RV<lambda_c36588078e9f5dfd39652860aa6b3aaf>@@AEAV<lambda_ec61778202f4f5fc7e7711acc23c3bca>@@V<lambda_dc9d2797ccde5d239b4a0efae8ebd7db>@@@?$__crt_seh_guarded_call@P6AXH@Z@@QEAAP6AXH@Z$$QEAV<lambda_c36588078e9f5dfd39652860aa6b3aaf>@@AEAV<lambda_ec61778202f4f5fc7e7711acc23c3bca>@@$$QEAV<lambda_dc9d2797ccde5d239b4a0efae8ebd7db>@@@Z@4HA 000000018003a0e4     libucrt:signal.obj
 0002:000120e4       $unwind$?filt$0@?0??common_exit@@YAXHW4_crt_exit_cleanup_mode@@W4_crt_exit_return_mode@@@Z@4HA 000000018003a0e4     libucrt:exit.obj
 0002:000120ec       $unwind$?dllmain_crt_process_detach@@YAH_N@Z 000000018003a0ec     LIBCMT:dll_dllmain.obj
 0002:00012114       $unwind$?dllmain_dispatch@@YAHQEAUHINSTANCE__@@KQEAX@Z 000000018003a114     LIBCMT:dll_dllmain.obj
 0002:0001213c       $unwind$setlocale$fin$0    000000018003a13c     libucrt:setlocale.obj
 0002:0001213c       $unwind$?filt$0@?0??dllmain_dispatch@@YAHQEAUHINSTANCE__@@KQEAX@Z@4HA 000000018003a13c     LIBCMT:dll_dllmain.obj
 0002:00012144       $unwind$__GSHandlerCheckCommon 000000018003a144     LIBCMT:_gshandler_.obj
 0002:00012150       $xdatasym                  000000018003a150     LIBCMT:_chkstk_.obj
 0002:00012158       $unwind$__report_securityfailure 000000018003a158     LIBCMT:gs_report.obj
 0002:00012160       $unwind$__report_gsfailure 000000018003a160     LIBCMT:gs_report.obj
 0002:00012160       $unwind$_putwch_nolock     000000018003a160     libucrt:putwch.obj
 0002:00012168       $unwind$capture_current_context 000000018003a168     LIBCMT:gs_report.obj
 0002:00012174       $unwind$capture_previous_context 000000018003a174     LIBCMT:gs_report.obj
 0002:00012180       $unwind$__scrt_fastfail    000000018003a180     LIBCMT:utility_desktop.obj
 0002:00012190       $unwind$__isa_available_init 000000018003a190     LIBCMT:_cpu_disp_.obj
 0002:000121a0       $unwind$__security_init_cookie 000000018003a1a0     LIBCMT:gs_support.obj
 0002:000121b0       $xdatasym                  000000018003a1b0     LIBCMT:_guard_dispatch_.obj
 0002:000121b8       $xdatasym                  000000018003a1b8     libvcruntime:memcpy.obj
 0002:000121bc       $unwind$_CxxThrowException 000000018003a1bc     libvcruntime:throw.obj
 0002:000121d0       $unwind$__CxxCallCatchBlock 000000018003a1d0     libvcruntime:frame.obj
 0002:0001220c       $unwind$__FrameUnwindToState 000000018003a20c     libvcruntime:frame.obj
 0002:00012248       $unwind$?FindHandler@@YAXPEAUEHExceptionRecord@@PEA_KPEAU_CONTEXT@@PEAU_xDISPATCHER_CONTEXT@@PEBU_s_FuncInfo@@EH1@Z 000000018003a248     libvcruntime:frame.obj
 0002:00012268       $unwind$?CatchIt@@YAXPEAUEHExceptionRecord@@PEA_KPEAU_CONTEXT@@PEAU_xDISPATCHER_CONTEXT@@PEBU_s_FuncInfo@@PEBU_s_HandlerType@@PEBU_s_CatchableType@@PEBU_s_TryBlockMapEntry@@H1EE@Z 000000018003a268     libvcruntime:frame.obj
 0002:00012280       $unwind$__BuildCatchObject 000000018003a280     libvcruntime:frame.obj
 0002:000122ac       $unwind$?FindHandlerForForeignException@@YAXPEAUEHExceptionRecord@@PEA_KPEAU_CONTEXT@@PEAU_xDISPATCHER_CONTEXT@@PEBU_s_FuncInfo@@HH1@Z 000000018003a2ac     libvcruntime:frame.obj
 0002:000122c4       $unwind$__DestructExceptionObject 000000018003a2c4     libvcruntime:frame.obj
 0002:000122e8       $unwind$__acrt_locale_initialize_numeric 000000018003a2e8     libucrt:initnum.obj
 0002:000122e8       $unwind$__C_specific_handler 000000018003a2e8     libvcruntime:_chandler_.obj
 0002:000122e8       $unwind$__InternalCxxFrameHandler 000000018003a2e8     libvcruntime:frame.obj
 0002:00012304       $unwind$__BuildCatchObjectHelper 000000018003a304     libvcruntime:frame.obj
 0002:00012344       $unwind$?_GetEstablisherFrame@@YAPEA_KPEA_KPEAU_xDISPATCHER_CONTEXT@@PEBU_s_FuncInfo@@0@Z 000000018003a344     libvcruntime:trnsctrl.obj
 0002:0001235c       $unwind$?__FrameUnwindToEmptyState@@YAXPEA_KPEAU_xDISPATCHER_CONTEXT@@PEBU_s_FuncInfo@@@Z 000000018003a35c     libvcruntime:trnsctrl.obj
 0002:00012370       $unwind$_CallSETranslator  000000018003a370     libvcruntime:trnsctrl.obj
 0002:00012394       $unwind$_CallSETranslator$filt$0 000000018003a394     libvcruntime:trnsctrl.obj
 0002:0001239c       $unwind$_UnwindNestedFrames 000000018003a39c     libvcruntime:trnsctrl.obj
 0002:000123b0       $unwind$__CxxFrameHandler3 000000018003a3b0     libvcruntime:trnsctrl.obj
 0002:000123c0       $xdatasym                  000000018003a3c0     libvcruntime:memset.obj
 0002:000123c8       $xdatasym                  000000018003a3c8     libvcruntime:memcmp.obj
 0002:000123cc       $unwind$__vcrt_uninitialize_winapi_thunks 000000018003a3cc     libvcruntime:winapi_downlevel.obj
 0002:000123d8       $xdatasym                  000000018003a3d8     libvcruntime:handlers.obj
 0002:000123e0       $xdatasym                  000000018003a3e0     libvcruntime:_jmpuwind_.obj
 0002:000123f4       $unwind$__acrt_call_reportfault 000000018003a3f4     libucrt:invalid_parameter.obj
 0002:00012414       $unwind$_invalid_parameter 000000018003a414     libucrt:invalid_parameter.obj
 0002:0001242c       $unwind$??$common_vsprintf@Vformat_validation_base@__crt_stdio_output@@D@@YAH_KQEAD0QEBDQEAU__crt_locale_pointers@@1@Z 000000018003a42c     libucrt:output.obj
 0002:0001244c       $unwind$??$type_case_integer_parse_into_buffer@I@?$output_processor@DV?$string_output_adapter@D@__crt_stdio_output@@V?$format_validation_base@DV?$string_output_adapter@D@__crt_stdio_output@@@2@@__crt_stdio_output@@AEAAXII_N@Z 000000018003a44c     libucrt:output.obj
 0002:0001244c       $unwind$??$write_multiple_characters@V?$string_output_adapter@D@__crt_stdio_output@@D@__crt_stdio_output@@YAXAEBV?$string_output_adapter@D@0@DHQEAH@Z 000000018003a44c     libucrt:output.obj
 0002:0001244c       $unwind$??$type_case_integer_parse_into_buffer@_K@?$output_processor@DV?$string_output_adapter@D@__crt_stdio_output@@V?$format_validation_base@DV?$string_output_adapter@D@__crt_stdio_output@@@2@@__crt_stdio_output@@AEAAX_KI_N@Z 000000018003a44c     libucrt:output.obj
 0002:00012454       $unwind$?parse_int_from_format_string@?$output_processor@DV?$string_output_adapter@D@__crt_stdio_output@@V?$format_validation_base@DV?$string_output_adapter@D@__crt_stdio_output@@@2@@__crt_stdio_output@@AEAA_NQEAH@Z 000000018003a454     libucrt:output.obj
 0002:00012468       $unwind$?state_case_type@?$output_processor@DV?$string_output_adapter@D@__crt_stdio_output@@V?$format_validation_base@DV?$string_output_adapter@D@__crt_stdio_output@@@2@@__crt_stdio_output@@AEAA_NXZ 000000018003a468     libucrt:output.obj
 0002:00012480       $unwind$?type_case_a@?$output_processor@DV?$string_output_adapter@D@__crt_stdio_output@@V?$format_validation_base@DV?$string_output_adapter@D@__crt_stdio_output@@@2@@__crt_stdio_output@@AEAA_NXZ 000000018003a480     libucrt:output.obj
 0002:0001248c       $unwind$?write_stored_string_tchar@?$output_processor@DV?$string_output_adapter@D@__crt_stdio_output@@V?$format_validation_base@DV?$string_output_adapter@D@__crt_stdio_output@@@2@@__crt_stdio_output@@AEAA_ND@Z 000000018003a48c     libucrt:output.obj
 0002:000124a4       $unwind$frexp              000000018003a4a4     libucrt:frexp.obj
 0002:000124b8       $unwind$setlocale          000000018003a4b8     libucrt:setlocale.obj
 0002:000124e8       $unwind$call_wsetlocale    000000018003a4e8     libucrt:setlocale.obj
 0002:000124fc       $unwind$__acrt_DownlevelLCIDToLocaleName 000000018003a4fc     libucrt:lcidtoname_downlevel.obj
 0002:000124fc       $unwind$__lc_lctowcs       000000018003a4fc     libucrt:wsetlocale.obj
 0002:000124fc       $unwind$_wcsdup            000000018003a4fc     libucrt:wcsdup.obj
 0002:00012510       $unwind$__acrt_locale_initialize_ctype 000000018003a510     libucrt:initctype.obj
 0002:00012538       $unwind$?divide@__crt_strtox@@YA_KAEAUbig_integer@1@AEBU21@@Z 000000018003a538     libucrt:strtod.obj
 0002:00012558       $chain$5$?divide@__crt_strtox@@YA_KAEAUbig_integer@1@AEBU21@@Z 000000018003a558     libucrt:strtod.obj
 0002:0001256c       $chain$6$?divide@__crt_strtox@@YA_KAEAUbig_integer@1@AEBU21@@Z 000000018003a56c     libucrt:strtod.obj
 0002:00012580       $xdatasym                  000000018003a580     libucrt:pow.obj
 0002:00012590       $xdatasym                  000000018003a590     libucrt:powf.obj
 0002:000125a0       $unwind$__acrt_locale_free_numeric 000000018003a5a0     libucrt:initnum.obj
 0002:000125a0       $unwind$__acrt_locale_free_lc_time_if_unreferenced 000000018003a5a0     libucrt:locale_refcounting.obj
 0002:000125a0       $unwind$_free_base         000000018003a5a0     libucrt:free_base.obj
 0002:000125a0       $unwind$?destroy_fls@@YAXPEAX@Z 000000018003a5a0     libucrt:per_thread_data.obj
 0002:000125a8       $unwind$_tolower_l         000000018003a5a8     libucrt:tolower_toupper.obj
 0002:000125b8       $unwind$wcsnlen            000000018003a5b8     libucrt:strnlen.obj
 0002:000125b8       $unwind$strnlen            000000018003a5b8     libucrt:strnlen.obj
 0002:000125c0       $unwind$_query_new_handler 000000018003a5c0     libucrt:new_handler.obj
 0002:000125e0       $unwind$?common_exit@@YAXHW4_crt_exit_cleanup_mode@@W4_crt_exit_return_mode@@@Z 000000018003a5e0     libucrt:exit.obj
 0002:00012620       $unwind$_configure_narrow_argv 000000018003a620     libucrt:argv_parsing.obj
 0002:00012634       $unwind$??$free_environment@_W@@YAXQEAPEA_W@Z 000000018003a634     libucrt:environment_initialization.obj
 0002:00012634       $unwind$??$free_environment@D@@YAXQEAPEAD@Z 000000018003a634     libucrt:environment_initialization.obj
 0002:00012640       $unwind$_register_onexit_function 000000018003a640     libucrt:onexit.obj
 0002:00012648       $unwind$_execute_onexit_table 000000018003a648     libucrt:onexit.obj
 0002:00012650       $unwind$??$?RV<lambda_b8c45f8f788dd370798f47cfe8ac3a86>@@AEAV<lambda_4e60a939b0d047cfe11ddc22648dfba9>@@V<lambda_332c3edc96d0294ec56c57d38c1cdfd5>@@@?$__crt_seh_guarded_call@H@@QEAAH$$QEAV<lambda_b8c45f8f788dd370798f47cfe8ac3a86>@@AEAV<lambda_4e60a939b0d047cfe11ddc22648dfba9>@@$$QEAV<lambda_332c3edc96d0294ec56c57d38c1cdfd5>@@@Z 000000018003a650     libucrt:onexit.obj
 0002:00012674       $unwind$??$?RV<lambda_e24bbb7b643b32fcea6fa61b31d4c984>@@AEAV<lambda_275893d493268fdec8709772e3fcec0e>@@V<lambda_9d71df4d7cf3f480f8d633942495c3b0>@@@?$__crt_seh_guarded_call@H@@QEAAH$$QEAV<lambda_e24bbb7b643b32fcea6fa61b31d4c984>@@AEAV<lambda_275893d493268fdec8709772e3fcec0e>@@$$QEAV<lambda_9d71df4d7cf3f480f8d633942495c3b0>@@@Z 000000018003a674     libucrt:onexit.obj
 0002:000126a4       $unwind$__acrt_GetLocaleInfoEx 000000018003a6a4     libucrt:winapi_thunks.obj
 0002:000126a4       $unwind$__acrt_initialize_stdio 000000018003a6a4     libucrt:_file.obj
 0002:000126a4       $unwind$__acrt_LCIDToLocaleName 000000018003a6a4     libucrt:winapi_thunks.obj
 0002:000126a4       $unwind$GetTableIndexFromLocaleName 000000018003a6a4     libcpmt:winapinls.obj
 0002:000126a4       $unwind$__TypeMatch        000000018003a6a4     libvcruntime:frame.obj
 0002:000126a4       $unwind$_initterm          000000018003a6a4     libucrt:initterm.obj
 0002:000126a4       $unwind$TranslateName      000000018003a6a4     libucrt:getqloc_downlevel.obj
 0002:000126bc       $unwind$terminate          000000018003a6bc     libucrt:terminate.obj
 0002:000126dc       $unwind$??$parse_integer@KV?$c_string_character_source@D@__crt_strtox@@@__crt_strtox@@YAKQEAU__crt_locale_pointers@@V?$c_string_character_source@D@0@H_N@Z 000000018003a6dc     libucrt:atox.obj
 0002:000126f8       $unwind$??$parse_integer@KV?$c_string_character_source@_W@__crt_strtox@@@__crt_strtox@@YAKQEAU__crt_locale_pointers@@V?$c_string_character_source@_W@0@H_N@Z 000000018003a6f8     libucrt:atox.obj
 0002:00012714       $unwind$?destroy_ptd_array@@YAXQEAU__acrt_ptd@@@Z 000000018003a714     libucrt:per_thread_data.obj
 0002:0001271c       $unwind$??$?RV<lambda_72d1df2b273a38828b1ce30cbf4cdab5>@@AEAV<lambda_876a65b173b8412d3a47c70a915b0cf4>@@V<lambda_41932305e351933ebe8f8be3ed8bb5dc>@@@?$__crt_seh_guarded_call@X@@QEAAX$$QEAV<lambda_72d1df2b273a38828b1ce30cbf4cdab5>@@AEAV<lambda_876a65b173b8412d3a47c70a915b0cf4>@@$$QEAV<lambda_41932305e351933ebe8f8be3ed8bb5dc>@@@Z 000000018003a71c     libucrt:per_thread_data.obj
 0002:00012740       $unwind$??$?RV<lambda_5e887d1dcbef67a5eb4283622ba103bf>@@AEAV<lambda_4466841279450cc726390878d4a41900>@@V<lambda_341c25c0346d94847f1f3c463c57e077>@@@?$__crt_seh_guarded_call@X@@QEAAX$$QEAV<lambda_5e887d1dcbef67a5eb4283622ba103bf>@@AEAV<lambda_4466841279450cc726390878d4a41900>@@$$QEAV<lambda_341c25c0346d94847f1f3c463c57e077>@@@Z 000000018003a740     libucrt:per_thread_data.obj
 0002:00012764       $unwind$??$?RV<lambda_46352004c1216016012b18bd6f87e700>@@AEAV<lambda_3bd07e1a1191394380780325891bf33f>@@V<lambda_334532d3f185bcaa59b5be82d7d22bff>@@@?$__crt_seh_guarded_call@X@@QEAAX$$QEAV<lambda_46352004c1216016012b18bd6f87e700>@@AEAV<lambda_3bd07e1a1191394380780325891bf33f>@@$$QEAV<lambda_334532d3f185bcaa59b5be82d7d22bff>@@@Z 000000018003a764     libucrt:per_thread_data.obj
 0002:00012788       $unwind$??$?RV<lambda_fb3a7dec4e47f37f22dae91bb15c9095>@@AEAV<lambda_698284760c8add0bfb0756c19673e34b>@@V<lambda_dfb8eca1e75fef3034a8fb18dd509707>@@@?$__crt_seh_guarded_call@X@@QEAAX$$QEAV<lambda_fb3a7dec4e47f37f22dae91bb15c9095>@@AEAV<lambda_698284760c8add0bfb0756c19673e34b>@@$$QEAV<lambda_dfb8eca1e75fef3034a8fb18dd509707>@@@Z 000000018003a788     libucrt:per_thread_data.obj
 0002:000127ac       $unwind$__acrt_get_sigabrt_handler 000000018003a7ac     libucrt:signal.obj
 0002:000127b4       $unwind$raise              000000018003a7b4     libucrt:signal.obj
 0002:000127e0       $unwind$??$?RV<lambda_c36588078e9f5dfd39652860aa6b3aaf>@@AEAV<lambda_ec61778202f4f5fc7e7711acc23c3bca>@@V<lambda_dc9d2797ccde5d239b4a0efae8ebd7db>@@@?$__crt_seh_guarded_call@P6AXH@Z@@QEAAP6AXH@Z$$QEAV<lambda_c36588078e9f5dfd39652860aa6b3aaf>@@AEAV<lambda_ec61778202f4f5fc7e7711acc23c3bca>@@$$QEAV<lambda_dc9d2797ccde5d239b4a0efae8ebd7db>@@@Z 000000018003a7e0     libucrt:signal.obj
 0002:00012804       $unwind$__acrt_LCMapStringEx 000000018003a804     libucrt:winapi_thunks.obj
 0002:00012804       $unwind$_mbtowc_l          000000018003a804     libucrt:mbtowc.obj
 0002:00012804       $unwind$__crtLCMapStringEx 000000018003a804     libcpmt:winapinls.obj
 0002:0001281c       $unwind$_wctomb_s_l        000000018003a81c     libucrt:wctomb.obj
 0002:0001282c       $unwind$__acrt_fp_format   000000018003a82c     libucrt:cvt.obj
 0002:00012848       $unwind$?fp_format_nan_or_infinity@@YAHW4__acrt_fp_class@@_NPEAD_K1@Z 000000018003a848     libucrt:cvt.obj
 0002:0001285c       $unwind$?fp_format_e_internal@@YAHQEAD_KH_NIQEAU_strflt@@2QEAU__crt_locale_pointers@@@Z 000000018003a85c     libucrt:cvt.obj
 0002:00012874       $unwind$?fp_format_e@@YAHQEBNQEAD_K12H_NIQEAU__crt_locale_pointers@@@Z 000000018003a874     libucrt:cvt.obj
 0002:00012874       $unwind$__acrt_LCMapStringW 000000018003a874     libucrt:lcmapstringw.obj
 0002:00012888       $unwind$?fp_format_a@@YAHQEBNPEAD_KQEAD2H_NIQEAU__crt_locale_pointers@@@Z 000000018003a888     libucrt:cvt.obj
 0002:000128a4       $unwind$?fp_format_g@@YAHQEBNQEAD_K12H_NIQEAU__crt_locale_pointers@@@Z 000000018003a8a4     libucrt:cvt.obj
 0002:000128b8       $unwind$__acrt_copy_locale_name 000000018003a8b8     libucrt:wsetlocale.obj
 0002:000128c8       $unwind$_wsetlocale        000000018003a8c8     libucrt:wsetlocale.obj
 0002:000128d0       $unwind$_expandlocale      000000018003a8d0     libucrt:wsetlocale.obj
 0002:000128f0       $unwind$_wcscats           000000018003a8f0     libucrt:wsetlocale.obj
 0002:00012900       $unwind$??$create_environment@D@@YAQEAPEADQEAD@Z 000000018003a900     libucrt:environment_initialization.obj
 0002:00012900       $unwind$__lc_wcstolc       000000018003a900     libucrt:wsetlocale.obj
 0002:00012918       $unwind$_wsetlocale_set_cat 000000018003a918     libucrt:wsetlocale.obj
 0002:0001293c       $unwind$_wsetlocale_get_all 000000018003a93c     libucrt:wsetlocale.obj
 0002:00012958       $unwind$_wsetlocale_nolock 000000018003a958     libucrt:wsetlocale.obj
 0002:0001297c       $unwind$__acrt_uninitialize_locale 000000018003a97c     libucrt:wsetlocale.obj
 0002:0001299c       $unwind$??R<lambda_2af78c5f5901b1372d98f9ab3177dfa6>@@QEBAXXZ 000000018003a99c     libucrt:wsetlocale.obj
 0002:000129a8       $unwind$??$?RV<lambda_5df02c53a8f32f81fd64e5bbb78039f1>@@AEAV<lambda_2af78c5f5901b1372d98f9ab3177dfa6>@@AEAV<lambda_f51fe5fd7c79a33db34fc9310f277369>@@@?$__crt_seh_guarded_call@X@@QEAAX$$QEAV<lambda_5df02c53a8f32f81fd64e5bbb78039f1>@@AEAV<lambda_2af78c5f5901b1372d98f9ab3177dfa6>@@AEAV<lambda_f51fe5fd7c79a33db34fc9310f277369>@@@Z 000000018003a9a8     libucrt:wsetlocale.obj
 0002:000129c8       $unwind$??$?RV<lambda_d67e8342c384adda8f857579ab50b2ae>@@AEAV<lambda_30712929f77e709619002f448b6a9510>@@V<lambda_4525336fd7e478d965fb7ca7a337cad8>@@@?$__crt_seh_guarded_call@X@@QEAAX$$QEAV<lambda_d67e8342c384adda8f857579ab50b2ae>@@AEAV<lambda_30712929f77e709619002f448b6a9510>@@$$QEAV<lambda_4525336fd7e478d965fb7ca7a337cad8>@@@Z 000000018003a9c8     libucrt:wsetlocale.obj
 0002:000129ec       $unwind$__acrt_initialize_lowio 000000018003a9ec     libucrt:ioinit.obj
 0002:00012a0c       $unwind$?initialize_inherited_file_handles_nolock@@YAXXZ 000000018003aa0c     libucrt:ioinit.obj
 0002:00012a28       $unwind$_except1           000000018003aa28     libucrt:fpexcept.obj
 0002:00012a48       $unwind$_handle_exc        000000018003aa48     libucrt:fpexcept.obj
 0002:00012a64       $unwind$__dcrt_lowio_initialize_console_output 000000018003aa64     libucrt:initcon.obj
 0002:00012a64       $unwind$?_Xbad_alloc@std@@YAXXZ 000000018003aa64     libcpmt:xthrow.obj
 0002:00012a64       $unwind$?_Xlength_error@std@@YAXPEBD@Z 000000018003aa64     libcpmt:xthrow.obj
 0002:00012a64       $unwind$_raise_excf        000000018003aa64     libucrt:fpexcept.obj
 0002:00012a64       $unwind$?__scrt_throw_std_bad_array_new_length@@YAXXZ 000000018003aa64     LIBCMT:throw_bad_alloc.obj
 0002:00012a64       $unwind$?__scrt_throw_std_bad_alloc@@YAXXZ 000000018003aa64     LIBCMT:throw_bad_alloc.obj
 0002:00012a64       $unwind$_raise_exc         000000018003aa64     libucrt:fpexcept.obj
 0002:00012a64       $unwind$?_Xout_of_range@std@@YAXPEBD@Z 000000018003aa64     libcpmt:xthrow.obj
 0002:00012a6c       $unwind$_umatherr          000000018003aa6c     libucrt:fpexcept.obj
 0002:00012a74       $unwind$_raise_exc_ex      000000018003aa74     libucrt:fpexcept.obj
 0002:00012a88       $unwind$_ctrlfp            000000018003aa88     libucrt:fpctrl.obj
 0002:00012ab0       $unwind$__acrt_initialize_winapi_thunks 000000018003aab0     libucrt:winapi_thunks.obj
 0002:00012ab8       $unwind$__acrt_EnumSystemLocalesEx 000000018003aab8     libucrt:winapi_thunks.obj
 0002:00012acc       $unwind$?try_get_function@@YAPEAXW4function_id@?A0x63058377@@QEBDQEBW4module_id@2@2@Z 000000018003aacc     libucrt:winapi_thunks.obj
 0002:00012acc       $unwind$?IsInExceptionSpec@@YAEPEAUEHExceptionRecord@@PEBU_s_ESTypeList@@@Z 000000018003aacc     libvcruntime:frame.obj
 0002:00012acc       $unwind$?try_get_function@@YAPEAXW4function_id@?A0x679b24ab@@QEBDQEBW4module_id@2@2@Z 000000018003aacc     libvcruntime:winapi_downlevel.obj
 0002:00012ae8       $unwind$??$?RV<lambda_630b2aca97f6d20d5b5ea6529ea6b6af>@@AEAV<lambda_af91936f1d075d609f72d9d8cba980af>@@V<lambda_e82fa975f615b5c7c7b0e4d178fdae67>@@@?$__crt_seh_guarded_call@H@@QEAAH$$QEAV<lambda_630b2aca97f6d20d5b5ea6529ea6b6af>@@AEAV<lambda_af91936f1d075d609f72d9d8cba980af>@@$$QEAV<lambda_e82fa975f615b5c7c7b0e4d178fdae67>@@@Z 000000018003aae8     libucrt:winapi_thunks.obj
 0002:00012b10       $unwind$_mbstowcs_s_l      000000018003ab10     libucrt:mbstowcs.obj
 0002:00012b28       $unwind$?_mbstowcs_l_helper@@YA_KPEA_WPEBD_KPEAU__crt_locale_pointers@@@Z 000000018003ab28     libucrt:mbstowcs.obj
 0002:00012b44       $unwind$?_wcstombs_l_helper@@YA_KPEADPEB_W_KPEAU__crt_locale_pointers@@@Z 000000018003ab44     libucrt:wcstombs.obj
 0002:00012b64       $unwind$_isctype_l         000000018003ab64     libucrt:isctype.obj
 0002:00012b80       $unwind$__acrt_GetLocaleInfoA 000000018003ab80     libucrt:getlocaleinfoa.obj
 0002:00012ba0       $unwind$?InternalGetLocaleInfoA@@YAHQEAU__crt_locale_pointers@@QEB_WKQEADH@Z 000000018003aba0     libucrt:getlocaleinfoa.obj
 0002:00012bc8       $unwind$__acrt_GetStringTypeA 000000018003abc8     libucrt:getstringtypea.obj
 0002:00012bf0       $unwind$__acrt_LCMapStringA 000000018003abf0     libucrt:lcmapstringa.obj
 0002:00012c00       $unwind$?__acrt_LCMapStringA_stat@@YAHPEAU__crt_locale_pointers@@PEB_WKPEBDHPEADHHH@Z 000000018003ac00     libucrt:lcmapstringa.obj
 0002:00012c28       $unwind$__acrt_is_packaged_app 000000018003ac28     libucrt:winapi_thunks.obj
 0002:00012c28       $unwind$iswctype           000000018003ac28     libucrt:iswctype.obj
 0002:00012c34       $unwind$__acrt_initialize_fma3 000000018003ac34     libucrt:fma3_available.obj
 0002:00012c3c       $unwind$_powf_special      000000018003ac3c     libucrt:pow_special.obj
 0002:00012c4c       $unwind$_pow_special       000000018003ac4c     libucrt:pow_special.obj
 0002:00012c58       $unwind$?__SehTransFilter@@YAHPEAU_EXCEPTION_POINTERS@@PEAUEHExceptionRecord@@PEA_KPEAU_CONTEXT@@PEAU_xDISPATCHER_CONTEXT@@PEBU_s_FuncInfo@@PEAH@Z 000000018003ac58     libvcruntime:trnsctrl.obj
 0002:00012c58       $unwind$_wcsicmp_l         000000018003ac58     libucrt:wcsicmp.obj
 0002:00012c6c       $unwind$isupper            000000018003ac6c     libucrt:_ctype.obj
 0002:00012c6c       $unwind$_isleadbyte_l      000000018003ac6c     libucrt:_wctype.obj
 0002:00012c6c       $unwind$isdigit            000000018003ac6c     libucrt:_ctype.obj
 0002:00012c6c       $unwind$islower            000000018003ac6c     libucrt:_ctype.obj
 0002:00012c6c       $unwind$?getSystemCP@@YAHH@Z 000000018003ac6c     libucrt:mbctype.obj
 0002:00012c74       $unwind$??$common_expand_argv_wildcards@D@@YAHQEAPEADQEAPEAPEAD@Z 000000018003ac74     libucrt:argv_wildcards.obj
 0002:00012c8c       $unwind$??$expand_argument_wildcards@D@@YAHQEAD0AEAV?$argument_list@D@?A0xca0879c4@@@Z 000000018003ac8c     libucrt:argv_wildcards.obj
 0002:00012cac       $unwind$__acrt_update_thread_multibyte_data 000000018003acac     libucrt:mbctype.obj
 0002:00012cd0       $unwind$_setmbcp_nolock    000000018003acd0     libucrt:mbctype.obj
 0002:00012cf0       $unwind$?setSBUpLow@@YAXPEAU__crt_multibyte_data@@@Z 000000018003acf0     libucrt:mbctype.obj
 0002:00012d0c       $unwind$?setmbcp_internal@@YAHH_N@Z 000000018003ad0c     libucrt:mbctype.obj
 0002:00012d1c       $unwind$??$?RV<lambda_99476a1ad63dd22509b5d3e65b0ffc95>@@AEAV<lambda_ad1ced32f4ac17aa236e5ef05d6b3b7c>@@V<lambda_f7424dd8d45958661754dc4f2697e9c3>@@@?$__crt_seh_guarded_call@X@@QEAAX$$QEAV<lambda_99476a1ad63dd22509b5d3e65b0ffc95>@@AEAV<lambda_ad1ced32f4ac17aa236e5ef05d6b3b7c>@@$$QEAV<lambda_f7424dd8d45958661754dc4f2697e9c3>@@@Z 000000018003ad1c     libucrt:mbctype.obj
 0002:00012d40       $unwind$__dcrt_get_narrow_environment_from_os 000000018003ad40     libucrt:get_environment_from_os.obj
 0002:00012d40       $unwind$?fp_format_f_internal@@YAHQEAD_KHQEAU_strflt@@_NQEAU__crt_locale_pointers@@@Z 000000018003ad40     libucrt:cvt.obj
 0002:00012d40       $unwind$_wcsnicmp_l        000000018003ad40     libucrt:wcsnicmp.obj
 0002:00012d58       $unwind$__acrt_update_thread_locale_data 000000018003ad58     libucrt:locale_refcounting.obj
 0002:00012d7c       $unwind$__acrt_fltout      000000018003ad7c     libucrt:cfout.obj
 0002:00012d9c       $unwind$_fcloseall         000000018003ad9c     libucrt:closeall.obj
 0002:00012dc0       $unwind$common_flush_all   000000018003adc0     libucrt:fflush.obj
 0002:00012dfc       $unwind$__acrt_locale_initialize_monetary 000000018003adfc     libucrt:initmon.obj
 0002:00012e18       $unwind$__acrt_locale_free_monetary 000000018003ae18     libucrt:initmon.obj
 0002:00012e20       $unwind$__acrt_locale_free_time 000000018003ae20     libucrt:inittime.obj
 0002:00012e30       $unwind$?initialize_lc_time@@YA_NQEAU__crt_lc_time_data@@QEAU__crt_locale_data@@@Z 000000018003ae30     libucrt:inittime.obj
 0002:00012e4c       $unwind$__acrt_get_qualified_locale 000000018003ae4c     libucrt:get_qualified_locale.obj
 0002:00012e4c       $unwind$??$copy_and_add_argument_to_buffer@D@@YAHQEBD0_KAEAV?$argument_list@D@?A0xca0879c4@@@Z 000000018003ae4c     libucrt:argv_wildcards.obj
 0002:00012e68       $unwind$?write_string@?$string_output_adapter@D@__crt_stdio_output@@QEBAXQEBDHQEAH1@Z 000000018003ae68     libucrt:output.obj
 0002:00012e68       $unwind$??$parse_command_line@D@@YAXPEADPEAPEAD0PEA_K2@Z 000000018003ae68     libucrt:argv_parsing.obj
 0002:00012e68       $unwind$TranslateName      000000018003ae68     libucrt:get_qualified_locale.obj
 0002:00012e68       $unwind$??R<lambda_4e60a939b0d047cfe11ddc22648dfba9>@@QEBAHXZ 000000018003ae68     libucrt:onexit.obj
 0002:00012e68       $unwind$?_GetRangeOfTrysToCheck@@YAPEBU_s_TryBlockMapEntry@@PEA_KPEBU_s_FuncInfo@@HHPEAI2PEAU_xDISPATCHER_CONTEXT@@@Z 000000018003ae68     libvcruntime:trnsctrl.obj
 0002:00012e84       $unwind$LangCountryEnumProcEx 000000018003ae84     libucrt:get_qualified_locale.obj
 0002:00012ea4       $unwind$LanguageEnumProcEx 000000018003aea4     libucrt:get_qualified_locale.obj
 0002:00012ec0       $unwind$GetLocaleNameFromDefault 000000018003aec0     libucrt:get_qualified_locale.obj
 0002:00012ed8       $unwind$TestDefaultCountry 000000018003aed8     libucrt:get_qualified_locale.obj
 0002:00012eec       $unwind$__acrt_get_qualified_locale_downlevel 000000018003aeec     libucrt:getqloc_downlevel.obj
 0002:00012f08       $unwind$LangCountryEnumProc 000000018003af08     libucrt:getqloc_downlevel.obj
 0002:00012f28       $unwind$LanguageEnumProc   000000018003af28     libucrt:getqloc_downlevel.obj
 0002:00012f44       $unwind$CountryEnumProc    000000018003af44     libucrt:getqloc_downlevel.obj
 0002:00012f64       $unwind$__acrt_lowio_destroy_handle_array 000000018003af64     libucrt:osfinfo.obj
 0002:00012f74       $unwind$__acrt_lowio_ensure_fh_exists 000000018003af74     libucrt:osfinfo.obj
 0002:00012fa0       $xdatasym                  000000018003afa0     libucrt:fpsr.obj
 0002:00012fa8       $unwind$?GetTableIndexFromLocaleName@@YAHPEB_W@Z 000000018003afa8     libucrt:lcidtoname_downlevel.obj
 0002:00012fc0       $unwind$_call_matherr      000000018003afc0     libucrt:libm_error.obj
 0002:00012fc8       $unwind$_handle_errorf     000000018003afc8     libucrt:libm_error.obj
 0002:00012fc8       $unwind$_handle_error      000000018003afc8     libucrt:libm_error.obj
 0002:00012fe8       $unwind$_towlower_l        000000018003afe8     libucrt:towlower.obj
 0002:00012ff0       $unwind$qsort              000000018003aff0     libucrt:qsort.obj
 0002:00013008       $chain$4$qsort             000000018003b008     libucrt:qsort.obj
 0002:0001302c       $chain$5$qsort             000000018003b02c     libucrt:qsort.obj
 0002:0001303c       $unwind$?shortsort@@YAXPEAD0_KP6AHPEBX2@Z@Z 000000018003b03c     libucrt:qsort.obj
 0002:0001304c       $chain$2$?shortsort@@YAXPEAD0_KP6AHPEBX2@Z@Z 000000018003b04c     libucrt:qsort.obj
 0002:00013068       $chain$3$?shortsort@@YAXPEAD0_KP6AHPEBX2@Z@Z 000000018003b068     libucrt:qsort.obj
 0002:00013078       $unwind$strcspn            000000018003b078     libucrt:strcspn.obj
 0002:00013078       $unwind$strpbrk            000000018003b078     libucrt:strpbrk.obj
 0002:00013088       $unwind$_mbsdec_l          000000018003b088     libucrt:mbsdec.obj
 0002:00013098       $xdatasym                  000000018003b098     libucrt:log10.obj
 0002:000130a4       $unwind$_write             000000018003b0a4     libucrt:write.obj
 0002:000130d4       $unwind$_write_nolock      000000018003b0d4     libucrt:write.obj
 0002:000130ec       $unwind$?write_double_translated_ansi_nolock@@YA?AUwrite_result@?A0x9c548279@@HQEBDI@Z 000000018003b0ec     libucrt:write.obj
 0002:0001310c       $unwind$?write_text_ansi_nolock@@YA?AUwrite_result@?A0x9c548279@@HQEBDI@Z 000000018003b10c     libucrt:write.obj
 0002:0001310c       $unwind$?write_text_utf16le_nolock@@YA?AUwrite_result@?A0x9c548279@@HQEBDI@Z 000000018003b10c     libucrt:write.obj
 0002:0001312c       $unwind$?write_text_utf8_nolock@@YA?AUwrite_result@?A0x9c548279@@HQEBDI@Z 000000018003b12c     libucrt:write.obj
 0002:00013150       $unwind$fclose             000000018003b150     libucrt:fclose.obj
 0002:00013174       $unwind$_commit            000000018003b174     libucrt:commit.obj
 0002:00013174       $unwind$_close             000000018003b174     libucrt:close.obj
 0002:0001317c       $unwind$??$?RV<lambda_b521505b218e5242e90febf6bfebc422>@@AEAV<lambda_6978c1fb23f02e42e1d9e99668cc68aa>@@V<lambda_314360699dd331753a4119843814e9a7>@@@?$__crt_seh_guarded_call@H@@QEAAH$$QEAV<lambda_b521505b218e5242e90febf6bfebc422>@@AEAV<lambda_6978c1fb23f02e42e1d9e99668cc68aa>@@$$QEAV<lambda_314360699dd331753a4119843814e9a7>@@@Z 000000018003b17c     libucrt:commit.obj
 0002:000131a0       $unwind$common_control87   000000018003b1a0     libucrt:ieee.obj
 0002:000131d0       $unwind$_log_special_common 000000018003b1d0     libucrt:log_special.obj
 0002:000131dc       $unwind$??$?RV<lambda_bfedae4ebbf01fab1bb6dcc6a9e276e0>@@AEAV<lambda_2fe9b910cf3cbf4a0ab98a02ba45b3ec>@@V<lambda_237c231691f317818eb88cc1d5d642d6>@@@?$__crt_seh_guarded_call@H@@QEAAH$$QEAV<lambda_bfedae4ebbf01fab1bb6dcc6a9e276e0>@@AEAV<lambda_2fe9b910cf3cbf4a0ab98a02ba45b3ec>@@$$QEAV<lambda_237c231691f317818eb88cc1d5d642d6>@@@Z 000000018003b1dc     libucrt:close.obj
 0002:00013200       $unwind$?DloadObtainSection@@YAPEAXPEAK0@Z 000000018003b200     DelayImp:delayhlp.obj
 0002:00013210       $unwind$?DloadMakePermanentImageCommit@@YAXPEAX_K@Z 000000018003b210     DelayImp:delayhlp.obj
 0002:0001321c       $unwind$?DloadProtectSection@@YAXKPEAK@Z 000000018003b21c     DelayImp:delayhlp.obj
 0002:0001322c       $unwind$__delayLoadHelper2 000000018003b22c     DelayImp:delayhlp.obj
 0002:00013244       $unwind$_IsNonwritableInCurrentImage 000000018003b244     LIBCMT:pesect.obj
 0002:00013268       $unwind$wcschr             000000018003b268     libvcruntime:wcschr.obj
 0002:00013268       $unwind$strrchr            000000018003b268     libvcruntime:strrchr.obj
 0002:00013cf0       .edata                     000000018003bcf0     node_printer.exp
 0002:00013d18       rgpv                       000000018003bd18     node_printer.exp
 0002:00013d1c       rgszName                   000000018003bd1c     node_printer.exp
 0002:00013d20       rgwOrd                     000000018003bd20     node_printer.exp
 0002:00013d22       szName                     000000018003bd22     node_printer.exp
 0002:00013d34       $N00001                    000000018003bd34     node_printer.exp
 0002:000140f2       .idata$6                   000000018003c0f2     kernel32:KERNEL32.dll
 0002:000141f0       .idata$6                   000000018003c1f0     winspool:WINSPOOL.DRV
 0003:00000000       ?init@std@@3JA             000000018003d000     libcpmt:xlock.obj
 0003:00000010       ?atcount_cdecl@@3_KA       000000018003d010     libcpmt:iosptrs.obj
 0003:000000b0       ?__vcrt_flsindex@@3KA      000000018003d0b0     libvcruntime:per_thread_data.obj
 0003:00000188       errno_no_memory            000000018003d188     libucrt:errno.obj
 0003:0000018c       doserrno_no_memory         000000018003d18c     libucrt:errno.obj
 0003:00000190       __acrt_flsindex            000000018003d190     libucrt:per_thread_data.obj
 0003:000002a8       _ctype_loc_style           000000018003d2a8     libucrt:wsetlocale.obj
 0003:00000420       ?dazSupported@?1??_ctrlfp@@9@9 000000018003d420     libucrt:fpctrl.obj
 0003:00000430       tzstd_program              000000018003d430     libucrt:timeset.obj
 0003:00000470       tzdst_program              000000018003d470     libucrt:timeset.obj
 0003:000004b0       tzname_states              000000018003d4b0     libucrt:timeset.obj
 0003:000006f0       __rgctypeflag              000000018003d6f0     libucrt:mbctype.obj
 0003:00000700       __rgcode_page_info         000000018003d700     libucrt:mbctype.obj
 0003:00000a00       ?dazSupported@?1??common_control87@@9@9 000000018003da00     libucrt:ieee.obj
 0003:00000a20       _module                    000000018003da20     node_printer.obj
 0003:00000e40       ?initlocks@std@@3V_Init_locks@1@A 000000018003de40     libcpmt:xlock.obj
 0003:00000e50       ?mtx@std@@3PAU_RTL_CRITICAL_SECTION@@A 000000018003de50     libcpmt:xlock.obj
 0003:00000f90       ?_Fac_head@std@@3PEAU_Fac_node@1@EA 000000018003df90     libcpmt:locale0.obj
 0003:00000fa8       global_locale              000000018003dfa8     libcpmt:locale0.obj
 0003:00000fd0       ?classic_locale@std@@3Vlocale@1@A 000000018003dfd0     libcpmt:locale0.obj
 0003:00000fe8       ?_Fac_tidy_reg@std@@3U_Fac_tidy_reg_t@1@B 000000018003dfe8     libcpmt:locale0.obj
 0003:00000fe9       ?registered@?1??_Setgloballocale@locale@std@@CAXPEAX@Z@4_NA 000000018003dfe9     libcpmt:locale0.obj
 0003:00000ff0       ?stdstr@std@@3PAPEAVios_base@1@A 000000018003dff0     libcpmt:ios.obj
 0003:00001040       ?stdopens@std@@3PADA       000000018003e040     libcpmt:ios.obj
 0003:000010a0       ?atfuns_cdecl@@3PAP6AXXZA  000000018003e0a0     libcpmt:iosptrs.obj
 0003:000010f0       ?initlocks@std@@3V_Init_locks@1@A 000000018003e0f0     libcpmt:iosptrs.obj
 0003:000010f1       ?init_atexit@@3U_Init_atexit@@A 000000018003e0f1     libcpmt:iosptrs.obj
 0003:00001340       ?_Tss_mutex@@3U_RTL_CRITICAL_SECTION@@A 000000018003e340     LIBCMT:thread_safe_statics.obj
 0003:00001368       ?_Tss_cv@@3U_RTL_CONDITION_VARIABLE@@A 000000018003e368     LIBCMT:thread_safe_statics.obj
 0003:00001370       ?_Tss_event@@3PEAXEA       000000018003e370     LIBCMT:thread_safe_statics.obj
 0003:00001378       ?encoded_sleep_condition_variable_cs@@3P6AHPEAU_RTL_CONDITION_VARIABLE@@PEAU_RTL_CRITICAL_SECTION@@K@ZEA 000000018003e378     LIBCMT:thread_safe_statics.obj
 0003:00001380       ?encoded_wake_all_condition_variable@@3P6AXPEAU_RTL_CONDITION_VARIABLE@@@ZEA 000000018003e380     LIBCMT:thread_safe_statics.obj
 0003:00001398       ?module_local_atexit_table@@3U_onexit_table_t@@A 000000018003e398     LIBCMT:utility.obj
 0003:000013b0       ?module_local_at_quick_exit_table@@3U_onexit_table_t@@A 000000018003e3b0     LIBCMT:utility.obj
 0003:000013c8       ?is_initialized_as_dll@@3_NA 000000018003e3c8     LIBCMT:utility.obj
 0003:000013cc       ?__proc_attached@@3HA      000000018003e3cc     LIBCMT:dll_dllmain.obj
 0003:000013d0       GS_ExceptionRecord         000000018003e3d0     LIBCMT:gs_report.obj
 0003:00001470       GS_ContextRecord           000000018003e470     LIBCMT:gs_report.obj
 0003:00001970       ?module_handles@@3PAPEAUHINSTANCE__@@A 000000018003e970     libvcruntime:winapi_downlevel.obj
 0003:00001990       ?encoded_function_pointers@@3PAPEAXA 000000018003e990     libvcruntime:winapi_downlevel.obj
 0003:000019e0       ?__vcrt_startup_thread_ptd@@3U__vcrt_ptd@@A 000000018003e9e0     libvcruntime:per_thread_data.obj
 0003:00001a58       __vcrt_lock_table          000000018003ea58     libvcruntime:locks.obj
 0003:00001a80       __vcrt_locks_initialized   000000018003ea80     libvcruntime:locks.obj
 0003:00001ad0       ?heap@@3V_HeapManager@@A   000000018003ead0     libvcruntime:undname.obj
 0003:00001af8       __acrt_invalid_parameter_handler 000000018003eaf8     libucrt:invalid_parameter.obj
 0003:00001b10       __acrt_lock_table          000000018003eb10     libucrt:locks.obj
 0003:00001d18       __acrt_locks_initialized   000000018003ed18     libucrt:locks.obj
 0003:00001d20       __acrt_new_handler         000000018003ed20     libucrt:new_handler.obj
 0003:00001d28       c_termination_complete     000000018003ed28     libucrt:exit.obj
 0003:00001d30       thread_local_exit_callback_func 000000018003ed30     libucrt:exit.obj
 0003:00001d38       ?c_exit_complete@?5??common_exit@@YAXHW4_crt_exit_cleanup_mode@@W4_crt_exit_return_mode@@@Z@4_NA 000000018003ed38     libucrt:exit.obj
 0003:00001d40       ?program_name@?5???$common_configure_argv@D@@YAHW4_crt_argv_mode@@@Z@4PADA 000000018003ed40     libucrt:argv_parsing.obj
 0003:00001e98       ctrlc_action               000000018003ee98     libucrt:signal.obj
 0003:00001ea0       ctrlbreak_action           000000018003eea0     libucrt:signal.obj
 0003:00001ea8       abort_action               000000018003eea8     libucrt:signal.obj
 0003:00001eb0       term_action                000000018003eeb0     libucrt:signal.obj
 0003:00001ec8       enable_percent_n           000000018003eec8     libucrt:printf_count_output.obj
 0003:00002300       module_handles             000000018003f300     libucrt:winapi_thunks.obj
 0003:000023a0       encoded_function_pointers  000000018003f3a0     libucrt:winapi_thunks.obj
 0003:000024a0       ?static_enum_proc@?1??enum_system_locales_ex_nolock@@YAHQ6AHPEA_WK_J@Z@Z@4P6AH0K1@ZEA 000000018003f4a0     libucrt:winapi_thunks.obj
 0003:000024a8       ?state_cache@?1??__acrt_is_packaged_app@@9@4JA 000000018003f4a8     libucrt:winapi_thunks.obj
 0003:000024ac       __acrt_global_new_mode     000000018003f4ac     libucrt:new_mode.obj
 0003:000024d0       _tzname                    000000018003f4d0     libucrt:timeset.obj
 0003:000024e0       tz_api_used                000000018003f4e0     libucrt:tzset.obj
 0003:000024f0       tz_info                    000000018003f4f0     libucrt:tzset.obj
 0003:000025b4       fSystemSet                 000000018003f5b4     libucrt:mbctype.obj
 0003:000025c0       ?initialized@?1??__acrt_initialize_multibyte@@9@4_NA 000000018003f5c0     libucrt:mbctype.obj
 0003:000025f0       user_matherr               000000018003f5f0     libucrt:matherr.obj
 0003:000025f8       __acrt_app_type            000000018003f5f8     libucrt:report_runtime_error.obj
 0003:00002648       ?result@?1??getJobCommandMap@?A0xcb87c0d3@@YAAEBV?$map@V?$basic_string@DU?$char_traits@D@std@@V?$allocator@D@2@@std@@KU?$less@V?$basic_string@DU?$char_traits@D@std@@V?$allocator@D@2@@std@@@2@V?$allocator@U?$pair@$$CBV?$basic_string@DU?$char_traits@D@std@@V?$allocator@D@2@@std@@K@std@@@2@@std@@XZ@4V34@A 000000018003f648     node_printer_win.obj
 0003:00002658       ?result@?1??getAttributeMap@?A0xcb87c0d3@@YAAEBV?$map@V?$basic_string@DU?$char_traits@D@std@@V?$allocator@D@2@@std@@KU?$less@V?$basic_string@DU?$char_traits@D@std@@V?$allocator@D@2@@std@@@2@V?$allocator@U?$pair@$$CBV?$basic_string@DU?$char_traits@D@std@@V?$allocator@D@2@@std@@K@std@@@2@@std@@XZ@4V34@A 000000018003f658     node_printer_win.obj
 0003:00002668       ?$TSS0@?1??getJobStatusMap@?A0xcb87c0d3@@YAAEBV?$map@V?$basic_string@DU?$char_traits@D@std@@V?$allocator@D@2@@std@@KU?$less@V?$basic_string@DU?$char_traits@D@std@@V?$allocator@D@2@@std@@@2@V?$allocator@U?$pair@$$CBV?$basic_string@DU?$char_traits@D@std@@V?$allocator@D@2@@std@@K@std@@@2@@std@@XZ@4HA 000000018003f668     node_printer_win.obj
 0003:00002678       ?$TSS0@?1??getAttributeMap@?A0xcb87c0d3@@YAAEBV?$map@V?$basic_string@DU?$char_traits@D@std@@V?$allocator@D@2@@std@@KU?$less@V?$basic_string@DU?$char_traits@D@std@@V?$allocator@D@2@@std@@@2@V?$allocator@U?$pair@$$CBV?$basic_string@DU?$char_traits@D@std@@V?$allocator@D@2@@std@@K@std@@@2@@std@@XZ@4HA 000000018003f678     node_printer_win.obj
 0003:0000267c       ?$TSS0@?1??getStatusMap@?A0xcb87c0d3@@YAAEBV?$map@V?$basic_string@DU?$char_traits@D@std@@V?$allocator@D@2@@std@@KU?$less@V?$basic_string@DU?$char_traits@D@std@@V?$allocator@D@2@@std@@@2@V?$allocator@U?$pair@$$CBV?$basic_string@DU?$char_traits@D@std@@V?$allocator@D@2@@std@@K@std@@@2@@std@@XZ@4HA 000000018003f67c     node_printer_win.obj
 0003:00002690       ?$TSS0@?1??getJobCommandMap@?A0xcb87c0d3@@YAAEBV?$map@V?$basic_string@DU?$char_traits@D@std@@V?$allocator@D@2@@std@@KU?$less@V?$basic_string@DU?$char_traits@D@std@@V?$allocator@D@2@@std@@@2@V?$allocator@U?$pair@$$CBV?$basic_string@DU?$char_traits@D@std@@V?$allocator@D@2@@std@@K@std@@@2@@std@@XZ@4HA 000000018003f690     node_printer_win.obj
 0003:00002698       ?result@?1??getStatusMap@?A0xcb87c0d3@@YAAEBV?$map@V?$basic_string@DU?$char_traits@D@std@@V?$allocator@D@2@@std@@KU?$less@V?$basic_string@DU?$char_traits@D@std@@V?$allocator@D@2@@std@@@2@V?$allocator@U?$pair@$$CBV?$basic_string@DU?$char_traits@D@std@@V?$allocator@D@2@@std@@K@std@@@2@@std@@XZ@4V34@A 000000018003f698     node_printer_win.obj
 0003:000026b8       ?result@?1??getJobStatusMap@?A0xcb87c0d3@@YAAEBV?$map@V?$basic_string@DU?$char_traits@D@std@@V?$allocator@D@2@@std@@KU?$less@V?$basic_string@DU?$char_traits@D@std@@V?$allocator@D@2@@std@@@2@V?$allocator@U?$pair@$$CBV?$basic_string@DU?$char_traits@D@std@@V?$allocator@D@2@@std@@K@std@@@2@@std@@XZ@4V34@A 000000018003f6b8     node_printer_win.obj
 0004:00000000       $pdata$??__Einitlocks@std@@YAXXZ 0000000180040000     libcpmt:xlock.obj
 0004:0000000c       $pdata$??__Einitlocks@std@@YAXXZ 000000018004000c     libcpmt:iosptrs.obj
 0004:00000018       $pdata$?NODE_SET_METHOD@node@@YAXV?$Local@VObject@v8@@@v8@@PEBDP6AXAEBV?$FunctionCallbackInfo@VValue@v8@@@3@@Z@Z 0000000180040018     node_printer.obj
 0004:00000024       $pdata$?initNode@@YAXV?$Local@VObject@v8@@@v8@@@Z 0000000180040024     node_printer.obj
 0004:00000030       $pdata$?getStringOrBufferFromV8Value@@YA_NV?$Local@VValue@v8@@@v8@@AEAV?$basic_string@DU?$char_traits@D@std@@V?$allocator@D@2@@std@@@Z 0000000180040030     node_printer.obj
 0004:0000003c       $pdata$0$?getStringOrBufferFromV8Value@@YA_NV?$Local@VValue@v8@@@v8@@AEAV?$basic_string@DU?$char_traits@D@std@@V?$allocator@D@2@@std@@@Z 000000018004003c     node_printer.obj
 0004:00000048       $pdata$1$?getStringOrBufferFromV8Value@@YA_NV?$Local@VValue@v8@@@v8@@AEAV?$basic_string@DU?$char_traits@D@std@@V?$allocator@D@2@@std@@@Z 0000000180040048     node_printer.obj
 0004:00000054       $pdata$?assign@?$basic_string@DU?$char_traits@D@std@@V?$allocator@D@2@@std@@QEAAAEAV12@PEBD_K@Z 0000000180040054     node_printer.obj
 0004:00000060       $pdata$?assign@?$basic_string@DU?$char_traits@D@std@@V?$allocator@D@2@@std@@QEAAAEAV12@AEBV12@_K1@Z 0000000180040060     node_printer.obj
 0004:0000006c       $pdata$?_Copy@?$basic_string@DU?$char_traits@D@std@@V?$allocator@D@2@@std@@QEAAX_K0@Z 000000018004006c     node_printer.obj
 0004:00000078       $pdata$?erase@?$basic_string@DU?$char_traits@D@std@@V?$allocator@D@2@@std@@QEAAAEAV12@_K0@Z 0000000180040078     node_printer.obj
 0004:00000084       $pdata$?deallocate@?$allocator@D@std@@QEAAXPEAD_K@Z 0000000180040084     node_printer.obj
 0004:00000090       $pdata$?allocate@?$allocator@D@std@@QEAAPEAD_K@Z 0000000180040090     node_printer.obj
 0004:0000009c       $pdata$sprintf_s           000000018004009c     node_printer_win.obj
 0004:000000a8       $pdata$??_Gexception@stdext@@UEAAPEAXI@Z 00000001800400a8     node_printer_win.obj
 0004:000000a8       $pdata$??_Gruntime_error@std@@UEAAPEAXI@Z 00000001800400a8     node_printer_win.obj
 0004:000000b4       $pdata$?_Doraise@runtime_error@std@@MEBAXXZ 00000001800400b4     node_printer_win.obj
 0004:000000b4       $pdata$?_Doraise@failure@ios_base@std@@MEBAXXZ 00000001800400b4     node_printer_win.obj
 0004:000000c0       $pdata$??0_Locinfo@std@@QEAA@PEBD@Z 00000001800400c0     node_printer_win.obj
 0004:000000cc       $pdata$??1_Locinfo@std@@QEAA@XZ 00000001800400cc     node_printer_win.obj
 0004:000000d8       $pdata$??_G_Facet_base@std@@UEAAPEAXI@Z 00000001800400d8     node_printer_win.obj
 0004:000000e4       $pdata$?_Getcat@?$ctype@D@std@@SA_KPEAPEBVfacet@locale@2@PEBV42@@Z 00000001800400e4     node_printer_win.obj
 0004:000000f0       $pdata$0$?_Getcat@?$ctype@D@std@@SA_KPEAPEBVfacet@locale@2@PEBV42@@Z 00000001800400f0     node_printer_win.obj
 0004:000000fc       $pdata$1$?_Getcat@?$ctype@D@std@@SA_KPEAPEBVfacet@locale@2@PEBV42@@Z 00000001800400fc     node_printer_win.obj
 0004:00000108       $pdata$?do_tolower@?$ctype@D@std@@MEBAPEBDPEADPEBD@Z 0000000180040108     node_printer_win.obj
 0004:00000114       $pdata$0$?do_tolower@?$ctype@D@std@@MEBAPEBDPEADPEBD@Z 0000000180040114     node_printer_win.obj
 0004:00000120       $pdata$1$?do_tolower@?$ctype@D@std@@MEBAPEBDPEADPEBD@Z 0000000180040120     node_printer_win.obj
 0004:0000012c       $pdata$?do_toupper@?$ctype@D@std@@MEBAPEBDPEADPEBD@Z 000000018004012c     node_printer_win.obj
 0004:00000138       $pdata$0$?do_toupper@?$ctype@D@std@@MEBAPEBDPEADPEBD@Z 0000000180040138     node_printer_win.obj
 0004:00000144       $pdata$1$?do_toupper@?$ctype@D@std@@MEBAPEBDPEADPEBD@Z 0000000180040144     node_printer_win.obj
 0004:00000150       $pdata$?do_widen@?$ctype@D@std@@MEBAPEBDPEBD0PEAD@Z 0000000180040150     node_printer_win.obj
 0004:0000015c       $pdata$?do_narrow@?$ctype@D@std@@MEBAPEBDPEBD0DPEAD@Z 000000018004015c     node_printer_win.obj
 0004:00000168       $pdata$??_G?$ctype@D@std@@MEAAPEAXI@Z 0000000180040168     node_printer_win.obj
 0004:00000174       $pdata$??_Gerror_category@std@@UEAAPEAXI@Z 0000000180040174     node_printer_win.obj
 0004:00000174       $pdata$??_G_Iostream_error_category@std@@UEAAPEAXI@Z 0000000180040174     node_printer_win.obj
 0004:00000180       $pdata$??0_System_error@std@@IEAA@Verror_code@1@AEBV?$basic_string@DU?$char_traits@D@std@@V?$allocator@D@2@@1@@Z 0000000180040180     node_printer_win.obj
 0004:0000018c       $pdata$??_G_System_error@std@@UEAAPEAXI@Z 000000018004018c     node_printer_win.obj
 0004:0000018c       $pdata$??_Gfailure@ios_base@std@@UEAAPEAXI@Z 000000018004018c     node_printer_win.obj
 0004:00000198       $pdata$?message@_Iostream_error_category@std@@UEBA?AV?$basic_string@DU?$char_traits@D@std@@V?$allocator@D@2@@2@H@Z 0000000180040198     node_printer_win.obj
 0004:000001a4       $pdata$?clear@ios_base@std@@QEAAXH_N@Z 00000001800401a4     node_printer_win.obj
 0004:000001b0       $pdata$0$?clear@ios_base@std@@QEAAXH_N@Z 00000001800401b0     node_printer_win.obj
 0004:000001bc       $pdata$1$?clear@ios_base@std@@QEAAXH_N@Z 00000001800401bc     node_printer_win.obj
 0004:000001c8       $pdata$2$?clear@ios_base@std@@QEAAXH_N@Z 00000001800401c8     node_printer_win.obj
 0004:000001d4       $pdata$??_Gios_base@std@@UEAAPEAXI@Z 00000001800401d4     node_printer_win.obj
 0004:000001e0       $pdata$?getStatusMap@?A0xcb87c0d3@@YAAEBV?$map@V?$basic_string@DU?$char_traits@D@std@@V?$allocator@D@2@@std@@KU?$less@V?$basic_string@DU?$char_traits@D@std@@V?$allocator@D@2@@std@@@2@V?$allocator@U?$pair@$$CBV?$basic_string@DU?$char_traits@D@std@@V?$allocator@D@2@@std@@K@std@@@2@@std@@XZ 00000001800401e0     node_printer_win.obj
 0004:000001ec       $pdata$2$?getStatusMap@?A0xcb87c0d3@@YAAEBV?$map@V?$basic_string@DU?$char_traits@D@std@@V?$allocator@D@2@@std@@KU?$less@V?$basic_string@DU?$char_traits@D@std@@V?$allocator@D@2@@std@@@2@V?$allocator@U?$pair@$$CBV?$basic_string@DU?$char_traits@D@std@@V?$allocator@D@2@@std@@K@std@@@2@@std@@XZ 00000001800401ec     node_printer_win.obj
 0004:000001f8       $pdata$3$?getStatusMap@?A0xcb87c0d3@@YAAEBV?$map@V?$basic_string@DU?$char_traits@D@std@@V?$allocator@D@2@@std@@KU?$less@V?$basic_string@DU?$char_traits@D@std@@V?$allocator@D@2@@std@@@2@V?$allocator@U?$pair@$$CBV?$basic_string@DU?$char_traits@D@std@@V?$allocator@D@2@@std@@K@std@@@2@@std@@XZ 00000001800401f8     node_printer_win.obj
 0004:00000204       $pdata$?getJobStatusMap@?A0xcb87c0d3@@YAAEBV?$map@V?$basic_string@DU?$char_traits@D@std@@V?$allocator@D@2@@std@@KU?$less@V?$basic_string@DU?$char_traits@D@std@@V?$allocator@D@2@@std@@@2@V?$allocator@U?$pair@$$CBV?$basic_string@DU?$char_traits@D@std@@V?$allocator@D@2@@std@@K@std@@@2@@std@@XZ 0000000180040204     node_printer_win.obj
 0004:00000210       $pdata$2$?getJobStatusMap@?A0xcb87c0d3@@YAAEBV?$map@V?$basic_string@DU?$char_traits@D@std@@V?$allocator@D@2@@std@@KU?$less@V?$basic_string@DU?$char_traits@D@std@@V?$allocator@D@2@@std@@@2@V?$allocator@U?$pair@$$CBV?$basic_string@DU?$char_traits@D@std@@V?$allocator@D@2@@std@@K@std@@@2@@std@@XZ 0000000180040210     node_printer_win.obj
 0004:0000021c       $pdata$3$?getJobStatusMap@?A0xcb87c0d3@@YAAEBV?$map@V?$basic_string@DU?$char_traits@D@std@@V?$allocator@D@2@@std@@KU?$less@V?$basic_string@DU?$char_traits@D@std@@V?$allocator@D@2@@std@@@2@V?$allocator@U?$pair@$$CBV?$basic_string@DU?$char_traits@D@std@@V?$allocator@D@2@@std@@K@std@@@2@@std@@XZ 000000018004021c     node_printer_win.obj
 0004:00000228       $pdata$?getAttributeMap@?A0xcb87c0d3@@YAAEBV?$map@V?$basic_string@DU?$char_traits@D@std@@V?$allocator@D@2@@std@@KU?$less@V?$basic_string@DU?$char_traits@D@std@@V?$allocator@D@2@@std@@@2@V?$allocator@U?$pair@$$CBV?$basic_string@DU?$char_traits@D@std@@V?$allocator@D@2@@std@@K@std@@@2@@std@@XZ 0000000180040228     node_printer_win.obj
 0004:00000234       $pdata$2$?getAttributeMap@?A0xcb87c0d3@@YAAEBV?$map@V?$basic_string@DU?$char_traits@D@std@@V?$allocator@D@2@@std@@KU?$less@V?$basic_string@DU?$char_traits@D@std@@V?$allocator@D@2@@std@@@2@V?$allocator@U?$pair@$$CBV?$basic_string@DU?$char_traits@D@std@@V?$allocator@D@2@@std@@K@std@@@2@@std@@XZ 0000000180040234     node_printer_win.obj
 0004:00000240       $pdata$3$?getAttributeMap@?A0xcb87c0d3@@YAAEBV?$map@V?$basic_string@DU?$char_traits@D@std@@V?$allocator@D@2@@std@@KU?$less@V?$basic_string@DU?$char_traits@D@std@@V?$allocator@D@2@@std@@@2@V?$allocator@U?$pair@$$CBV?$basic_string@DU?$char_traits@D@std@@V?$allocator@D@2@@std@@K@std@@@2@@std@@XZ 0000000180040240     node_printer_win.obj
 0004:0000024c       $pdata$?getJobCommandMap@?A0xcb87c0d3@@YAAEBV?$map@V?$basic_string@DU?$char_traits@D@std@@V?$allocator@D@2@@std@@KU?$less@V?$basic_string@DU?$char_traits@D@std@@V?$allocator@D@2@@std@@@2@V?$allocator@U?$pair@$$CBV?$basic_string@DU?$char_traits@D@std@@V?$allocator@D@2@@std@@K@std@@@2@@std@@XZ 000000018004024c     node_printer_win.obj
 0004:00000258       $pdata$2$?getJobCommandMap@?A0xcb87c0d3@@YAAEBV?$map@V?$basic_string@DU?$char_traits@D@std@@V?$allocator@D@2@@std@@KU?$less@V?$basic_string@DU?$char_traits@D@std@@V?$allocator@D@2@@std@@@2@V?$allocator@U?$pair@$$CBV?$basic_string@DU?$char_traits@D@std@@V?$allocator@D@2@@std@@K@std@@@2@@std@@XZ 0000000180040258     node_printer_win.obj
 0004:00000264       $pdata$3$?getJobCommandMap@?A0xcb87c0d3@@YAAEBV?$map@V?$basic_string@DU?$char_traits@D@std@@V?$allocator@D@2@@std@@KU?$less@V?$basic_string@DU?$char_traits@D@std@@V?$allocator@D@2@@std@@@2@V?$allocator@U?$pair@$$CBV?$basic_string@DU?$char_traits@D@std@@V?$allocator@D@2@@std@@K@std@@@2@@std@@XZ 0000000180040264     node_printer_win.obj
 0004:00000270       $pdata$?parseJobObject@?A0xcb87c0d3@@YAXPEAU_JOB_INFO_2W@@V?$Local@VObject@v8@@@v8@@@Z 0000000180040270     node_printer_win.obj
 0004:0000027c       $pdata$?getLastErrorCodeAndMessage@?A0xcb87c0d3@@YA?AV?$basic_string@DU?$char_traits@D@std@@V?$allocator@D@2@@std@@XZ 000000018004027c     node_printer_win.obj
 0004:00000288       $pdata$?retrieveAndParseJobs@?A0xcb87c0d3@@YA?AV?$basic_string@DU?$char_traits@D@std@@V?$allocator@D@2@@std@@QEA_WAEBKV?$Local@VObject@v8@@@v8@@AEAUPrinterHandle@1@@Z 0000000180040288     node_printer_win.obj
 0004:00000294       $pdata$?parsePrinterInfo@?A0xcb87c0d3@@YA?AV?$basic_string@DU?$char_traits@D@std@@V?$allocator@D@2@@std@@PEBU_PRINTER_INFO_2W@@V?$Local@VObject@v8@@@v8@@AEAUPrinterHandle@1@@Z 0000000180040294     node_printer_win.obj
 0004:000002a0       $pdata$?getPrinters@@YAXAEBV?$FunctionCallbackInfo@VValue@v8@@@v8@@@Z 00000001800402a0     node_printer_win.obj
 0004:000002ac       $pdata$?getDefaultPrinterName@@YAXAEBV?$FunctionCallbackInfo@VValue@v8@@@v8@@@Z 00000001800402ac     node_printer_win.obj
 0004:000002b8       $pdata$0$?getDefaultPrinterName@@YAXAEBV?$FunctionCallbackInfo@VValue@v8@@@v8@@@Z 00000001800402b8     node_printer_win.obj
 0004:000002c4       $pdata$1$?getDefaultPrinterName@@YAXAEBV?$FunctionCallbackInfo@VValue@v8@@@v8@@@Z 00000001800402c4     node_printer_win.obj
 0004:000002d0       $pdata$?getPrinter@@YAXAEBV?$FunctionCallbackInfo@VValue@v8@@@v8@@@Z 00000001800402d0     node_printer_win.obj
 0004:000002dc       $pdata$0$?getPrinter@@YAXAEBV?$FunctionCallbackInfo@VValue@v8@@@v8@@@Z 00000001800402dc     node_printer_win.obj
 0004:000002e8       $pdata$1$?getPrinter@@YAXAEBV?$FunctionCallbackInfo@VValue@v8@@@v8@@@Z 00000001800402e8     node_printer_win.obj
 0004:000002f4       $pdata$?getPrinterDriverOptions@@YAXAEBV?$FunctionCallbackInfo@VValue@v8@@@v8@@@Z 00000001800402f4     node_printer_win.obj
 0004:00000300       $pdata$?getJob@@YAXAEBV?$FunctionCallbackInfo@VValue@v8@@@v8@@@Z 0000000180040300     node_printer_win.obj
 0004:0000030c       $pdata$0$?getJob@@YAXAEBV?$FunctionCallbackInfo@VValue@v8@@@v8@@@Z 000000018004030c     node_printer_win.obj
 0004:00000318       $pdata$1$?getJob@@YAXAEBV?$FunctionCallbackInfo@VValue@v8@@@v8@@@Z 0000000180040318     node_printer_win.obj
 0004:00000324       $pdata$2$?getJob@@YAXAEBV?$FunctionCallbackInfo@VValue@v8@@@v8@@@Z 0000000180040324     node_printer_win.obj
 0004:00000330       $pdata$3$?getJob@@YAXAEBV?$FunctionCallbackInfo@VValue@v8@@@v8@@@Z 0000000180040330     node_printer_win.obj
 0004:0000033c       $pdata$4$?getJob@@YAXAEBV?$FunctionCallbackInfo@VValue@v8@@@v8@@@Z 000000018004033c     node_printer_win.obj
 0004:00000348       $pdata$5$?getJob@@YAXAEBV?$FunctionCallbackInfo@VValue@v8@@@v8@@@Z 0000000180040348     node_printer_win.obj
 0004:00000354       $pdata$?setJob@@YAXAEBV?$FunctionCallbackInfo@VValue@v8@@@v8@@@Z 0000000180040354     node_printer_win.obj
 0004:00000360       $pdata$1$?setJob@@YAXAEBV?$FunctionCallbackInfo@VValue@v8@@@v8@@@Z 0000000180040360     node_printer_win.obj
 0004:0000036c       $pdata$2$?setJob@@YAXAEBV?$FunctionCallbackInfo@VValue@v8@@@v8@@@Z 000000018004036c     node_printer_win.obj
 0004:00000378       $pdata$4$?setJob@@YAXAEBV?$FunctionCallbackInfo@VValue@v8@@@v8@@@Z 0000000180040378     node_printer_win.obj
 0004:00000384       $pdata$5$?setJob@@YAXAEBV?$FunctionCallbackInfo@VValue@v8@@@v8@@@Z 0000000180040384     node_printer_win.obj
 0004:00000390       $pdata$6$?setJob@@YAXAEBV?$FunctionCallbackInfo@VValue@v8@@@v8@@@Z 0000000180040390     node_printer_win.obj
 0004:0000039c       $pdata$7$?setJob@@YAXAEBV?$FunctionCallbackInfo@VValue@v8@@@v8@@@Z 000000018004039c     node_printer_win.obj
 0004:000003a8       $pdata$8$?setJob@@YAXAEBV?$FunctionCallbackInfo@VValue@v8@@@v8@@@Z 00000001800403a8     node_printer_win.obj
 0004:000003b4       $pdata$?getSupportedJobCommands@@YAXAEBV?$FunctionCallbackInfo@VValue@v8@@@v8@@@Z 00000001800403b4     node_printer_win.obj
 0004:000003c0       $pdata$?getSupportedPrintFormats@@YAXAEBV?$FunctionCallbackInfo@VValue@v8@@@v8@@@Z 00000001800403c0     node_printer_win.obj
 0004:000003cc       $pdata$?PrintDirect@@YAXAEBV?$FunctionCallbackInfo@VValue@v8@@@v8@@@Z 00000001800403cc     node_printer_win.obj
 0004:000003d8       $pdata$1$?PrintDirect@@YAXAEBV?$FunctionCallbackInfo@VValue@v8@@@v8@@@Z 00000001800403d8     node_printer_win.obj
 0004:000003e4       $pdata$2$?PrintDirect@@YAXAEBV?$FunctionCallbackInfo@VValue@v8@@@v8@@@Z 00000001800403e4     node_printer_win.obj
 0004:000003f0       $pdata$?PrintFile@@YAXAEBV?$FunctionCallbackInfo@VValue@v8@@@v8@@@Z 00000001800403f0     node_printer_win.obj
 0004:000003fc       $pdata$??1?$basic_string@DU?$char_traits@D@std@@V?$allocator@D@2@@std@@QEAA@XZ 00000001800403fc     node_printer_win.obj
 0004:00000408       $pdata$??1?$basic_ostringstream@DU?$char_traits@D@std@@V?$allocator@D@2@@std@@UEAA@XZ 0000000180040408     node_printer_win.obj
 0004:00000414       $pdata$?seekpos@?$basic_stringbuf@DU?$char_traits@D@std@@V?$allocator@D@2@@std@@MEAA?AV?$fpos@U_Mbstatet@@@2@V32@H@Z 0000000180040414     node_printer_win.obj
 0004:00000420       $pdata$?seekoff@?$basic_stringbuf@DU?$char_traits@D@std@@V?$allocator@D@2@@std@@MEAA?AV?$fpos@U_Mbstatet@@@2@_JHH@Z 0000000180040420     node_printer_win.obj
 0004:0000042c       $pdata$?overflow@?$basic_stringbuf@DU?$char_traits@D@std@@V?$allocator@D@2@@std@@MEAAHH@Z 000000018004042c     node_printer_win.obj
 0004:00000438       $pdata$0$?overflow@?$basic_stringbuf@DU?$char_traits@D@std@@V?$allocator@D@2@@std@@MEAAHH@Z 0000000180040438     node_printer_win.obj
 0004:00000444       $pdata$6$?overflow@?$basic_stringbuf@DU?$char_traits@D@std@@V?$allocator@D@2@@std@@MEAAHH@Z 0000000180040444     node_printer_win.obj
 0004:00000450       $pdata$7$?overflow@?$basic_stringbuf@DU?$char_traits@D@std@@V?$allocator@D@2@@std@@MEAAHH@Z 0000000180040450     node_printer_win.obj
 0004:0000045c       $pdata$??6?$basic_ostream@DU?$char_traits@D@std@@@std@@QEAAAEAV01@K@Z 000000018004045c     node_printer_win.obj
 0004:00000468       $pdata$1$??6?$basic_ostream@DU?$char_traits@D@std@@@std@@QEAAAEAV01@K@Z 0000000180040468     node_printer_win.obj
 0004:00000474       $pdata$3$??6?$basic_ostream@DU?$char_traits@D@std@@@std@@QEAAAEAV01@K@Z 0000000180040474     node_printer_win.obj
 0004:00000480       $pdata$4$??6?$basic_ostream@DU?$char_traits@D@std@@@std@@QEAAAEAV01@K@Z 0000000180040480     node_printer_win.obj
 0004:0000048c       $pdata$5$??6?$basic_ostream@DU?$char_traits@D@std@@@std@@QEAAAEAV01@K@Z 000000018004048c     node_printer_win.obj
 0004:00000498       $pdata$6$??6?$basic_ostream@DU?$char_traits@D@std@@@std@@QEAAAEAV01@K@Z 0000000180040498     node_printer_win.obj
 0004:000004a4       $pdata$7$??6?$basic_ostream@DU?$char_traits@D@std@@@std@@QEAAAEAV01@K@Z 00000001800404a4     node_printer_win.obj
 0004:000004b0       $pdata$8$??6?$basic_ostream@DU?$char_traits@D@std@@@std@@QEAAAEAV01@K@Z 00000001800404b0     node_printer_win.obj
 0004:000004bc       $pdata$9$??6?$basic_ostream@DU?$char_traits@D@std@@@std@@QEAAAEAV01@K@Z 00000001800404bc     node_printer_win.obj
 0004:000004c8       $pdata$?xsputn@?$basic_streambuf@DU?$char_traits@D@std@@@std@@MEAA_JPEBD_J@Z 00000001800404c8     node_printer_win.obj
 0004:000004d4       $pdata$0$?xsputn@?$basic_streambuf@DU?$char_traits@D@std@@@std@@MEAA_JPEBD_J@Z 00000001800404d4     node_printer_win.obj
 0004:000004e0       $pdata$1$?xsputn@?$basic_streambuf@DU?$char_traits@D@std@@@std@@MEAA_JPEBD_J@Z 00000001800404e0     node_printer_win.obj
 0004:000004ec       $pdata$?xsgetn@?$basic_streambuf@DU?$char_traits@D@std@@@std@@MEAA_JPEAD_J@Z 00000001800404ec     node_printer_win.obj
 0004:000004f8       $pdata$1$?xsgetn@?$basic_streambuf@DU?$char_traits@D@std@@@std@@MEAA_JPEAD_J@Z 00000001800404f8     node_printer_win.obj
 0004:00000504       $pdata$2$?xsgetn@?$basic_streambuf@DU?$char_traits@D@std@@@std@@MEAA_JPEAD_J@Z 0000000180040504     node_printer_win.obj
 0004:00000510       $pdata$3$?xsgetn@?$basic_streambuf@DU?$char_traits@D@std@@@std@@MEAA_JPEAD_J@Z 0000000180040510     node_printer_win.obj
 0004:0000051c       $pdata$?uflow@?$basic_streambuf@DU?$char_traits@D@std@@@std@@MEAAHXZ 000000018004051c     node_printer_win.obj
 0004:00000528       $pdata$??_G?$basic_ostringstream@DU?$char_traits@D@std@@V?$allocator@D@2@@std@@UEAAPEAXI@Z 0000000180040528     node_printer_win.obj
 0004:00000534       $pdata$??_G?$basic_stringbuf@DU?$char_traits@D@std@@V?$allocator@D@2@@std@@UEAAPEAXI@Z 0000000180040534     node_printer_win.obj
 0004:00000540       $pdata$??_G?$basic_ostream@DU?$char_traits@D@std@@@std@@UEAAPEAXI@Z 0000000180040540     node_printer_win.obj
 0004:0000054c       $pdata$??_G?$basic_streambuf@DU?$char_traits@D@std@@@std@@UEAAPEAXI@Z 000000018004054c     node_printer_win.obj
 0004:00000558       $pdata$??_Glocale@std@@QEAAPEAXI@Z 0000000180040558     node_printer_win.obj
 0004:00000564       $pdata$??0sentry@?$basic_ostream@DU?$char_traits@D@std@@@std@@QEAA@AEAV12@@Z 0000000180040564     node_printer_win.obj
 0004:00000570       $pdata$?do_put@?$num_put@DV?$ostreambuf_iterator@DU?$char_traits@D@std@@@std@@@std@@MEBA?AV?$ostreambuf_iterator@DU?$char_traits@D@std@@@2@V32@AEAVios_base@2@DPEBX@Z 0000000180040570     node_printer_win.obj
 0004:0000057c       $pdata$?do_put@?$num_put@DV?$ostreambuf_iterator@DU?$char_traits@D@std@@@std@@@std@@MEBA?AV?$ostreambuf_iterator@DU?$char_traits@D@std@@@2@V32@AEAVios_base@2@DO@Z 000000018004057c     node_printer_win.obj
 0004:00000588       $pdata$?do_put@?$num_put@DV?$ostreambuf_iterator@DU?$char_traits@D@std@@@std@@@std@@MEBA?AV?$ostreambuf_iterator@DU?$char_traits@D@std@@@2@V32@AEAVios_base@2@DN@Z 0000000180040588     node_printer_win.obj
 0004:00000594       $pdata$?do_put@?$num_put@DV?$ostreambuf_iterator@DU?$char_traits@D@std@@@std@@@std@@MEBA?AV?$ostreambuf_iterator@DU?$char_traits@D@std@@@2@V32@AEAVios_base@2@D_K@Z 0000000180040594     node_printer_win.obj
 0004:000005a0       $pdata$?do_put@?$num_put@DV?$ostreambuf_iterator@DU?$char_traits@D@std@@@std@@@std@@MEBA?AV?$ostreambuf_iterator@DU?$char_traits@D@std@@@2@V32@AEAVios_base@2@D_J@Z 00000001800405a0     node_printer_win.obj
 0004:000005ac       $pdata$?do_put@?$num_put@DV?$ostreambuf_iterator@DU?$char_traits@D@std@@@std@@@std@@MEBA?AV?$ostreambuf_iterator@DU?$char_traits@D@std@@@2@V32@AEAVios_base@2@DK@Z 00000001800405ac     node_printer_win.obj
 0004:000005b8       $pdata$?do_put@?$num_put@DV?$ostreambuf_iterator@DU?$char_traits@D@std@@@std@@@std@@MEBA?AV?$ostreambuf_iterator@DU?$char_traits@D@std@@@2@V32@AEAVios_base@2@DJ@Z 00000001800405b8     node_printer_win.obj
 0004:000005c4       $pdata$?do_put@?$num_put@DV?$ostreambuf_iterator@DU?$char_traits@D@std@@@std@@@std@@MEBA?AV?$ostreambuf_iterator@DU?$char_traits@D@std@@@2@V32@AEAVios_base@2@D_N@Z 00000001800405c4     node_printer_win.obj
 0004:000005d0       $pdata$1$?do_put@?$num_put@DV?$ostreambuf_iterator@DU?$char_traits@D@std@@@std@@@std@@MEBA?AV?$ostreambuf_iterator@DU?$char_traits@D@std@@@2@V32@AEAVios_base@2@D_N@Z 00000001800405d0     node_printer_win.obj
 0004:000005dc       $pdata$2$?do_put@?$num_put@DV?$ostreambuf_iterator@DU?$char_traits@D@std@@@std@@@std@@MEBA?AV?$ostreambuf_iterator@DU?$char_traits@D@std@@@2@V32@AEAVios_base@2@D_N@Z 00000001800405dc     node_printer_win.obj
 0004:000005e8       $pdata$3$?do_put@?$num_put@DV?$ostreambuf_iterator@DU?$char_traits@D@std@@@std@@@std@@MEBA?AV?$ostreambuf_iterator@DU?$char_traits@D@std@@@2@V32@AEAVios_base@2@D_N@Z 00000001800405e8     node_printer_win.obj
 0004:000005f4       $pdata$4$?do_put@?$num_put@DV?$ostreambuf_iterator@DU?$char_traits@D@std@@@std@@@std@@MEBA?AV?$ostreambuf_iterator@DU?$char_traits@D@std@@@2@V32@AEAVios_base@2@D_N@Z 00000001800405f4     node_printer_win.obj
 0004:00000600       $pdata$5$?do_put@?$num_put@DV?$ostreambuf_iterator@DU?$char_traits@D@std@@@std@@@std@@MEBA?AV?$ostreambuf_iterator@DU?$char_traits@D@std@@@2@V32@AEAVios_base@2@D_N@Z 0000000180040600     node_printer_win.obj
 0004:0000060c       $pdata$??R?$less@V?$basic_string@DU?$char_traits@D@std@@V?$allocator@D@2@@std@@@std@@QEBA_NAEBV?$basic_string@DU?$char_traits@D@std@@V?$allocator@D@2@@1@0@Z 000000018004060c     node_printer_win.obj
 0004:00000618       $pdata$?assign@?$basic_string@DU?$char_traits@D@std@@V?$allocator@D@2@@std@@QEAAAEAV12@_KD@Z 0000000180040618     node_printer_win.obj
 0004:00000624       $pdata$?append@?$basic_string@DU?$char_traits@D@std@@V?$allocator@D@2@@std@@QEAAAEAV12@PEBD_K@Z 0000000180040624     node_printer_win.obj
 0004:00000630       $pdata$0$?append@?$basic_string@DU?$char_traits@D@std@@V?$allocator@D@2@@std@@QEAAAEAV12@PEBD_K@Z 0000000180040630     node_printer_win.obj
 0004:0000063c       $pdata$1$?append@?$basic_string@DU?$char_traits@D@std@@V?$allocator@D@2@@std@@QEAAAEAV12@PEBD_K@Z 000000018004063c     node_printer_win.obj
 0004:00000648       $pdata$2$?append@?$basic_string@DU?$char_traits@D@std@@V?$allocator@D@2@@std@@QEAAAEAV12@PEBD_K@Z 0000000180040648     node_printer_win.obj
 0004:00000654       $pdata$?append@?$basic_string@DU?$char_traits@D@std@@V?$allocator@D@2@@std@@QEAAAEAV12@AEBV12@_K1@Z 0000000180040654     node_printer_win.obj
 0004:00000660       $pdata$0$?append@?$basic_string@DU?$char_traits@D@std@@V?$allocator@D@2@@std@@QEAAAEAV12@AEBV12@_K1@Z 0000000180040660     node_printer_win.obj
 0004:0000066c       $pdata$1$?append@?$basic_string@DU?$char_traits@D@std@@V?$allocator@D@2@@std@@QEAAAEAV12@AEBV12@_K1@Z 000000018004066c     node_printer_win.obj
 0004:00000678       $pdata$2$?append@?$basic_string@DU?$char_traits@D@std@@V?$allocator@D@2@@std@@QEAAAEAV12@AEBV12@_K1@Z 0000000180040678     node_printer_win.obj
 0004:00000684       $pdata$?_Assign_rv@?$basic_string@DU?$char_traits@D@std@@V?$allocator@D@2@@std@@QEAAX$$QEAV12@@Z 0000000180040684     node_printer_win.obj
 0004:00000690       $pdata$?_Tidy@?$basic_stringbuf@DU?$char_traits@D@std@@V?$allocator@D@2@@std@@IEAAXXZ 0000000180040690     node_printer_win.obj
 0004:0000069c       $pdata$?str@?$basic_stringbuf@DU?$char_traits@D@std@@V?$allocator@D@2@@std@@QEBA?AV?$basic_string@DU?$char_traits@D@std@@V?$allocator@D@2@@2@XZ 000000018004069c     node_printer_win.obj
 0004:000006a8       $pdata$??_G?$num_put@DV?$ostreambuf_iterator@DU?$char_traits@D@std@@@std@@@std@@MEAAPEAXI@Z 00000001800406a8     node_printer_win.obj
 0004:000006b4       $pdata$?do_truename@?$numpunct@D@std@@MEBA?AV?$basic_string@DU?$char_traits@D@std@@V?$allocator@D@2@@2@XZ 00000001800406b4     node_printer_win.obj
 0004:000006c0       $pdata$?do_falsename@?$numpunct@D@std@@MEBA?AV?$basic_string@DU?$char_traits@D@std@@V?$allocator@D@2@@2@XZ 00000001800406c0     node_printer_win.obj
 0004:000006cc       $pdata$?do_grouping@?$numpunct@D@std@@MEBA?AV?$basic_string@DU?$char_traits@D@std@@V?$allocator@D@2@@2@XZ 00000001800406cc     node_printer_win.obj
 0004:000006d8       $pdata$?_Iput@?$num_put@DV?$ostreambuf_iterator@DU?$char_traits@D@std@@@std@@@std@@AEBA?AV?$ostreambuf_iterator@DU?$char_traits@D@std@@@2@V32@AEAVios_base@2@DPEAD_K@Z 00000001800406d8     node_printer_win.obj
 0004:000006e4       $pdata$?_Fput@?$num_put@DV?$ostreambuf_iterator@DU?$char_traits@D@std@@@std@@@std@@AEBA?AV?$ostreambuf_iterator@DU?$char_traits@D@std@@@2@V32@AEAVios_base@2@DPEBD_K@Z 00000001800406e4     node_printer_win.obj
 0004:000006f0       $pdata$?append@?$basic_string@DU?$char_traits@D@std@@V?$allocator@D@2@@std@@QEAAAEAV12@_KD@Z 00000001800406f0     node_printer_win.obj
 0004:000006fc       $pdata$0$?append@?$basic_string@DU?$char_traits@D@std@@V?$allocator@D@2@@std@@QEAAAEAV12@_KD@Z 00000001800406fc     node_printer_win.obj
 0004:00000708       $pdata$1$?append@?$basic_string@DU?$char_traits@D@std@@V?$allocator@D@2@@std@@QEAAAEAV12@_KD@Z 0000000180040708     node_printer_win.obj
 0004:00000714       $pdata$2$?append@?$basic_string@DU?$char_traits@D@std@@V?$allocator@D@2@@std@@QEAAAEAV12@_KD@Z 0000000180040714     node_printer_win.obj
 0004:00000720       $pdata$?flush@?$basic_ostream@DU?$char_traits@D@std@@@std@@QEAAAEAV12@XZ 0000000180040720     node_printer_win.obj
 0004:0000072c       $pdata$1$?flush@?$basic_ostream@DU?$char_traits@D@std@@@std@@QEAAAEAV12@XZ 000000018004072c     node_printer_win.obj
 0004:00000738       $pdata$2$?flush@?$basic_ostream@DU?$char_traits@D@std@@@std@@QEAAAEAV12@XZ 0000000180040738     node_printer_win.obj
 0004:00000744       $pdata$3$?flush@?$basic_ostream@DU?$char_traits@D@std@@@std@@QEAAAEAV12@XZ 0000000180040744     node_printer_win.obj
 0004:00000750       $pdata$4$?flush@?$basic_ostream@DU?$char_traits@D@std@@@std@@QEAAAEAV12@XZ 0000000180040750     node_printer_win.obj
 0004:0000075c       $pdata$??0?$basic_streambuf@DU?$char_traits@D@std@@@std@@IEAA@XZ 000000018004075c     node_printer_win.obj
 0004:00000768       $pdata$?init@?$basic_ios@DU?$char_traits@D@std@@@std@@IEAAXPEAV?$basic_streambuf@DU?$char_traits@D@std@@@2@_N@Z 0000000180040768     node_printer_win.obj
 0004:00000774       $pdata$??_G?$numpunct@D@std@@MEAAPEAXI@Z 0000000180040774     node_printer_win.obj
 0004:00000780       $pdata$?widen@?$basic_ios@DU?$char_traits@D@std@@@std@@QEBADD@Z 0000000180040780     node_printer_win.obj
 0004:0000078c       $pdata$?_Erase@?$_Tree@V?$_Tmap_traits@V?$basic_string@DU?$char_traits@D@std@@V?$allocator@D@2@@std@@KU?$less@V?$basic_string@DU?$char_traits@D@std@@V?$allocator@D@2@@std@@@2@V?$allocator@U?$pair@$$CBV?$basic_string@DU?$char_traits@D@std@@V?$allocator@D@2@@std@@K@std@@@2@$0A@@std@@@std@@IEAAXPEAU?$_Tree_node@U?$pair@$$CBV?$basic_string@DU?$char_traits@D@std@@V?$allocator@D@2@@std@@K@std@@PEAX@2@@Z 000000018004078c     node_printer_win.obj
 0004:00000798       $pdata$0$?_Erase@?$_Tree@V?$_Tmap_traits@V?$basic_string@DU?$char_traits@D@std@@V?$allocator@D@2@@std@@KU?$less@V?$basic_string@DU?$char_traits@D@std@@V?$allocator@D@2@@std@@@2@V?$allocator@U?$pair@$$CBV?$basic_string@DU?$char_traits@D@std@@V?$allocator@D@2@@std@@K@std@@@2@$0A@@std@@@std@@IEAAXPEAU?$_Tree_node@U?$pair@$$CBV?$basic_string@DU?$char_traits@D@std@@V?$allocator@D@2@@std@@K@std@@PEAX@2@@Z 0000000180040798     node_printer_win.obj
 0004:000007a4       $pdata$1$?_Erase@?$_Tree@V?$_Tmap_traits@V?$basic_string@DU?$char_traits@D@std@@V?$allocator@D@2@@std@@KU?$less@V?$basic_string@DU?$char_traits@D@std@@V?$allocator@D@2@@std@@@2@V?$allocator@U?$pair@$$CBV?$basic_string@DU?$char_traits@D@std@@V?$allocator@D@2@@std@@K@std@@@2@$0A@@std@@@std@@IEAAXPEAU?$_Tree_node@U?$pair@$$CBV?$basic_string@DU?$char_traits@D@std@@V?$allocator@D@2@@std@@K@std@@PEAX@2@@Z 00000001800407a4     node_printer_win.obj
 0004:000007b0       $pdata$2$?_Erase@?$_Tree@V?$_Tmap_traits@V?$basic_string@DU?$char_traits@D@std@@V?$allocator@D@2@@std@@KU?$less@V?$basic_string@DU?$char_traits@D@std@@V?$allocator@D@2@@std@@@2@V?$allocator@U?$pair@$$CBV?$basic_string@DU?$char_traits@D@std@@V?$allocator@D@2@@std@@K@std@@@2@$0A@@std@@@std@@IEAAXPEAU?$_Tree_node@U?$pair@$$CBV?$basic_string@DU?$char_traits@D@std@@V?$allocator@D@2@@std@@K@std@@PEAX@2@@Z 00000001800407b0     node_printer_win.obj
 0004:000007bc       $pdata$??$use_facet@V?$ctype@D@std@@@std@@YAAEBV?$ctype@D@0@AEBVlocale@0@@Z 00000001800407bc     node_printer_win.obj
 0004:000007c8       $pdata$??$_Immortalize@V_Iostream_error_category@std@@@std@@YAAEAV_Iostream_error_category@0@XZ 00000001800407c8     node_printer_win.obj
 0004:000007d4       $pdata$??$?6U?$char_traits@D@std@@@std@@YAAEAV?$basic_ostream@DU?$char_traits@D@std@@@0@AEAV10@PEBD@Z 00000001800407d4     node_printer_win.obj
 0004:000007e0       $pdata$3$??$?6U?$char_traits@D@std@@@std@@YAAEAV?$basic_ostream@DU?$char_traits@D@std@@@0@AEAV10@PEBD@Z 00000001800407e0     node_printer_win.obj
 0004:000007ec       $pdata$4$??$?6U?$char_traits@D@std@@@std@@YAAEAV?$basic_ostream@DU?$char_traits@D@std@@@0@AEAV10@PEBD@Z 00000001800407ec     node_printer_win.obj
 0004:000007f8       $pdata$5$??$?6U?$char_traits@D@std@@@std@@YAAEAV?$basic_ostream@DU?$char_traits@D@std@@@0@AEAV10@PEBD@Z 00000001800407f8     node_printer_win.obj
 0004:00000804       $pdata$6$??$?6U?$char_traits@D@std@@@std@@YAAEAV?$basic_ostream@DU?$char_traits@D@std@@@0@AEAV10@PEBD@Z 0000000180040804     node_printer_win.obj
 0004:00000810       $pdata$7$??$?6U?$char_traits@D@std@@@std@@YAAEAV?$basic_ostream@DU?$char_traits@D@std@@@0@AEAV10@PEBD@Z 0000000180040810     node_printer_win.obj
 0004:0000081c       $pdata$??$?6DU?$char_traits@D@std@@V?$allocator@D@1@@std@@YAAEAV?$basic_ostream@DU?$char_traits@D@std@@@0@AEAV10@AEBV?$basic_string@DU?$char_traits@D@std@@V?$allocator@D@2@@0@@Z 000000018004081c     node_printer_win.obj
 0004:00000828       $pdata$??$use_facet@V?$num_put@DV?$ostreambuf_iterator@DU?$char_traits@D@std@@@std@@@std@@@std@@YAAEBV?$num_put@DV?$ostreambuf_iterator@DU?$char_traits@D@std@@@std@@@0@AEBVlocale@0@@Z 0000000180040828     node_printer_win.obj
 0004:00000834       $pdata$??$use_facet@V?$numpunct@D@std@@@std@@YAAEBV?$numpunct@D@0@AEBVlocale@0@@Z 0000000180040834     node_printer_win.obj
 0004:00000840       $pdata$?_Getcat@?$numpunct@D@std@@SA_KPEAPEBVfacet@locale@2@PEBV42@@Z 0000000180040840     node_printer_win.obj
 0004:0000084c       $pdata$0$?_Getcat@?$numpunct@D@std@@SA_KPEAPEBVfacet@locale@2@PEBV42@@Z 000000018004084c     node_printer_win.obj
 0004:00000858       $pdata$1$?_Getcat@?$numpunct@D@std@@SA_KPEAPEBVfacet@locale@2@PEBV42@@Z 0000000180040858     node_printer_win.obj
 0004:00000864       $pdata$?_Init@?$numpunct@D@std@@IEAAXAEBV_Locinfo@2@_N@Z 0000000180040864     node_printer_win.obj
 0004:00000870       $pdata$??$emplace@U?$pair@PEBDH@std@@@?$_Tree@V?$_Tmap_traits@V?$basic_string@DU?$char_traits@D@std@@V?$allocator@D@2@@std@@KU?$less@V?$basic_string@DU?$char_traits@D@std@@V?$allocator@D@2@@std@@@2@V?$allocator@U?$pair@$$CBV?$basic_string@DU?$char_traits@D@std@@V?$allocator@D@2@@std@@K@std@@@2@$0A@@std@@@std@@QEAA?AU?$pair@V?$_Tree_iterator@V?$_Tree_val@U?$_Tree_simple_types@U?$pair@$$CBV?$basic_string@DU?$char_traits@D@std@@V?$allocator@D@2@@std@@K@std@@@std@@@std@@@std@@_N@1@$$QEAU?$pair@PEBDH@1@@Z 0000000180040870     node_printer_win.obj
 0004:0000087c       $pdata$??$_Insert_nohint@AEAU?$pair@$$CBV?$basic_string@DU?$char_traits@D@std@@V?$allocator@D@2@@std@@K@std@@PEAU?$_Tree_node@U?$pair@$$CBV?$basic_string@DU?$char_traits@D@std@@V?$allocator@D@2@@std@@K@std@@PEAX@2@@?$_Tree@V?$_Tmap_traits@V?$basic_string@DU?$char_traits@D@std@@V?$allocator@D@2@@std@@KU?$less@V?$basic_string@DU?$char_traits@D@std@@V?$allocator@D@2@@std@@@2@V?$allocator@U?$pair@$$CBV?$basic_string@DU?$char_traits@D@std@@V?$allocator@D@2@@std@@K@std@@@2@$0A@@std@@@std@@IEAA?AU?$pair@V?$_Tree_iterator@V?$_Tree_val@U?$_Tree_simple_types@U?$pair@$$CBV?$basic_string@DU?$char_traits@D@std@@V?$allocator@D@2@@std@@K@std@@@std@@@std@@@std@@_N@1@_NAEAU?$pair@$$CBV?$basic_string@DU?$char_traits@D@std@@V?$allocator@D@2@@std@@K@1@PEAU?$_Tree_node@U?$pair@$$CBV?$basic_string@DU?$char_traits@D@std@@V?$allocator@D@2@@std@@K@std@@PEAX@1@@Z 000000018004087c     node_printer_win.obj
 0004:00000888       $pdata$1$??$_Insert_nohint@AEAU?$pair@$$CBV?$basic_string@DU?$char_traits@D@std@@V?$allocator@D@2@@std@@K@std@@PEAU?$_Tree_node@U?$pair@$$CBV?$basic_string@DU?$char_traits@D@std@@V?$allocator@D@2@@std@@K@std@@PEAX@2@@?$_Tree@V?$_Tmap_traits@V?$basic_string@DU?$char_traits@D@std@@V?$allocator@D@2@@std@@KU?$less@V?$basic_string@DU?$char_traits@D@std@@V?$allocator@D@2@@std@@@2@V?$allocator@U?$pair@$$CBV?$basic_string@DU?$char_traits@D@std@@V?$allocator@D@2@@std@@K@std@@@2@$0A@@std@@@std@@IEAA?AU?$pair@V?$_Tree_iterator@V?$_Tree_val@U?$_Tree_simple_types@U?$pair@$$CBV?$basic_string@DU?$char_traits@D@std@@V?$allocator@D@2@@std@@K@std@@@std@@@std@@@std@@_N@1@_NAEAU?$pair@$$CBV?$basic_string@DU?$char_traits@D@std@@V?$allocator@D@2@@std@@K@1@PEAU?$_Tree_node@U?$pair@$$CBV?$basic_string@DU?$char_traits@D@std@@V?$allocator@D@2@@std@@K@std@@PEAX@1@@Z 0000000180040888     node_printer_win.obj
 0004:00000894       $pdata$2$??$_Insert_nohint@AEAU?$pair@$$CBV?$basic_string@DU?$char_traits@D@std@@V?$allocator@D@2@@std@@K@std@@PEAU?$_Tree_node@U?$pair@$$CBV?$basic_string@DU?$char_traits@D@std@@V?$allocator@D@2@@std@@K@std@@PEAX@2@@?$_Tree@V?$_Tmap_traits@V?$basic_string@DU?$char_traits@D@std@@V?$allocator@D@2@@std@@KU?$less@V?$basic_string@DU?$char_traits@D@std@@V?$allocator@D@2@@std@@@2@V?$allocator@U?$pair@$$CBV?$basic_string@DU?$char_traits@D@std@@V?$allocator@D@2@@std@@K@std@@@2@$0A@@std@@@std@@IEAA?AU?$pair@V?$_Tree_iterator@V?$_Tree_val@U?$_Tree_simple_types@U?$pair@$$CBV?$basic_string@DU?$char_traits@D@std@@V?$allocator@D@2@@std@@K@std@@@std@@@std@@@std@@_N@1@_NAEAU?$pair@$$CBV?$basic_string@DU?$char_traits@D@std@@V?$allocator@D@2@@std@@K@1@PEAU?$_Tree_node@U?$pair@$$CBV?$basic_string@DU?$char_traits@D@std@@V?$allocator@D@2@@std@@K@std@@PEAX@1@@Z 0000000180040894     node_printer_win.obj
 0004:000008a0       $pdata$??$_Insert_at@AEAU?$pair@$$CBV?$basic_string@DU?$char_traits@D@std@@V?$allocator@D@2@@std@@K@std@@PEAU?$_Tree_node@U?$pair@$$CBV?$basic_string@DU?$char_traits@D@std@@V?$allocator@D@2@@std@@K@std@@PEAX@2@@?$_Tree@V?$_Tmap_traits@V?$basic_string@DU?$char_traits@D@std@@V?$allocator@D@2@@std@@KU?$less@V?$basic_string@DU?$char_traits@D@std@@V?$allocator@D@2@@std@@@2@V?$allocator@U?$pair@$$CBV?$basic_string@DU?$char_traits@D@std@@V?$allocator@D@2@@std@@K@std@@@2@$0A@@std@@@std@@IEAA?AV?$_Tree_iterator@V?$_Tree_val@U?$_Tree_simple_types@U?$pair@$$CBV?$basic_string@DU?$char_traits@D@std@@V?$allocator@D@2@@std@@K@std@@@std@@@std@@@1@_NPEAU?$_Tree_node@U?$pair@$$CBV?$basic_string@DU?$char_traits@D@std@@V?$allocator@D@2@@std@@K@std@@PEAX@1@AEAU?$pair@$$CBV?$basic_string@DU?$char_traits@D@std@@V?$allocator@D@2@@std@@K@1@1@Z 00000001800408a0     node_printer_win.obj
 0004:000008ac       $pdata$?load_exe_hook@@YAP6A_JXZIPEAUDelayLoadInfo@@@Z 00000001800408ac     win_delay_load_hook.obj
 0004:000008c4       $pdata$??0bad_alloc@std@@QEAA@AEBV01@@Z 00000001800408c4     libcpmt:xthrow.obj
 0004:000008d0       $pdata$??0exception@std@@QEAA@AEBV01@@Z 00000001800408d0     libcpmt:xthrow.obj
 0004:000008dc       $pdata$??0length_error@std@@QEAA@AEBV01@@Z 00000001800408dc     libcpmt:xthrow.obj
 0004:000008e8       $pdata$??0length_error@std@@QEAA@PEBD@Z 00000001800408e8     libcpmt:xthrow.obj
 0004:000008f4       $pdata$??0logic_error@std@@QEAA@AEBV01@@Z 00000001800408f4     libcpmt:xthrow.obj
 0004:00000900       $pdata$??0out_of_range@std@@QEAA@AEBV01@@Z 0000000180040900     libcpmt:xthrow.obj
 0004:0000090c       $pdata$??0out_of_range@std@@QEAA@PEBD@Z 000000018004090c     libcpmt:xthrow.obj
 0004:00000918       $pdata$??_Glogic_error@std@@UEAAPEAXI@Z 0000000180040918     libcpmt:xthrow.obj
 0004:00000918       $pdata$??_Gout_of_range@std@@UEAAPEAXI@Z 0000000180040918     libcpmt:xthrow.obj
 0004:00000918       $pdata$??_Gexception@std@@UEAAPEAXI@Z 0000000180040918     libcpmt:xthrow.obj
 0004:00000918       $pdata$??_Gbad_array_new_length@std@@UEAAPEAXI@Z 0000000180040918     LIBCMT:throw_bad_alloc.obj
 0004:00000918       $pdata$??_Gbad_alloc@std@@UEAAPEAXI@Z 0000000180040918     libcpmt:xthrow.obj
 0004:00000918       $pdata$??_Glength_error@std@@UEAAPEAXI@Z 0000000180040918     libcpmt:xthrow.obj
 0004:00000918       $pdata$??_Gbad_exception@std@@UEAAPEAXI@Z 0000000180040918     libvcruntime:frame.obj
 0004:00000924       $pdata$?_Xbad_alloc@std@@YAXXZ 0000000180040924     libcpmt:xthrow.obj
 0004:00000924       $pdata$?__scrt_throw_std_bad_alloc@@YAXXZ 0000000180040924     LIBCMT:throw_bad_alloc.obj
 0004:00000930       $pdata$?_Xlength_error@std@@YAXPEBD@Z 0000000180040930     libcpmt:xthrow.obj
 0004:0000093c       $pdata$?_Xout_of_range@std@@YAXPEBD@Z 000000018004093c     libcpmt:xthrow.obj
 0004:00000948       $pdata$??0_Init_locks@std@@QEAA@XZ 0000000180040948     libcpmt:xlock.obj
 0004:00000954       $pdata$??0_Lockit@std@@QEAA@H@Z 0000000180040954     libcpmt:xlock.obj
 0004:00000960       $pdata$??1_Init_locks@std@@QEAA@XZ 0000000180040960     libcpmt:xlock.obj
 0004:0000096c       $pdata$??1_Lockit@std@@QEAA@XZ 000000018004096c     libcpmt:xlock.obj
 0004:00000978       $pdata$??4?$_Yarn@D@std@@QEAAAEAV01@PEBD@Z 0000000180040978     libcpmt:locale0.obj
 0004:00000984       $pdata$??_G_Fac_node@std@@QEAAPEAXI@Z 0000000180040984     libcpmt:locale0.obj
 0004:00000990       $pdata$??_G_Locimp@locale@std@@MEAAPEAXI@Z 0000000180040990     libcpmt:locale0.obj
 0004:0000099c       $pdata$?_Facet_Register@std@@YAXPEAV_Facet_base@1@@Z 000000018004099c     libcpmt:locale0.obj
 0004:000009a8       $pdata$?_Init@locale@std@@CAPEAV_Locimp@12@_N@Z 00000001800409a8     libcpmt:locale0.obj
 0004:000009b4       $pdata$?_Locimp_dtor@_Locimp@locale@std@@CAXPEAV123@@Z 00000001800409b4     libcpmt:locale0.obj
 0004:000009c0       $pdata$?_Locinfo_ctor@_Locinfo@std@@SAXPEAV12@PEBD@Z 00000001800409c0     libcpmt:locale0.obj
 0004:000009cc       $pdata$?_Locinfo_dtor@_Locinfo@std@@SAXPEAV12@@Z 00000001800409cc     libcpmt:locale0.obj
 0004:000009d8       $pdata$?_New_Locimp@_Locimp@locale@std@@CAPEAV123@_N@Z 00000001800409d8     libcpmt:locale0.obj
 0004:000009e4       $pdata$?_Setgloballocale@locale@std@@CAXPEAX@Z 00000001800409e4     libcpmt:locale0.obj
 0004:000009f0       $pdata$_Deletegloballocale 00000001800409f0     libcpmt:locale0.obj
 0004:000009fc       $pdata$tidy_global         00000001800409fc     libcpmt:locale0.obj
 0004:00000a08       $pdata$?_Ios_base_dtor@ios_base@std@@CAXPEAV12@@Z 0000000180040a08     libcpmt:ios.obj
 0004:00000a14       $pdata$?_Tidy@ios_base@std@@AEAAXXZ 0000000180040a14     libcpmt:ios.obj
 0004:00000a20       $pdata$_Getctype           0000000180040a20     libcpmt:_tolower.obj
 0004:00000a2c       $pdata$_Tolower            0000000180040a2c     libcpmt:_tolower.obj
 0004:00000a38       $pdata$_Getcvt             0000000180040a38     libcpmt:xwctomb.obj
 0004:00000a44       $pdata$_Toupper            0000000180040a44     libcpmt:_toupper.obj
 0004:00000a50       $pdata$?_Atexit@@YAXP6AXXZ@Z 0000000180040a50     libcpmt:iosptrs.obj
 0004:00000a5c       $pdata$__crtLCMapStringA   0000000180040a5c     libcpmt:StlLCMapStringA.obj
 0004:00000a68       $pdata$?initialize_pointers@@YAHXZ 0000000180040a68     libcpmt:winapisupp.obj
 0004:00000a74       $pdata$__crtInitializeCriticalSectionEx 0000000180040a74     libcpmt:winapisupp.obj
 0004:00000a80       $pdata$GetTableIndexFromLocaleName 0000000180040a80     libcpmt:winapinls.obj
 0004:00000a8c       $pdata$__crtDownlevelLocaleNameToLCID 0000000180040a8c     libcpmt:winapinls.obj
 0004:00000a98       $pdata$__crtLCMapStringEx  0000000180040a98     libcpmt:winapinls.obj
 0004:00000ab0       $pdata$??2@YAPEAX_K@Z      0000000180040ab0     LIBCMT:new_scalar.obj
 0004:00000abc       $pdata$?__scrt_initialize_thread_safe_statics@@YAHXZ 0000000180040abc     LIBCMT:thread_safe_statics.obj
 0004:00000ac8       $pdata$?__scrt_uninitialize_thread_safe_statics@@YAXXZ 0000000180040ac8     LIBCMT:thread_safe_statics.obj
 0004:00000ad4       $pdata$_Init_thread_footer 0000000180040ad4     LIBCMT:thread_safe_statics.obj
 0004:00000ae0       $pdata$_Init_thread_header 0000000180040ae0     LIBCMT:thread_safe_statics.obj
 0004:00000aec       $pdata$_Init_thread_notify 0000000180040aec     LIBCMT:thread_safe_statics.obj
 0004:00000af8       $pdata$_Init_thread_wait   0000000180040af8     LIBCMT:thread_safe_statics.obj
 0004:00000b04       $pdata$__scrt_acquire_startup_lock 0000000180040b04     LIBCMT:utility.obj
 0004:00000b10       $pdata$__scrt_dllmain_after_initialize_c 0000000180040b10     LIBCMT:utility.obj
 0004:00000b1c       $pdata$__scrt_dllmain_before_initialize_c 0000000180040b1c     LIBCMT:utility.obj
 0004:00000b28       $pdata$__scrt_dllmain_crt_thread_attach 0000000180040b28     LIBCMT:utility.obj
 0004:00000b34       $pdata$__scrt_dllmain_crt_thread_detach 0000000180040b34     LIBCMT:utility.obj
 0004:00000b40       $pdata$__scrt_dllmain_exception_filter 0000000180040b40     LIBCMT:utility.obj
 0004:00000b4c       $pdata$__scrt_dllmain_uninitialize_c 0000000180040b4c     LIBCMT:utility.obj
 0004:00000b58       $pdata$__scrt_dllmain_uninitialize_critical 0000000180040b58     LIBCMT:utility.obj
 0004:00000b64       $pdata$__scrt_initialize_crt 0000000180040b64     LIBCMT:utility.obj
 0004:00000b70       $pdata$__scrt_initialize_onexit_tables 0000000180040b70     LIBCMT:utility.obj
 0004:00000b7c       $pdata$__scrt_is_nonwritable_in_current_image 0000000180040b7c     LIBCMT:utility.obj
 0004:00000b88       $pdata$__scrt_release_startup_lock 0000000180040b88     LIBCMT:utility.obj
 0004:00000b94       $pdata$__scrt_uninitialize_crt 0000000180040b94     LIBCMT:utility.obj
 0004:00000ba0       $pdata$_onexit             0000000180040ba0     LIBCMT:utility.obj
 0004:00000bac       $pdata$atexit              0000000180040bac     LIBCMT:utility.obj
 0004:00000bb8       $pdata$?dllmain_crt_dispatch@@YAHQEAUHINSTANCE__@@KQEAX@Z 0000000180040bb8     LIBCMT:dll_dllmain.obj
 0004:00000bc4       $pdata$?dllmain_crt_process_attach@@YAHQEAUHINSTANCE__@@QEAX@Z 0000000180040bc4     LIBCMT:dll_dllmain.obj
 0004:00000bd0       $pdata$?dllmain_crt_process_detach@@YAH_N@Z 0000000180040bd0     LIBCMT:dll_dllmain.obj
 0004:00000bdc       $pdata$?dllmain_dispatch@@YAHQEAUHINSTANCE__@@KQEAX@Z 0000000180040bdc     LIBCMT:dll_dllmain.obj
 0004:00000be8       $pdata$?dllmain_raw@@YAHQEAUHINSTANCE__@@KQEAX@Z 0000000180040be8     LIBCMT:dll_dllmain.obj
 0004:00000bf4       $pdata$_DllMainCRTStartup  0000000180040bf4     LIBCMT:dll_dllmain.obj
 0004:00000c00       $pdata$??_Gtype_info@@UEAAPEAXI@Z 0000000180040c00     LIBCMT:std_type_info_static.obj
 0004:00000c0c       $pdata$__GSHandlerCheck    0000000180040c0c     LIBCMT:_gshandler_.obj
 0004:00000c18       $pdata$__GSHandlerCheckCommon 0000000180040c18     LIBCMT:_gshandler_.obj
 0004:00000c30       $pdata$__raise_securityfailure 0000000180040c30     LIBCMT:gs_report.obj
 0004:00000c3c       $pdata$__report_gsfailure  0000000180040c3c     LIBCMT:gs_report.obj
 0004:00000c48       $pdata$__report_rangecheckfailure 0000000180040c48     LIBCMT:gs_report.obj
 0004:00000c54       $pdata$__report_securityfailure 0000000180040c54     LIBCMT:gs_report.obj
 0004:00000c60       $pdata$capture_current_context 0000000180040c60     LIBCMT:gs_report.obj
 0004:00000c6c       $pdata$capture_previous_context 0000000180040c6c     LIBCMT:gs_report.obj
 0004:00000c78       $pdata$??0bad_array_new_length@std@@QEAA@AEBV01@@Z 0000000180040c78     LIBCMT:throw_bad_alloc.obj
 0004:00000c84       $pdata$?__scrt_throw_std_bad_array_new_length@@YAXXZ 0000000180040c84     LIBCMT:throw_bad_alloc.obj
 0004:00000c90       $pdata$__scrt_fastfail     0000000180040c90     LIBCMT:utility_desktop.obj
 0004:00000c9c       $pdata$__isa_available_init 0000000180040c9c     LIBCMT:_cpu_disp_.obj
 0004:00000ca8       $pdata$__security_init_cookie 0000000180040ca8     LIBCMT:gs_support.obj
 0004:00000cb4       $pdata$__scrt_initialize_default_local_stdio_options 0000000180040cb4     LIBCMT:default_local_stdio_options.obj
 0004:00000cc0       $pdata$_RTC_Initialize     0000000180040cc0     LIBCMT:_initsect_.obj
 0004:00000ccc       $pdata$_RTC_Terminate      0000000180040ccc     LIBCMT:_initsect_.obj
 0004:00000ce4       $pdata$_purecall           0000000180040ce4     libvcruntime:purevirt.obj
 0004:00000cf0       $pdata$__std_exception_copy 0000000180040cf0     libvcruntime:std_exception.obj
 0004:00000cfc       $pdata$__std_exception_destroy 0000000180040cfc     libvcruntime:std_exception.obj
 0004:00000d08       $pdata$_CxxThrowException  0000000180040d08     libvcruntime:throw.obj
 0004:00000d14       $pdata$__DestructExceptionObject 0000000180040d14     libvcruntime:frame.obj
 0004:00000d20       $pdata$??0bad_exception@std@@QEAA@AEBV01@@Z 0000000180040d20     libvcruntime:frame.obj
 0004:00000d2c       $pdata$?CatchIt@@YAXPEAUEHExceptionRecord@@PEA_KPEAU_CONTEXT@@PEAU_xDISPATCHER_CONTEXT@@PEBU_s_FuncInfo@@PEBU_s_HandlerType@@PEBU_s_CatchableType@@PEBU_s_TryBlockMapEntry@@H1EE@Z 0000000180040d2c     libvcruntime:frame.obj
 0004:00000d38       $pdata$?ExFilterRethrow@@YAHPEAU_EXCEPTION_POINTERS@@PEAUEHExceptionRecord@@PEAH@Z 0000000180040d38     libvcruntime:frame.obj
 0004:00000d44       $pdata$?FindHandler@@YAXPEAUEHExceptionRecord@@PEA_KPEAU_CONTEXT@@PEAU_xDISPATCHER_CONTEXT@@PEBU_s_FuncInfo@@EH1@Z 0000000180040d44     libvcruntime:frame.obj
 0004:00000d50       $pdata$?FindHandlerForForeignException@@YAXPEAUEHExceptionRecord@@PEA_KPEAU_CONTEXT@@PEAU_xDISPATCHER_CONTEXT@@PEBU_s_FuncInfo@@HH1@Z 0000000180040d50     libvcruntime:frame.obj
 0004:00000d5c       $pdata$?IsInExceptionSpec@@YAEPEAUEHExceptionRecord@@PEBU_s_ESTypeList@@@Z 0000000180040d5c     libvcruntime:frame.obj
 0004:00000d68       $pdata$__BuildCatchObject  0000000180040d68     libvcruntime:frame.obj
 0004:00000d74       $pdata$__BuildCatchObjectHelper 0000000180040d74     libvcruntime:frame.obj
 0004:00000d80       $pdata$__CxxCallCatchBlock 0000000180040d80     libvcruntime:frame.obj
 0004:00000d8c       $pdata$__FrameUnwindFilter 0000000180040d8c     libvcruntime:frame.obj
 0004:00000d98       $pdata$__FrameUnwindToState 0000000180040d98     libvcruntime:frame.obj
 0004:00000da4       $pdata$__InternalCxxFrameHandler 0000000180040da4     libvcruntime:frame.obj
 0004:00000db0       $pdata$__TypeMatch         0000000180040db0     libvcruntime:frame.obj
 0004:00000dbc       $pdata$__std_terminate     0000000180040dbc     libvcruntime:frame.obj
 0004:00000dc8       $pdata$?_ExecutionInCatch@@YAHPEAU_xDISPATCHER_CONTEXT@@PEBU_s_FuncInfo@@@Z 0000000180040dc8     libvcruntime:trnsctrl.obj
 0004:00000dd4       $pdata$?_GetEstablisherFrame@@YAPEA_KPEA_KPEAU_xDISPATCHER_CONTEXT@@PEBU_s_FuncInfo@@0@Z 0000000180040dd4     libvcruntime:trnsctrl.obj
 0004:00000de0       $pdata$?_GetRangeOfTrysToCheck@@YAPEBU_s_TryBlockMapEntry@@PEA_KPEBU_s_FuncInfo@@HHPEAI2PEAU_xDISPATCHER_CONTEXT@@@Z 0000000180040de0     libvcruntime:trnsctrl.obj
 0004:00000dec       $pdata$?__FrameUnwindToEmptyState@@YAXPEA_KPEAU_xDISPATCHER_CONTEXT@@PEBU_s_FuncInfo@@@Z 0000000180040dec     libvcruntime:trnsctrl.obj
 0004:00000df8       $pdata$?__SehTransFilter@@YAHPEAU_EXCEPTION_POINTERS@@PEAUEHExceptionRecord@@PEA_KPEAU_CONTEXT@@PEAU_xDISPATCHER_CONTEXT@@PEBU_s_FuncInfo@@PEAH@Z 0000000180040df8     libvcruntime:trnsctrl.obj
 0004:00000e04       $pdata$_CallSETranslator   0000000180040e04     libvcruntime:trnsctrl.obj
 0004:00000e10       $pdata$_CreateFrameInfo    0000000180040e10     libvcruntime:trnsctrl.obj
 0004:00000e1c       $pdata$_FindAndUnlinkFrame 0000000180040e1c     libvcruntime:trnsctrl.obj
 0004:00000e28       $pdata$_GetImageBase       0000000180040e28     libvcruntime:trnsctrl.obj
 0004:00000e34       $pdata$_GetThrowImageBase  0000000180040e34     libvcruntime:trnsctrl.obj
 0004:00000e40       $pdata$_IsExceptionObjectToBeDestroyed 0000000180040e40     libvcruntime:trnsctrl.obj
 0004:00000e4c       $pdata$_SetImageBase       0000000180040e4c     libvcruntime:trnsctrl.obj
 0004:00000e58       $pdata$_SetThrowImageBase  0000000180040e58     libvcruntime:trnsctrl.obj
 0004:00000e64       $pdata$_UnwindNestedFrames 0000000180040e64     libvcruntime:trnsctrl.obj
 0004:00000e70       $pdata$__CxxFrameHandler3  0000000180040e70     libvcruntime:trnsctrl.obj
 0004:00000e94       $pdata$?try_get_function@@YAPEAXW4function_id@?A0x679b24ab@@QEBDQEBW4module_id@2@2@Z 0000000180040e94     libvcruntime:winapi_downlevel.obj
 0004:00000ea0       $pdata$__vcrt_FlsAlloc     0000000180040ea0     libvcruntime:winapi_downlevel.obj
 0004:00000eac       $pdata$__vcrt_FlsFree      0000000180040eac     libvcruntime:winapi_downlevel.obj
 0004:00000eb8       $pdata$__vcrt_FlsGetValue  0000000180040eb8     libvcruntime:winapi_downlevel.obj
 0004:00000ec4       $pdata$__vcrt_FlsSetValue  0000000180040ec4     libvcruntime:winapi_downlevel.obj
 0004:00000ed0       $pdata$__vcrt_InitializeCriticalSectionEx 0000000180040ed0     libvcruntime:winapi_downlevel.obj
 0004:00000edc       $pdata$__vcrt_uninitialize_winapi_thunks 0000000180040edc     libvcruntime:winapi_downlevel.obj
 0004:00000ee8       $pdata$__vcrt_initialize   0000000180040ee8     libvcruntime:initialization.obj
 0004:00000ef4       $pdata$__vcrt_thread_attach 0000000180040ef4     libvcruntime:initialization.obj
 0004:00000f00       $pdata$__vcrt_thread_detach 0000000180040f00     libvcruntime:initialization.obj
 0004:00000f0c       $pdata$__vcrt_uninitialize 0000000180040f0c     libvcruntime:initialization.obj
 0004:00000f18       $pdata$__vcrt_uninitialize_critical 0000000180040f18     libvcruntime:initialization.obj
 0004:00000f24       $pdata$__C_specific_handler 0000000180040f24     libvcruntime:_chandler_.obj
 0004:00000f30       $pdata$__std_type_info_destroy_list 0000000180040f30     libvcruntime:std_type_info.obj
 0004:00000f3c       $pdata$__vcrt_freefls      0000000180040f3c     libvcruntime:per_thread_data.obj
 0004:00000f48       $pdata$__vcrt_freeptd      0000000180040f48     libvcruntime:per_thread_data.obj
 0004:00000f54       $pdata$__vcrt_getptd       0000000180040f54     libvcruntime:per_thread_data.obj
 0004:00000f60       $pdata$__vcrt_getptd_noexit 0000000180040f60     libvcruntime:per_thread_data.obj
 0004:00000f6c       $pdata$__vcrt_initialize_ptd 0000000180040f6c     libvcruntime:per_thread_data.obj
 0004:00000f78       $pdata$__vcrt_uninitialize_ptd 0000000180040f78     libvcruntime:per_thread_data.obj
 0004:00000f84       $pdata$?__GetCurrentState@@YAHPEA_KPEAU_xDISPATCHER_CONTEXT@@PEBU_s_FuncInfo@@@Z 0000000180040f84     libvcruntime:ehstate.obj
 0004:00000f90       $pdata$?__GetUnwindTryBlock@@YAHPEA_KPEAU_xDISPATCHER_CONTEXT@@PEBU_s_FuncInfo@@@Z 0000000180040f90     libvcruntime:ehstate.obj
 0004:00000f9c       $pdata$?__SetUnwindTryBlock@@YAXPEA_KPEAU_xDISPATCHER_CONTEXT@@PEBU_s_FuncInfo@@H@Z 0000000180040f9c     libvcruntime:ehstate.obj
 0004:00000fa8       $pdata$?__StateFromIp@@YAHPEBU_s_FuncInfo@@PEAU_xDISPATCHER_CONTEXT@@_J@Z 0000000180040fa8     libvcruntime:ehstate.obj
 0004:00000ff0       $pdata$__vcrt_initialize_locks 0000000180040ff0     libvcruntime:locks.obj
 0004:00000ffc       $pdata$__vcrt_uninitialize_locks 0000000180040ffc     libvcruntime:locks.obj
 0004:00001008       $pdata$__acrt_call_reportfault 0000000180041008     libucrt:invalid_parameter.obj
 0004:00001014       $pdata$_invalid_parameter  0000000180041014     libucrt:invalid_parameter.obj
 0004:00001020       $pdata$_invalid_parameter_noinfo 0000000180041020     libucrt:invalid_parameter.obj
 0004:0000102c       $pdata$_invalid_parameter_noinfo_noreturn 000000018004102c     libucrt:invalid_parameter.obj
 0004:00001038       $pdata$_invoke_watson      0000000180041038     libucrt:invalid_parameter.obj
 0004:00001044       $pdata$abort               0000000180041044     libucrt:abort.obj
 0004:00001050       $pdata$strcspn             0000000180041050     libucrt:strcspn.obj
 0004:0000105c       $pdata$??$common_vsprintf@Vformat_validation_base@__crt_stdio_output@@D@@YAH_KQEAD0QEBDQEAU__crt_locale_pointers@@1@Z 000000018004105c     libucrt:output.obj
 0004:00001068       $pdata$??$ensure_buffer_is_big_enough@D@formatting_buffer@__crt_stdio_output@@QEAA_N_K@Z 0000000180041068     libucrt:output.obj
 0004:00001074       $pdata$??$type_case_integer_parse_into_buffer@I@?$output_processor@DV?$string_output_adapter@D@__crt_stdio_output@@V?$format_validation_base@DV?$string_output_adapter@D@__crt_stdio_output@@@2@@__crt_stdio_output@@AEAAXII_N@Z 0000000180041074     libucrt:output.obj
 0004:00001080       $pdata$??$type_case_integer_parse_into_buffer@_K@?$output_processor@DV?$string_output_adapter@D@__crt_stdio_output@@V?$format_validation_base@DV?$string_output_adapter@D@__crt_stdio_output@@@2@@__crt_stdio_output@@AEAAX_KI_N@Z 0000000180041080     libucrt:output.obj
 0004:0000108c       $pdata$??$write_multiple_characters@V?$string_output_adapter@D@__crt_stdio_output@@D@__crt_stdio_output@@YAXAEBV?$string_output_adapter@D@0@DHQEAH@Z 000000018004108c     libucrt:output.obj
 0004:00001098       $pdata$??0?$output_processor@DV?$string_output_adapter@D@__crt_stdio_output@@V?$format_validation_base@DV?$string_output_adapter@D@__crt_stdio_output@@@2@@__crt_stdio_output@@QEAA@AEBV?$string_output_adapter@D@1@_KQEBDQEAU__crt_locale_pointers@@QEAD@Z 0000000180041098     libucrt:output.obj
 0004:000010a4       $pdata$??0_LocaleUpdate@@QEAA@QEAU__crt_locale_pointers@@@Z 00000001800410a4     libucrt:output.obj
 0004:000010b0       $pdata$?force_decimal_point@__crt_stdio_output@@YAXPEADQEAU__crt_locale_pointers@@@Z 00000001800410b0     libucrt:output.obj
 0004:000010bc       $pdata$?parse_int_from_format_string@?$output_processor@DV?$string_output_adapter@D@__crt_stdio_output@@V?$format_validation_base@DV?$string_output_adapter@D@__crt_stdio_output@@@2@@__crt_stdio_output@@AEAA_NQEAH@Z 00000001800410bc     libucrt:output.obj
 0004:000010c8       $pdata$?process@?$output_processor@DV?$string_output_adapter@D@__crt_stdio_output@@V?$format_validation_base@DV?$string_output_adapter@D@__crt_stdio_output@@@2@@__crt_stdio_output@@QEAAHXZ 00000001800410c8     libucrt:output.obj
 0004:000010d4       $pdata$?state_case_normal@?$output_processor@DV?$string_output_adapter@D@__crt_stdio_output@@V?$format_validation_base@DV?$string_output_adapter@D@__crt_stdio_output@@@2@@__crt_stdio_output@@AEAA_NXZ 00000001800410d4     libucrt:output.obj
 0004:000010e0       $pdata$?state_case_normal_tchar@?$output_processor@DV?$string_output_adapter@D@__crt_stdio_output@@V?$format_validation_base@DV?$string_output_adapter@D@__crt_stdio_output@@@2@@__crt_stdio_output@@AEAA_ND@Z 00000001800410e0     libucrt:output.obj
 0004:000010ec       $pdata$?state_case_size@?$output_processor@DV?$string_output_adapter@D@__crt_stdio_output@@V?$format_validation_base@DV?$string_output_adapter@D@__crt_stdio_output@@@2@@__crt_stdio_output@@AEAA_NXZ 00000001800410ec     libucrt:output.obj
 0004:000010f8       $pdata$?state_case_type@?$output_processor@DV?$string_output_adapter@D@__crt_stdio_output@@V?$format_validation_base@DV?$string_output_adapter@D@__crt_stdio_output@@@2@@__crt_stdio_output@@AEAA_NXZ 00000001800410f8     libucrt:output.obj
 0004:00001104       $pdata$?type_case_Z@?$output_processor@DV?$string_output_adapter@D@__crt_stdio_output@@V?$format_validation_base@DV?$string_output_adapter@D@__crt_stdio_output@@@2@@__crt_stdio_output@@AEAA_NXZ 0000000180041104     libucrt:output.obj
 0004:00001110       $pdata$?type_case_a@?$output_processor@DV?$string_output_adapter@D@__crt_stdio_output@@V?$format_validation_base@DV?$string_output_adapter@D@__crt_stdio_output@@@2@@__crt_stdio_output@@AEAA_NXZ 0000000180041110     libucrt:output.obj
 0004:0000111c       $pdata$?type_case_c_tchar@?$output_processor@DV?$string_output_adapter@D@__crt_stdio_output@@V?$format_validation_base@DV?$string_output_adapter@D@__crt_stdio_output@@@2@@__crt_stdio_output@@AEAA_ND@Z 000000018004111c     libucrt:output.obj
 0004:00001128       $pdata$?type_case_integer@?$output_processor@DV?$string_output_adapter@D@__crt_stdio_output@@V?$format_validation_base@DV?$string_output_adapter@D@__crt_stdio_output@@@2@@__crt_stdio_output@@AEAA_NI_N@Z 0000000180041128     libucrt:output.obj
 0004:00001134       $pdata$?type_case_n@?$output_processor@DV?$string_output_adapter@D@__crt_stdio_output@@V?$format_validation_base@DV?$string_output_adapter@D@__crt_stdio_output@@@2@@__crt_stdio_output@@AEAA_NXZ 0000000180041134     libucrt:output.obj
 0004:00001140       $pdata$?type_case_s@?$output_processor@DV?$string_output_adapter@D@__crt_stdio_output@@V?$format_validation_base@DV?$string_output_adapter@D@__crt_stdio_output@@@2@@__crt_stdio_output@@AEAA_NXZ 0000000180041140     libucrt:output.obj
 0004:0000114c       $pdata$?write_stored_string_tchar@?$output_processor@DV?$string_output_adapter@D@__crt_stdio_output@@V?$format_validation_base@DV?$string_output_adapter@D@__crt_stdio_output@@@2@@__crt_stdio_output@@AEAA_ND@Z 000000018004114c     libucrt:output.obj
 0004:00001158       $pdata$?write_string@?$string_output_adapter@D@__crt_stdio_output@@QEBAXQEBDHQEAH1@Z 0000000180041158     libucrt:output.obj
 0004:00001164       $pdata$__stdio_common_vsprintf_s 0000000180041164     libucrt:output.obj
 0004:00001170       $pdata$localeconv          0000000180041170     libucrt:localeconv.obj
 0004:0000117c       $pdata$frexp               000000018004117c     libucrt:frexp.obj
 0004:00001188       $pdata$_stricmp            0000000180041188     libucrt:stricmp.obj
 0004:00001194       $pdata$_stricmp_l          0000000180041194     libucrt:stricmp.obj
 0004:000011a0       $pdata$__acrt_initialize_locks 00000001800411a0     libucrt:locks.obj
 0004:000011ac       $pdata$__acrt_uninitialize_locks 00000001800411ac     libucrt:locks.obj
 0004:000011b8       $pdata$call_wsetlocale     00000001800411b8     libucrt:setlocale.obj
 0004:000011c4       $pdata$setlocale           00000001800411c4     libucrt:setlocale.obj
 0004:000011d0       $pdata$_calloc_base        00000001800411d0     libucrt:calloc_base.obj
 0004:000011dc       $pdata$__pctype_func       00000001800411dc     libucrt:ctype.obj
 0004:000011e8       $pdata$isdigit             00000001800411e8     libucrt:_ctype.obj
 0004:000011f4       $pdata$islower             00000001800411f4     libucrt:_ctype.obj
 0004:00001200       $pdata$isupper             0000000180041200     libucrt:_ctype.obj
 0004:0000120c       $pdata$_wcsdup             000000018004120c     libucrt:wcsdup.obj
 0004:00001218       $pdata$___lc_codepage_func 0000000180041218     libucrt:initctype.obj
 0004:00001224       $pdata$___lc_locale_name_func 0000000180041224     libucrt:initctype.obj
 0004:00001230       $pdata$___mb_cur_max_func  0000000180041230     libucrt:initctype.obj
 0004:0000123c       $pdata$__acrt_locale_initialize_ctype 000000018004123c     libucrt:initctype.obj
 0004:00001248       $pdata$__acrt_errno_map_os_error 0000000180041248     libucrt:errno.obj
 0004:00001254       $pdata$__doserrno          0000000180041254     libucrt:errno.obj
 0004:00001260       $pdata$_errno              0000000180041260     libucrt:errno.obj
 0004:0000126c       $pdata$?x_ismbbtype_l@@YAHPEAU__crt_locale_pointers@@IHH@Z 000000018004126c     libucrt:ismbbyte.obj
 0004:00001278       $pdata$_malloc_base        0000000180041278     libucrt:malloc_base.obj
 0004:00001284       $pdata$_realloc_base       0000000180041284     libucrt:realloc_base.obj
 0004:00001290       $pdata$?divide@__crt_strtox@@YA_KAEAUbig_integer@1@AEBU21@@Z 0000000180041290     libucrt:strtod.obj
 0004:0000129c       $pdata$5$?divide@__crt_strtox@@YA_KAEAUbig_integer@1@AEBU21@@Z 000000018004129c     libucrt:strtod.obj
 0004:000012a8       $pdata$6$?divide@__crt_strtox@@YA_KAEAUbig_integer@1@AEBU21@@Z 00000001800412a8     libucrt:strtod.obj
 0004:000012b4       $pdata$memcpy_s            00000001800412b4     libucrt:strtod.obj
 0004:000012b4       $pdata$memcpy_s            00000001800412b4     libucrt:cfout.obj
 0004:000012d8       $pdata$_free_base          00000001800412d8     libucrt:free_base.obj
 0004:000012e4       $pdata$?internal_isupper_l@@YA_NHQEAU__crt_locale_pointers@@@Z 00000001800412e4     libucrt:tolower_toupper.obj
 0004:000012f0       $pdata$_tolower_l          00000001800412f0     libucrt:tolower_toupper.obj
 0004:000012fc       $pdata$tolower             00000001800412fc     libucrt:tolower_toupper.obj
 0004:00001308       $pdata$wcscpy_s            0000000180041308     libucrt:wcscpy_s.obj
 0004:00001314       $pdata$strnlen             0000000180041314     libucrt:strnlen.obj
 0004:00001320       $pdata$wcsnlen             0000000180041320     libucrt:strnlen.obj
 0004:0000132c       $pdata$_callnewh           000000018004132c     libucrt:new_handler.obj
 0004:00001338       $pdata$_query_new_handler  0000000180041338     libucrt:new_handler.obj
 0004:00001344       $pdata$_seh_filter_exe     0000000180041344     libucrt:exception_filter.obj
 0004:00001350       $pdata$?common_exit@@YAXHW4_crt_exit_cleanup_mode@@W4_crt_exit_return_mode@@@Z 0000000180041350     libucrt:exit.obj
 0004:0000135c       $pdata$?exit_or_terminate_process@@YAXI@Z 000000018004135c     libucrt:exit.obj
 0004:00001368       $pdata$?try_cor_exit_process@@YAXI@Z 0000000180041368     libucrt:exit.obj
 0004:00001374       $pdata$??$parse_command_line@D@@YAXPEADPEAPEAD0PEA_K2@Z 0000000180041374     libucrt:argv_parsing.obj
 0004:00001380       $pdata$__acrt_allocate_buffer_for_argv 0000000180041380     libucrt:argv_parsing.obj
 0004:0000138c       $pdata$_configure_narrow_argv 000000018004138c     libucrt:argv_parsing.obj
 0004:00001398       $pdata$??$common_initialize_environment_nolock@D@@YAHXZ 0000000180041398     libucrt:environment_initialization.obj
 0004:000013a4       $pdata$??$create_environment@D@@YAQEAPEADQEAD@Z 00000001800413a4     libucrt:environment_initialization.obj
 0004:000013b0       $pdata$??$free_environment@D@@YAXQEAPEAD@Z 00000001800413b0     libucrt:environment_initialization.obj
 0004:000013b0       $pdata$??$free_environment@_W@@YAXQEAPEA_W@Z 00000001800413b0     libucrt:environment_initialization.obj
 0004:000013bc       $pdata$??$uninitialize_environment_internal@D@@YAXAEAPEAPEAD@Z 00000001800413bc     libucrt:environment_initialization.obj
 0004:000013c8       $pdata$??$uninitialize_environment_internal@_W@@YAXAEAPEAPEA_W@Z 00000001800413c8     libucrt:environment_initialization.obj
 0004:000013d4       $pdata$__dcrt_uninitialize_environments_nolock 00000001800413d4     libucrt:environment_initialization.obj
 0004:000013e0       $pdata$??$?RV<lambda_b8c45f8f788dd370798f47cfe8ac3a86>@@AEAV<lambda_4e60a939b0d047cfe11ddc22648dfba9>@@V<lambda_332c3edc96d0294ec56c57d38c1cdfd5>@@@?$__crt_seh_guarded_call@H@@QEAAH$$QEAV<lambda_b8c45f8f788dd370798f47cfe8ac3a86>@@AEAV<lambda_4e60a939b0d047cfe11ddc22648dfba9>@@$$QEAV<lambda_332c3edc96d0294ec56c57d38c1cdfd5>@@@Z 00000001800413e0     libucrt:onexit.obj
 0004:000013ec       $pdata$??$?RV<lambda_e24bbb7b643b32fcea6fa61b31d4c984>@@AEAV<lambda_275893d493268fdec8709772e3fcec0e>@@V<lambda_9d71df4d7cf3f480f8d633942495c3b0>@@@?$__crt_seh_guarded_call@H@@QEAAH$$QEAV<lambda_e24bbb7b643b32fcea6fa61b31d4c984>@@AEAV<lambda_275893d493268fdec8709772e3fcec0e>@@$$QEAV<lambda_9d71df4d7cf3f480f8d633942495c3b0>@@@Z 00000001800413ec     libucrt:onexit.obj
 0004:000013f8       $pdata$??R<lambda_4e60a939b0d047cfe11ddc22648dfba9>@@QEBAHXZ 00000001800413f8     libucrt:onexit.obj
 0004:00001404       $pdata$_execute_onexit_table 0000000180041404     libucrt:onexit.obj
 0004:00001410       $pdata$_register_onexit_function 0000000180041410     libucrt:onexit.obj
 0004:0000141c       $pdata$initialize_c        000000018004141c     libucrt:initialization.obj
 0004:00001428       $pdata$uninitialize_environment 0000000180041428     libucrt:initialization.obj
 0004:00001434       $pdata$initialize_pointers 0000000180041434     libucrt:initialization.obj
 0004:00001440       $pdata$uninitialize_allocated_memory 0000000180041440     libucrt:initialization.obj
 0004:0000144c       $pdata$__acrt_thread_attach 000000018004144c     libucrt:initialization.obj
 0004:00001458       $pdata$__acrt_thread_detach 0000000180041458     libucrt:initialization.obj
 0004:00001464       $pdata$__acrt_uninitialize_critical 0000000180041464     libucrt:initialization.obj
 0004:00001470       $pdata$_initterm           0000000180041470     libucrt:initterm.obj
 0004:0000147c       $pdata$_initterm_e         000000018004147c     libucrt:initterm.obj
 0004:00001488       $pdata$terminate           0000000180041488     libucrt:terminate.obj
 0004:00001494       $pdata$strcpy_s            0000000180041494     libucrt:strcpy_s.obj
 0004:000014a0       $pdata$??$parse_integer@KV?$c_string_character_source@D@__crt_strtox@@@__crt_strtox@@YAKQEAU__crt_locale_pointers@@V?$c_string_character_source@D@0@H_N@Z 00000001800414a0     libucrt:atox.obj
 0004:000014ac       $pdata$??$parse_integer@KV?$c_string_character_source@_W@__crt_strtox@@@__crt_strtox@@YAKQEAU__crt_locale_pointers@@V?$c_string_character_source@_W@0@H_N@Z 00000001800414ac     libucrt:atox.obj
 0004:000014b8       $pdata$_wtol               00000001800414b8     libucrt:atox.obj
 0004:000014c4       $pdata$??$?RV<lambda_46352004c1216016012b18bd6f87e700>@@AEAV<lambda_3bd07e1a1191394380780325891bf33f>@@V<lambda_334532d3f185bcaa59b5be82d7d22bff>@@@?$__crt_seh_guarded_call@X@@QEAAX$$QEAV<lambda_46352004c1216016012b18bd6f87e700>@@AEAV<lambda_3bd07e1a1191394380780325891bf33f>@@$$QEAV<lambda_334532d3f185bcaa59b5be82d7d22bff>@@@Z 00000001800414c4     libucrt:per_thread_data.obj
 0004:000014d0       $pdata$??$?RV<lambda_5e887d1dcbef67a5eb4283622ba103bf>@@AEAV<lambda_4466841279450cc726390878d4a41900>@@V<lambda_341c25c0346d94847f1f3c463c57e077>@@@?$__crt_seh_guarded_call@X@@QEAAX$$QEAV<lambda_5e887d1dcbef67a5eb4283622ba103bf>@@AEAV<lambda_4466841279450cc726390878d4a41900>@@$$QEAV<lambda_341c25c0346d94847f1f3c463c57e077>@@@Z 00000001800414d0     libucrt:per_thread_data.obj
 0004:000014dc       $pdata$??$?RV<lambda_72d1df2b273a38828b1ce30cbf4cdab5>@@AEAV<lambda_876a65b173b8412d3a47c70a915b0cf4>@@V<lambda_41932305e351933ebe8f8be3ed8bb5dc>@@@?$__crt_seh_guarded_call@X@@QEAAX$$QEAV<lambda_72d1df2b273a38828b1ce30cbf4cdab5>@@AEAV<lambda_876a65b173b8412d3a47c70a915b0cf4>@@$$QEAV<lambda_41932305e351933ebe8f8be3ed8bb5dc>@@@Z 00000001800414dc     libucrt:per_thread_data.obj
 0004:000014e8       $pdata$??$?RV<lambda_fb3a7dec4e47f37f22dae91bb15c9095>@@AEAV<lambda_698284760c8add0bfb0756c19673e34b>@@V<lambda_dfb8eca1e75fef3034a8fb18dd509707>@@@?$__crt_seh_guarded_call@X@@QEAAX$$QEAV<lambda_fb3a7dec4e47f37f22dae91bb15c9095>@@AEAV<lambda_698284760c8add0bfb0756c19673e34b>@@$$QEAV<lambda_dfb8eca1e75fef3034a8fb18dd509707>@@@Z 00000001800414e8     libucrt:per_thread_data.obj
 0004:000014f4       $pdata$?construct_ptd_array@@YAXQEAU__acrt_ptd@@@Z 00000001800414f4     libucrt:per_thread_data.obj
 0004:00001500       $pdata$?destroy_fls@@YAXPEAX@Z 0000000180041500     libucrt:per_thread_data.obj
 0004:0000150c       $pdata$?destroy_ptd_array@@YAXQEAU__acrt_ptd@@@Z 000000018004150c     libucrt:per_thread_data.obj
 0004:00001518       $pdata$?replace_current_thread_locale_nolock@@YAXQEAU__acrt_ptd@@QEAU__crt_locale_data@@@Z 0000000180041518     libucrt:per_thread_data.obj
 0004:00001524       $pdata$__acrt_freeptd      0000000180041524     libucrt:per_thread_data.obj
 0004:00001530       $pdata$__acrt_getptd       0000000180041530     libucrt:per_thread_data.obj
 0004:0000153c       $pdata$__acrt_getptd_noexit 000000018004153c     libucrt:per_thread_data.obj
 0004:00001548       $pdata$__acrt_initialize_ptd 0000000180041548     libucrt:per_thread_data.obj
 0004:00001554       $pdata$__acrt_uninitialize_ptd 0000000180041554     libucrt:per_thread_data.obj
 0004:00001560       $pdata$??$?RV<lambda_c36588078e9f5dfd39652860aa6b3aaf>@@AEAV<lambda_ec61778202f4f5fc7e7711acc23c3bca>@@V<lambda_dc9d2797ccde5d239b4a0efae8ebd7db>@@@?$__crt_seh_guarded_call@P6AXH@Z@@QEAAP6AXH@Z$$QEAV<lambda_c36588078e9f5dfd39652860aa6b3aaf>@@AEAV<lambda_ec61778202f4f5fc7e7711acc23c3bca>@@$$QEAV<lambda_dc9d2797ccde5d239b4a0efae8ebd7db>@@@Z 0000000180041560     libucrt:signal.obj
 0004:0000156c       $pdata$__acrt_get_sigabrt_handler 000000018004156c     libucrt:signal.obj
 0004:00001578       $pdata$raise               0000000180041578     libucrt:signal.obj
 0004:00001584       $pdata$strtol              0000000180041584     libucrt:strtox.obj
 0004:00001590       $pdata$_mbtowc_l           0000000180041590     libucrt:mbtowc.obj
 0004:0000159c       $pdata$_wctomb_s_l         000000018004159c     libucrt:wctomb.obj
 0004:000015a8       $pdata$wctomb_s            00000001800415a8     libucrt:wctomb.obj
 0004:000015b4       $pdata$__acrt_update_locale_info 00000001800415b4     libucrt:locale_update.obj
 0004:000015c0       $pdata$__acrt_update_multibyte_info 00000001800415c0     libucrt:locale_update.obj
 0004:000015cc       $pdata$?fp_format_a@@YAHQEBNPEAD_KQEAD2H_NIQEAU__crt_locale_pointers@@@Z 00000001800415cc     libucrt:cvt.obj
 0004:000015d8       $pdata$?fp_format_e@@YAHQEBNQEAD_K12H_NIQEAU__crt_locale_pointers@@@Z 00000001800415d8     libucrt:cvt.obj
 0004:000015e4       $pdata$?fp_format_e_internal@@YAHQEAD_KH_NIQEAU_strflt@@2QEAU__crt_locale_pointers@@@Z 00000001800415e4     libucrt:cvt.obj
 0004:000015f0       $pdata$?fp_format_f_internal@@YAHQEAD_KHQEAU_strflt@@_NQEAU__crt_locale_pointers@@@Z 00000001800415f0     libucrt:cvt.obj
 0004:000015fc       $pdata$?fp_format_g@@YAHQEBNQEAD_K12H_NIQEAU__crt_locale_pointers@@@Z 00000001800415fc     libucrt:cvt.obj
 0004:00001608       $pdata$?fp_format_nan_or_infinity@@YAHW4__acrt_fp_class@@_NPEAD_K1@Z 0000000180041608     libucrt:cvt.obj
 0004:00001614       $pdata$__acrt_fp_format    0000000180041614     libucrt:cvt.obj
 0004:00001620       $pdata$_fileno             0000000180041620     libucrt:fileno.obj
 0004:0000162c       $pdata$__acrt_initialize_stdio 000000018004162c     libucrt:_file.obj
 0004:00001638       $pdata$__acrt_uninitialize_stdio 0000000180041638     libucrt:_file.obj
 0004:00001644       $pdata$??$?RV<lambda_5df02c53a8f32f81fd64e5bbb78039f1>@@AEAV<lambda_2af78c5f5901b1372d98f9ab3177dfa6>@@AEAV<lambda_f51fe5fd7c79a33db34fc9310f277369>@@@?$__crt_seh_guarded_call@X@@QEAAX$$QEAV<lambda_5df02c53a8f32f81fd64e5bbb78039f1>@@AEAV<lambda_2af78c5f5901b1372d98f9ab3177dfa6>@@AEAV<lambda_f51fe5fd7c79a33db34fc9310f277369>@@@Z 0000000180041644     libucrt:wsetlocale.obj
 0004:00001650       $pdata$??$?RV<lambda_d67e8342c384adda8f857579ab50b2ae>@@AEAV<lambda_30712929f77e709619002f448b6a9510>@@V<lambda_4525336fd7e478d965fb7ca7a337cad8>@@@?$__crt_seh_guarded_call@X@@QEAAX$$QEAV<lambda_d67e8342c384adda8f857579ab50b2ae>@@AEAV<lambda_30712929f77e709619002f448b6a9510>@@$$QEAV<lambda_4525336fd7e478d965fb7ca7a337cad8>@@@Z 0000000180041650     libucrt:wsetlocale.obj
 0004:0000165c       $pdata$??R<lambda_2af78c5f5901b1372d98f9ab3177dfa6>@@QEBAXXZ 000000018004165c     libucrt:wsetlocale.obj
 0004:00001668       $pdata$__acrt_copy_locale_name 0000000180041668     libucrt:wsetlocale.obj
 0004:00001674       $pdata$__acrt_uninitialize_locale 0000000180041674     libucrt:wsetlocale.obj
 0004:00001680       $pdata$__lc_lctowcs        0000000180041680     libucrt:wsetlocale.obj
 0004:0000168c       $pdata$__lc_wcstolc        000000018004168c     libucrt:wsetlocale.obj
 0004:00001698       $pdata$_copytlocinfo_nolock 0000000180041698     libucrt:wsetlocale.obj
 0004:000016a4       $pdata$_expandlocale       00000001800416a4     libucrt:wsetlocale.obj
 0004:000016b0       $pdata$_wcscats            00000001800416b0     libucrt:wsetlocale.obj
 0004:000016bc       $pdata$_wsetlocale         00000001800416bc     libucrt:wsetlocale.obj
 0004:000016c8       $pdata$_wsetlocale_get_all 00000001800416c8     libucrt:wsetlocale.obj
 0004:000016d4       $pdata$_wsetlocale_nolock  00000001800416d4     libucrt:wsetlocale.obj
 0004:000016e0       $pdata$_wsetlocale_set_cat 00000001800416e0     libucrt:wsetlocale.obj
 0004:000016ec       $pdata$?initialize_inherited_file_handles_nolock@@YAXXZ 00000001800416ec     libucrt:ioinit.obj
 0004:000016f8       $pdata$?initialize_stdio_handles_nolock@@YAXXZ 00000001800416f8     libucrt:ioinit.obj
 0004:00001704       $pdata$__acrt_initialize_lowio 0000000180041704     libucrt:ioinit.obj
 0004:00001710       $pdata$__acrt_uninitialize_lowio 0000000180041710     libucrt:ioinit.obj
 0004:0000171c       $pdata$_except1            000000018004171c     libucrt:fpexcept.obj
 0004:00001728       $pdata$_handle_exc         0000000180041728     libucrt:fpexcept.obj
 0004:00001734       $pdata$_raise_exc          0000000180041734     libucrt:fpexcept.obj
 0004:00001740       $pdata$_raise_exc_ex       0000000180041740     libucrt:fpexcept.obj
 0004:0000174c       $pdata$_raise_excf         000000018004174c     libucrt:fpexcept.obj
 0004:00001758       $pdata$_set_errno_from_matherr 0000000180041758     libucrt:fpexcept.obj
 0004:00001764       $pdata$_umatherr           0000000180041764     libucrt:fpexcept.obj
 0004:00001770       $pdata$_clrfp              0000000180041770     libucrt:fpctrl.obj
 0004:0000177c       $pdata$_ctrlfp             000000018004177c     libucrt:fpctrl.obj
 0004:00001788       $pdata$_set_statfp         0000000180041788     libucrt:fpctrl.obj
 0004:00001794       $pdata$_statfp             0000000180041794     libucrt:fpctrl.obj
 0004:000017a0       $pdata$?<helper_func_cdecl>@<lambda_e2bb8337c48846e80c921ea5ddadc92d>@@CAHPEA_W@Z 00000001800417a0     libucrt:winapi_thunks.obj
 0004:000017ac       $pdata$??$?RV<lambda_630b2aca97f6d20d5b5ea6529ea6b6af>@@AEAV<lambda_af91936f1d075d609f72d9d8cba980af>@@V<lambda_e82fa975f615b5c7c7b0e4d178fdae67>@@@?$__crt_seh_guarded_call@H@@QEAAH$$QEAV<lambda_630b2aca97f6d20d5b5ea6529ea6b6af>@@AEAV<lambda_af91936f1d075d609f72d9d8cba980af>@@$$QEAV<lambda_e82fa975f615b5c7c7b0e4d178fdae67>@@@Z 00000001800417ac     libucrt:winapi_thunks.obj
 0004:000017b8       $pdata$?try_get_function@@YAPEAXW4function_id@?A0x63058377@@QEBDQEBW4module_id@2@2@Z 00000001800417b8     libucrt:winapi_thunks.obj
 0004:000017c4       $pdata$__acrt_EnumSystemLocalesEx 00000001800417c4     libucrt:winapi_thunks.obj
 0004:000017d0       $pdata$__acrt_FlsAlloc     00000001800417d0     libucrt:winapi_thunks.obj
 0004:000017dc       $pdata$__acrt_FlsFree      00000001800417dc     libucrt:winapi_thunks.obj
 0004:000017e8       $pdata$__acrt_FlsGetValue  00000001800417e8     libucrt:winapi_thunks.obj
 0004:000017f4       $pdata$__acrt_FlsSetValue  00000001800417f4     libucrt:winapi_thunks.obj
 0004:00001800       $pdata$__acrt_GetLocaleInfoEx 0000000180041800     libucrt:winapi_thunks.obj
 0004:0000180c       $pdata$__acrt_GetUserDefaultLocaleName 000000018004180c     libucrt:winapi_thunks.obj
 0004:00001818       $pdata$__acrt_InitializeCriticalSectionEx 0000000180041818     libucrt:winapi_thunks.obj
 0004:00001824       $pdata$__acrt_IsValidLocaleName 0000000180041824     libucrt:winapi_thunks.obj
 0004:00001830       $pdata$__acrt_LCIDToLocaleName 0000000180041830     libucrt:winapi_thunks.obj
 0004:0000183c       $pdata$__acrt_LCMapStringEx 000000018004183c     libucrt:winapi_thunks.obj
 0004:00001848       $pdata$__acrt_LocaleNameToLCID 0000000180041848     libucrt:winapi_thunks.obj
 0004:00001854       $pdata$__acrt_can_use_vista_locale_apis 0000000180041854     libucrt:winapi_thunks.obj
 0004:00001860       $pdata$__acrt_initialize_winapi_thunks 0000000180041860     libucrt:winapi_thunks.obj
 0004:0000186c       $pdata$__acrt_is_packaged_app 000000018004186c     libucrt:winapi_thunks.obj
 0004:00001878       $pdata$__acrt_uninitialize_winapi_thunks 0000000180041878     libucrt:winapi_thunks.obj
 0004:00001884       $pdata$?_mbstowcs_l_helper@@YA_KPEA_WPEBD_KPEAU__crt_locale_pointers@@@Z 0000000180041884     libucrt:mbstowcs.obj
 0004:00001890       $pdata$_mbstowcs_s_l       0000000180041890     libucrt:mbstowcs.obj
 0004:0000189c       $pdata$mbstowcs_s          000000018004189c     libucrt:mbstowcs.obj
 0004:000018a8       $pdata$?_wcstombs_l_helper@@YA_KPEADPEB_W_KPEAU__crt_locale_pointers@@@Z 00000001800418a8     libucrt:wcstombs.obj
 0004:000018b4       $pdata$_wcstombs_s_l       00000001800418b4     libucrt:wcstombs.obj
 0004:000018c0       $pdata$__acrt_initialize_heap 00000001800418c0     libucrt:heap_handle.obj
 0004:000018cc       $pdata$_isctype_l          00000001800418cc     libucrt:isctype.obj
 0004:000018d8       $pdata$?InternalGetLocaleInfoA@@YAHQEAU__crt_locale_pointers@@QEB_WKQEADH@Z 00000001800418d8     libucrt:getlocaleinfoa.obj
 0004:000018e4       $pdata$__acrt_GetLocaleInfoA 00000001800418e4     libucrt:getlocaleinfoa.obj
 0004:000018f0       $pdata$__acrt_GetStringTypeA 00000001800418f0     libucrt:getstringtypea.obj
 0004:000018fc       $pdata$?__acrt_LCMapStringA_stat@@YAHPEAU__crt_locale_pointers@@PEB_WKPEBDHPEADHHH@Z 00000001800418fc     libucrt:lcmapstringa.obj
 0004:00001908       $pdata$__acrt_LCMapStringA 0000000180041908     libucrt:lcmapstringa.obj
 0004:00001914       $pdata$iswctype            0000000180041914     libucrt:iswctype.obj
 0004:00001920       $pdata$__acrt_initialize_fma3 0000000180041920     libucrt:fma3_available.obj
 0004:0000192c       $pdata$_pow_special        000000018004192c     libucrt:pow_special.obj
 0004:00001938       $pdata$_powf_special       0000000180041938     libucrt:pow_special.obj
 0004:00001944       $pdata$_wcsicmp            0000000180041944     libucrt:wcsicmp.obj
 0004:00001950       $pdata$_wcsicmp_l          0000000180041950     libucrt:wcsicmp.obj
 0004:0000195c       $pdata$_isleadbyte_l       000000018004195c     libucrt:_wctype.obj
 0004:00001968       $pdata$??$common_expand_argv_wildcards@D@@YAHQEAPEADQEAPEAPEAD@Z 0000000180041968     libucrt:argv_wildcards.obj
 0004:00001974       $pdata$??$copy_and_add_argument_to_buffer@D@@YAHQEBD0_KAEAV?$argument_list@D@?A0xca0879c4@@@Z 0000000180041974     libucrt:argv_wildcards.obj
 0004:00001980       $pdata$??$expand_argument_wildcards@D@@YAHQEAD0AEAV?$argument_list@D@?A0xca0879c4@@@Z 0000000180041980     libucrt:argv_wildcards.obj
 0004:0000198c       $pdata$?expand_if_necessary@?$argument_list@D@?A0xca0879c4@@AEAAHXZ 000000018004198c     libucrt:argv_wildcards.obj
 0004:00001998       $pdata$??$?RV<lambda_99476a1ad63dd22509b5d3e65b0ffc95>@@AEAV<lambda_ad1ced32f4ac17aa236e5ef05d6b3b7c>@@V<lambda_f7424dd8d45958661754dc4f2697e9c3>@@@?$__crt_seh_guarded_call@X@@QEAAX$$QEAV<lambda_99476a1ad63dd22509b5d3e65b0ffc95>@@AEAV<lambda_ad1ced32f4ac17aa236e5ef05d6b3b7c>@@$$QEAV<lambda_f7424dd8d45958661754dc4f2697e9c3>@@@Z 0000000180041998     libucrt:mbctype.obj
 0004:000019a4       $pdata$??R<lambda_ad1ced32f4ac17aa236e5ef05d6b3b7c>@@QEBAXXZ 00000001800419a4     libucrt:mbctype.obj
 0004:000019b0       $pdata$?getSystemCP@@YAHH@Z 00000001800419b0     libucrt:mbctype.obj
 0004:000019bc       $pdata$?setSBCS@@YAXPEAU__crt_multibyte_data@@@Z 00000001800419bc     libucrt:mbctype.obj
 0004:000019c8       $pdata$?setSBUpLow@@YAXPEAU__crt_multibyte_data@@@Z 00000001800419c8     libucrt:mbctype.obj
 0004:000019d4       $pdata$?setmbcp_internal@@YAHH_N@Z 00000001800419d4     libucrt:mbctype.obj
 0004:000019e0       $pdata$__acrt_initialize_multibyte 00000001800419e0     libucrt:mbctype.obj
 0004:000019ec       $pdata$__acrt_update_thread_multibyte_data 00000001800419ec     libucrt:mbctype.obj
 0004:000019f8       $pdata$_setmbcp_nolock     00000001800419f8     libucrt:mbctype.obj
 0004:00001a04       $pdata$__acrt_initialize_command_line 0000000180041a04     libucrt:argv_data.obj
 0004:00001a10       $pdata$__dcrt_get_narrow_environment_from_os 0000000180041a10     libucrt:get_environment_from_os.obj
 0004:00001a1c       $pdata$_recalloc_base      0000000180041a1c     libucrt:recalloc.obj
 0004:00001a28       $pdata$__acrt_execute_initializers 0000000180041a28     libucrt:shared_initialization.obj
 0004:00001a34       $pdata$__acrt_execute_uninitializers 0000000180041a34     libucrt:shared_initialization.obj
 0004:00001a40       $pdata$__acrt_invoke_user_matherr 0000000180041a40     libucrt:matherr.obj
 0004:00001a4c       $pdata$__acrt_free_locale  0000000180041a4c     libucrt:locale_refcounting.obj
 0004:00001a58       $pdata$__acrt_locale_free_lc_time_if_unreferenced 0000000180041a58     libucrt:locale_refcounting.obj
 0004:00001a64       $pdata$__acrt_release_locale_ref 0000000180041a64     libucrt:locale_refcounting.obj
 0004:00001a70       $pdata$__acrt_update_thread_locale_data 0000000180041a70     libucrt:locale_refcounting.obj
 0004:00001a7c       $pdata$_updatetlocinfoEx_nolock 0000000180041a7c     libucrt:locale_refcounting.obj
 0004:00001a88       $pdata$__acrt_fp_strflt_to_string 0000000180041a88     libucrt:_fptostr.obj
 0004:00001a94       $pdata$__acrt_fltout       0000000180041a94     libucrt:cfout.obj
 0004:00001aa0       $pdata$_fcloseall          0000000180041aa0     libucrt:closeall.obj
 0004:00001aac       $pdata$__acrt_stdio_flush_nolock 0000000180041aac     libucrt:fflush.obj
 0004:00001ab8       $pdata$_fflush_nolock      0000000180041ab8     libucrt:fflush.obj
 0004:00001ac4       $pdata$common_flush_all    0000000180041ac4     libucrt:fflush.obj
 0004:00001ad0       $pdata$__acrt_stdio_free_buffer_nolock 0000000180041ad0     libucrt:_freebuf.obj
 0004:00001adc       $pdata$_isatty             0000000180041adc     libucrt:isatty.obj
 0004:00001ae8       $pdata$__acrt_locale_free_monetary 0000000180041ae8     libucrt:initmon.obj
 0004:00001af4       $pdata$__acrt_locale_initialize_monetary 0000000180041af4     libucrt:initmon.obj
 0004:00001b00       $pdata$__acrt_locale_free_numeric 0000000180041b00     libucrt:initnum.obj
 0004:00001b0c       $pdata$__acrt_locale_initialize_numeric 0000000180041b0c     libucrt:initnum.obj
 0004:00001b18       $pdata$?free_crt_array_internal@@YAXQEAPEBX_K@Z 0000000180041b18     libucrt:inittime.obj
 0004:00001b24       $pdata$?initialize_lc_time@@YA_NQEAU__crt_lc_time_data@@QEAU__crt_locale_data@@@Z 0000000180041b24     libucrt:inittime.obj
 0004:00001b30       $pdata$__acrt_locale_free_time 0000000180041b30     libucrt:inittime.obj
 0004:00001b3c       $pdata$__acrt_locale_initialize_time 0000000180041b3c     libucrt:inittime.obj
 0004:00001b48       $pdata$wcscat_s            0000000180041b48     libucrt:wcscat_s.obj
 0004:00001b54       $pdata$wcsncpy_s           0000000180041b54     libucrt:wcsncpy_s.obj
 0004:00001b60       $pdata$GetLocaleNameFromDefault 0000000180041b60     libucrt:get_qualified_locale.obj
 0004:00001b6c       $pdata$GetLocaleNameFromLangCountry 0000000180041b6c     libucrt:get_qualified_locale.obj
 0004:00001b78       $pdata$GetLocaleNameFromLanguage 0000000180041b78     libucrt:get_qualified_locale.obj
 0004:00001b84       $pdata$LangCountryEnumProcEx 0000000180041b84     libucrt:get_qualified_locale.obj
 0004:00001b90       $pdata$LanguageEnumProcEx  0000000180041b90     libucrt:get_qualified_locale.obj
 0004:00001b9c       $pdata$ProcessCodePage     0000000180041b9c     libucrt:get_qualified_locale.obj
 0004:00001ba8       $pdata$TestDefaultCountry  0000000180041ba8     libucrt:get_qualified_locale.obj
 0004:00001bb4       $pdata$TranslateName       0000000180041bb4     libucrt:get_qualified_locale.obj
 0004:00001bc0       $pdata$__acrt_get_qualified_locale 0000000180041bc0     libucrt:get_qualified_locale.obj
 0004:00001bcc       $pdata$CountryEnumProc     0000000180041bcc     libucrt:getqloc_downlevel.obj
 0004:00001bd8       $pdata$GetLcidFromLangCountry 0000000180041bd8     libucrt:getqloc_downlevel.obj
 0004:00001be4       $pdata$GetLcidFromLanguage 0000000180041be4     libucrt:getqloc_downlevel.obj
 0004:00001bf0       $pdata$LangCountryEnumProc 0000000180041bf0     libucrt:getqloc_downlevel.obj
 0004:00001bfc       $pdata$LanguageEnumProc    0000000180041bfc     libucrt:getqloc_downlevel.obj
 0004:00001c08       $pdata$ProcessCodePage     0000000180041c08     libucrt:getqloc_downlevel.obj
 0004:00001c14       $pdata$TestDefaultLanguage 0000000180041c14     libucrt:getqloc_downlevel.obj
 0004:00001c20       $pdata$TranslateName       0000000180041c20     libucrt:getqloc_downlevel.obj
 0004:00001c2c       $pdata$__acrt_get_qualified_locale_downlevel 0000000180041c2c     libucrt:getqloc_downlevel.obj
 0004:00001c38       $pdata$__acrt_lowio_create_handle_array 0000000180041c38     libucrt:osfinfo.obj
 0004:00001c44       $pdata$__acrt_lowio_destroy_handle_array 0000000180041c44     libucrt:osfinfo.obj
 0004:00001c50       $pdata$__acrt_lowio_ensure_fh_exists 0000000180041c50     libucrt:osfinfo.obj
 0004:00001c5c       $pdata$_free_osfhnd        0000000180041c5c     libucrt:osfinfo.obj
 0004:00001c68       $pdata$_get_osfhandle      0000000180041c68     libucrt:osfinfo.obj
 0004:00001c80       $pdata$?GetTableIndexFromLocaleName@@YAHPEB_W@Z 0000000180041c80     libucrt:lcidtoname_downlevel.obj
 0004:00001c8c       $pdata$__acrt_DownlevelLCIDToLocaleName 0000000180041c8c     libucrt:lcidtoname_downlevel.obj
 0004:00001c98       $pdata$__acrt_DownlevelLocaleNameToLCID 0000000180041c98     libucrt:lcidtoname_downlevel.obj
 0004:00001ca4       $pdata$strncpy_s           0000000180041ca4     libucrt:strncpy_s.obj
 0004:00001cb0       $pdata$_getfpcontrolword   0000000180041cb0     libucrt:_fenvutils.obj
 0004:00001cbc       $pdata$_getfpstatusword    0000000180041cbc     libucrt:_fenvutils.obj
 0004:00001cc8       $pdata$_setfpstatusword    0000000180041cc8     libucrt:_fenvutils.obj
 0004:00001cd4       $pdata$_call_matherr       0000000180041cd4     libucrt:libm_error.obj
 0004:00001ce0       $pdata$_exception_enabled  0000000180041ce0     libucrt:libm_error.obj
 0004:00001cec       $pdata$_handle_error       0000000180041cec     libucrt:libm_error.obj
 0004:00001cf8       $pdata$_handle_errorf      0000000180041cf8     libucrt:libm_error.obj
 0004:00001d04       $pdata$_towlower_l         0000000180041d04     libucrt:towlower.obj
 0004:00001d10       $pdata$?shortsort@@YAXPEAD0_KP6AHPEBX2@Z@Z 0000000180041d10     libucrt:qsort.obj
 0004:00001d1c       $pdata$2$?shortsort@@YAXPEAD0_KP6AHPEBX2@Z@Z 0000000180041d1c     libucrt:qsort.obj
 0004:00001d28       $pdata$3$?shortsort@@YAXPEAD0_KP6AHPEBX2@Z@Z 0000000180041d28     libucrt:qsort.obj
 0004:00001d34       $pdata$qsort               0000000180041d34     libucrt:qsort.obj
 0004:00001d40       $pdata$4$qsort             0000000180041d40     libucrt:qsort.obj
 0004:00001d4c       $pdata$5$qsort             0000000180041d4c     libucrt:qsort.obj
 0004:00001d58       $pdata$strpbrk             0000000180041d58     libucrt:strpbrk.obj
 0004:00001d64       $pdata$_mbsdec_l           0000000180041d64     libucrt:mbsdec.obj
 0004:00001d70       $pdata$?initialize_multibyte@@YAHXZ 0000000180041d70     libucrt:multibyte_initializer.obj
 0004:00001d7c       $pdata$_msize              0000000180041d7c     libucrt:msize.obj
 0004:00001d88       $pdata$fegetenv            0000000180041d88     libucrt:fegetenv.obj
 0004:00001d94       $pdata$fesetenv            0000000180041d94     libucrt:fesetenv.obj
 0004:00001da0       $pdata$feholdexcept        0000000180041da0     libucrt:feholdexcept.obj
 0004:00001db8       $pdata$?write_double_translated_ansi_nolock@@YA?AUwrite_result@?A0x9c548279@@HQEBDI@Z 0000000180041db8     libucrt:write.obj
 0004:00001dc4       $pdata$?write_text_ansi_nolock@@YA?AUwrite_result@?A0x9c548279@@HQEBDI@Z 0000000180041dc4     libucrt:write.obj
 0004:00001dd0       $pdata$?write_text_utf16le_nolock@@YA?AUwrite_result@?A0x9c548279@@HQEBDI@Z 0000000180041dd0     libucrt:write.obj
 0004:00001ddc       $pdata$?write_text_utf8_nolock@@YA?AUwrite_result@?A0x9c548279@@HQEBDI@Z 0000000180041ddc     libucrt:write.obj
 0004:00001de8       $pdata$_write              0000000180041de8     libucrt:write.obj
 0004:00001df4       $pdata$_write_nolock       0000000180041df4     libucrt:write.obj
 0004:00001e00       $pdata$??$common_lseek_nolock@_J@@YA_JH_JH@Z 0000000180041e00     libucrt:lseek.obj
 0004:00001e0c       $pdata$_fclose_nolock      0000000180041e0c     libucrt:fclose.obj
 0004:00001e18       $pdata$fclose              0000000180041e18     libucrt:fclose.obj
 0004:00001e24       $pdata$??$?RV<lambda_b521505b218e5242e90febf6bfebc422>@@AEAV<lambda_6978c1fb23f02e42e1d9e99668cc68aa>@@V<lambda_314360699dd331753a4119843814e9a7>@@@?$__crt_seh_guarded_call@H@@QEAAH$$QEAV<lambda_b521505b218e5242e90febf6bfebc422>@@AEAV<lambda_6978c1fb23f02e42e1d9e99668cc68aa>@@$$QEAV<lambda_314360699dd331753a4119843814e9a7>@@@Z 0000000180041e24     libucrt:commit.obj
 0004:00001e30       $pdata$_commit             0000000180041e30     libucrt:commit.obj
 0004:00001e3c       $pdata$??$common_xtox@K_W@@YAHKQEA_W_KI_N@Z 0000000180041e3c     libucrt:xtoa.obj
 0004:00001e48       $pdata$??$common_xtox_s@K_W@@YAHKQEA_W_KI_N@Z 0000000180041e48     libucrt:xtoa.obj
 0004:00001e54       $pdata$_itow_s             0000000180041e54     libucrt:xtoa.obj
 0004:00001e60       $pdata$_wcsnicmp           0000000180041e60     libucrt:wcsnicmp.obj
 0004:00001e6c       $pdata$_wcsnicmp_l         0000000180041e6c     libucrt:wcsnicmp.obj
 0004:00001e78       $pdata$_clearfp            0000000180041e78     libucrt:ieee.obj
 0004:00001e84       $pdata$common_control87    0000000180041e84     libucrt:ieee.obj
 0004:00001e90       $pdata$__acrt_LCMapStringW 0000000180041e90     libucrt:lcmapstringw.obj
 0004:00001e9c       $pdata$_log10_special      0000000180041e9c     libucrt:log_special.obj
 0004:00001ea8       $pdata$_log_special_common 0000000180041ea8     libucrt:log_special.obj
 0004:00001eb4       $pdata$_putwch_nolock      0000000180041eb4     libucrt:putwch.obj
 0004:00001ec0       $pdata$??$?RV<lambda_bfedae4ebbf01fab1bb6dcc6a9e276e0>@@AEAV<lambda_2fe9b910cf3cbf4a0ab98a02ba45b3ec>@@V<lambda_237c231691f317818eb88cc1d5d642d6>@@@?$__crt_seh_guarded_call@H@@QEAAH$$QEAV<lambda_bfedae4ebbf01fab1bb6dcc6a9e276e0>@@AEAV<lambda_2fe9b910cf3cbf4a0ab98a02ba45b3ec>@@$$QEAV<lambda_237c231691f317818eb88cc1d5d642d6>@@@Z 0000000180041ec0     libucrt:close.obj
 0004:00001ecc       $pdata$_close              0000000180041ecc     libucrt:close.obj
 0004:00001ed8       $pdata$_close_nolock       0000000180041ed8     libucrt:close.obj
 0004:00001ee4       $pdata$__dcrt_lowio_initialize_console_output 0000000180041ee4     libucrt:initcon.obj
 0004:00001ef0       $pdata$__dcrt_terminate_console_output 0000000180041ef0     libucrt:initcon.obj
 0004:00001efc       $pdata$?DloadAcquireSectionWriteAccess@@YAXXZ 0000000180041efc     DelayImp:delayhlp.obj
 0004:00001f08       $pdata$?DloadGetSRWLockFunctionPointers@@YAEXZ 0000000180041f08     DelayImp:delayhlp.obj
 0004:00001f14       $pdata$?DloadMakePermanentImageCommit@@YAXPEAX_K@Z 0000000180041f14     DelayImp:delayhlp.obj
 0004:00001f20       $pdata$?DloadObtainSection@@YAPEAXPEAK0@Z 0000000180041f20     DelayImp:delayhlp.obj
 0004:00001f2c       $pdata$?DloadProtectSection@@YAXKPEAK@Z 0000000180041f2c     DelayImp:delayhlp.obj
 0004:00001f38       $pdata$?DloadReleaseSectionWriteAccess@@YAXXZ 0000000180041f38     DelayImp:delayhlp.obj
 0004:00001f44       $pdata$__delayLoadHelper2  0000000180041f44     DelayImp:delayhlp.obj
 0004:00001f50       $pdata$_IsNonwritableInCurrentImage 0000000180041f50     LIBCMT:pesect.obj
 0004:00001f5c       $pdata$strrchr             0000000180041f5c     libvcruntime:strrchr.obj
 0004:00001f68       $pdata$wcschr              0000000180041f68     libvcruntime:wcschr.obj
 0004:00001f80       $pdata$__scrt_is_nonwritable_in_current_image$filt$0 0000000180041f80     LIBCMT:utility.obj
 0004:00001f8c       $pdata$?fin$0@?0??dllmain_crt_process_attach@@YAHQEAUHINSTANCE__@@QEAX@Z@4HA 0000000180041f8c     LIBCMT:dll_dllmain.obj
 0004:00001f98       $pdata$?fin$0@?0??dllmain_crt_process_detach@@YAH_N@Z@4HA 0000000180041f98     LIBCMT:dll_dllmain.obj
 0004:00001fa4       $pdata$?filt$0@?0??dllmain_dispatch@@YAHQEAUHINSTANCE__@@KQEAX@Z@4HA 0000000180041fa4     LIBCMT:dll_dllmain.obj
 0004:00001fb0       $pdata$__CxxCallCatchBlock$filt$0 0000000180041fb0     libvcruntime:frame.obj
 0004:00001fbc       $pdata$__CxxCallCatchBlock$fin$1 0000000180041fbc     libvcruntime:frame.obj
 0004:00001fc8       $pdata$__DestructExceptionObject$filt$0 0000000180041fc8     libvcruntime:frame.obj
 0004:00001fd4       $pdata$__FrameUnwindToState$filt$0 0000000180041fd4     libvcruntime:frame.obj
 0004:00001fe0       $pdata$__FrameUnwindToState$fin$1 0000000180041fe0     libvcruntime:frame.obj
 0004:00001fec       $pdata$_CallSETranslator$filt$0 0000000180041fec     libvcruntime:trnsctrl.obj
 0004:00001ff8       $pdata$setlocale$fin$0     0000000180041ff8     libucrt:setlocale.obj
 0004:00002004       $pdata$_query_new_handler$fin$0 0000000180042004     libucrt:new_handler.obj
 0004:00002010       $pdata$?filt$0@?0??common_exit@@YAXHW4_crt_exit_cleanup_mode@@W4_crt_exit_return_mode@@@Z@4HA 0000000180042010     libucrt:exit.obj
 0004:0000201c       $pdata$?fin$1@?0??common_exit@@YAXHW4_crt_exit_cleanup_mode@@W4_crt_exit_return_mode@@@Z@4HA 000000018004201c     libucrt:exit.obj
 0004:00002028       $pdata$?fin$0@?0???$?RV<lambda_e24bbb7b643b32fcea6fa61b31d4c984>@@AEAV<lambda_275893d493268fdec8709772e3fcec0e>@@V<lambda_9d71df4d7cf3f480f8d633942495c3b0>@@@?$__crt_seh_guarded_call@H@@QEAAH$$QEAV<lambda_e24bbb7b643b32fcea6fa61b31d4c984>@@AEAV<lambda_275893d493268fdec8709772e3fcec0e>@@$$QEAV<lambda_9d71df4d7cf3f480f8d633942495c3b0>@@@Z@4HA 0000000180042028     libucrt:onexit.obj
 0004:00002034       $pdata$?fin$0@?0???$?RV<lambda_b8c45f8f788dd370798f47cfe8ac3a86>@@AEAV<lambda_4e60a939b0d047cfe11ddc22648dfba9>@@V<lambda_332c3edc96d0294ec56c57d38c1cdfd5>@@@?$__crt_seh_guarded_call@H@@QEAAH$$QEAV<lambda_b8c45f8f788dd370798f47cfe8ac3a86>@@AEAV<lambda_4e60a939b0d047cfe11ddc22648dfba9>@@$$QEAV<lambda_332c3edc96d0294ec56c57d38c1cdfd5>@@@Z@4HA 0000000180042034     libucrt:onexit.obj
 0004:00002034       $pdata$?fin$0@?0???$?RV<lambda_46352004c1216016012b18bd6f87e700>@@AEAV<lambda_3bd07e1a1191394380780325891bf33f>@@V<lambda_334532d3f185bcaa59b5be82d7d22bff>@@@?$__crt_seh_guarded_call@X@@QEAAX$$QEAV<lambda_46352004c1216016012b18bd6f87e700>@@AEAV<lambda_3bd07e1a1191394380780325891bf33f>@@$$QEAV<lambda_334532d3f185bcaa59b5be82d7d22bff>@@@Z@4HA 0000000180042034     libucrt:per_thread_data.obj
 0004:00002034       $pdata$?fin$0@?0???$?RV<lambda_72d1df2b273a38828b1ce30cbf4cdab5>@@AEAV<lambda_876a65b173b8412d3a47c70a915b0cf4>@@V<lambda_41932305e351933ebe8f8be3ed8bb5dc>@@@?$__crt_seh_guarded_call@X@@QEAAX$$QEAV<lambda_72d1df2b273a38828b1ce30cbf4cdab5>@@AEAV<lambda_876a65b173b8412d3a47c70a915b0cf4>@@$$QEAV<lambda_41932305e351933ebe8f8be3ed8bb5dc>@@@Z@4HA 0000000180042034     libucrt:per_thread_data.obj
 0004:00002034       $pdata$?fin$0@?0???$?RV<lambda_5e887d1dcbef67a5eb4283622ba103bf>@@AEAV<lambda_4466841279450cc726390878d4a41900>@@V<lambda_341c25c0346d94847f1f3c463c57e077>@@@?$__crt_seh_guarded_call@X@@QEAAX$$QEAV<lambda_5e887d1dcbef67a5eb4283622ba103bf>@@AEAV<lambda_4466841279450cc726390878d4a41900>@@$$QEAV<lambda_341c25c0346d94847f1f3c463c57e077>@@@Z@4HA 0000000180042034     libucrt:per_thread_data.obj
 0004:00002034       $pdata$?fin$0@?0???$?RV<lambda_99476a1ad63dd22509b5d3e65b0ffc95>@@AEAV<lambda_ad1ced32f4ac17aa236e5ef05d6b3b7c>@@V<lambda_f7424dd8d45958661754dc4f2697e9c3>@@@?$__crt_seh_guarded_call@X@@QEAAX$$QEAV<lambda_99476a1ad63dd22509b5d3e65b0ffc95>@@AEAV<lambda_ad1ced32f4ac17aa236e5ef05d6b3b7c>@@$$QEAV<lambda_f7424dd8d45958661754dc4f2697e9c3>@@@Z@4HA 0000000180042034     libucrt:mbctype.obj
 0004:00002034       $pdata$?fin$0@?0???$?RV<lambda_630b2aca97f6d20d5b5ea6529ea6b6af>@@AEAV<lambda_af91936f1d075d609f72d9d8cba980af>@@V<lambda_e82fa975f615b5c7c7b0e4d178fdae67>@@@?$__crt_seh_guarded_call@H@@QEAAH$$QEAV<lambda_630b2aca97f6d20d5b5ea6529ea6b6af>@@AEAV<lambda_af91936f1d075d609f72d9d8cba980af>@@$$QEAV<lambda_e82fa975f615b5c7c7b0e4d178fdae67>@@@Z@4HA 0000000180042034     libucrt:winapi_thunks.obj
 0004:00002034       $pdata$?fin$0@?0???$?RV<lambda_c36588078e9f5dfd39652860aa6b3aaf>@@AEAV<lambda_ec61778202f4f5fc7e7711acc23c3bca>@@V<lambda_dc9d2797ccde5d239b4a0efae8ebd7db>@@@?$__crt_seh_guarded_call@P6AXH@Z@@QEAAP6AXH@Z$$QEAV<lambda_c36588078e9f5dfd39652860aa6b3aaf>@@AEAV<lambda_ec61778202f4f5fc7e7711acc23c3bca>@@$$QEAV<lambda_dc9d2797ccde5d239b4a0efae8ebd7db>@@@Z@4HA 0000000180042034     libucrt:signal.obj
 0004:00002034       $pdata$?fin$0@?0???$?RV<lambda_d67e8342c384adda8f857579ab50b2ae>@@AEAV<lambda_30712929f77e709619002f448b6a9510>@@V<lambda_4525336fd7e478d965fb7ca7a337cad8>@@@?$__crt_seh_guarded_call@X@@QEAAX$$QEAV<lambda_d67e8342c384adda8f857579ab50b2ae>@@AEAV<lambda_30712929f77e709619002f448b6a9510>@@$$QEAV<lambda_4525336fd7e478d965fb7ca7a337cad8>@@@Z@4HA 0000000180042034     libucrt:wsetlocale.obj
 0004:00002034       $pdata$?fin$0@?0???$?RV<lambda_fb3a7dec4e47f37f22dae91bb15c9095>@@AEAV<lambda_698284760c8add0bfb0756c19673e34b>@@V<lambda_dfb8eca1e75fef3034a8fb18dd509707>@@@?$__crt_seh_guarded_call@X@@QEAAX$$QEAV<lambda_fb3a7dec4e47f37f22dae91bb15c9095>@@AEAV<lambda_698284760c8add0bfb0756c19673e34b>@@$$QEAV<lambda_dfb8eca1e75fef3034a8fb18dd509707>@@@Z@4HA 0000000180042034     libucrt:per_thread_data.obj
 0004:00002040       $pdata$raise$fin$0         0000000180042040     libucrt:signal.obj
 0004:0000204c       $pdata$?fin$0@?0???$?RV<lambda_5df02c53a8f32f81fd64e5bbb78039f1>@@AEAV<lambda_2af78c5f5901b1372d98f9ab3177dfa6>@@AEAV<lambda_f51fe5fd7c79a33db34fc9310f277369>@@@?$__crt_seh_guarded_call@X@@QEAAX$$QEAV<lambda_5df02c53a8f32f81fd64e5bbb78039f1>@@AEAV<lambda_2af78c5f5901b1372d98f9ab3177dfa6>@@AEAV<lambda_f51fe5fd7c79a33db34fc9310f277369>@@@Z@4HA 000000018004204c     libucrt:wsetlocale.obj
 0004:00002058       $pdata$__acrt_initialize_lowio$fin$0 0000000180042058     libucrt:ioinit.obj
 0004:00002058       $pdata$__acrt_lowio_ensure_fh_exists$fin$0 0000000180042058     libucrt:osfinfo.obj
 0004:00002064       $pdata$_ctrlfp$filt$0      0000000180042064     libucrt:fpctrl.obj
 0004:00002064       $pdata$common_control87$filt$0 0000000180042064     libucrt:ieee.obj
 0004:00002070       $pdata$__acrt_update_thread_multibyte_data$fin$0 0000000180042070     libucrt:mbctype.obj
 0004:0000207c       $pdata$__acrt_update_thread_locale_data$fin$0 000000018004207c     libucrt:locale_refcounting.obj
 0004:0000207c       $pdata$__acrt_uninitialize_locale$fin$0 000000018004207c     libucrt:wsetlocale.obj
 0004:00002088       $pdata$_fcloseall$fin$0    0000000180042088     libucrt:closeall.obj
 0004:00002094       $pdata$common_flush_all$fin$0 0000000180042094     libucrt:fflush.obj
 0004:000020a0       $pdata$common_flush_all$fin$1 00000001800420a0     libucrt:fflush.obj
 0004:000020ac       $pdata$_write$fin$0        00000001800420ac     libucrt:write.obj
 0004:000020b8       $pdata$fclose$fin$0        00000001800420b8     libucrt:fclose.obj
 0004:000020c4       $pdata$?fin$0@?0???$?RV<lambda_bfedae4ebbf01fab1bb6dcc6a9e276e0>@@AEAV<lambda_2fe9b910cf3cbf4a0ab98a02ba45b3ec>@@V<lambda_237c231691f317818eb88cc1d5d642d6>@@@?$__crt_seh_guarded_call@H@@QEAAH$$QEAV<lambda_bfedae4ebbf01fab1bb6dcc6a9e276e0>@@AEAV<lambda_2fe9b910cf3cbf4a0ab98a02ba45b3ec>@@$$QEAV<lambda_237c231691f317818eb88cc1d5d642d6>@@@Z@4HA 00000001800420c4     libucrt:close.obj
 0004:000020c4       $pdata$?fin$0@?0???$?RV<lambda_b521505b218e5242e90febf6bfebc422>@@AEAV<lambda_6978c1fb23f02e42e1d9e99668cc68aa>@@V<lambda_314360699dd331753a4119843814e9a7>@@@?$__crt_seh_guarded_call@H@@QEAAH$$QEAV<lambda_b521505b218e5242e90febf6bfebc422>@@AEAV<lambda_6978c1fb23f02e42e1d9e99668cc68aa>@@$$QEAV<lambda_314360699dd331753a4119843814e9a7>@@@Z@4HA 00000001800420c4     libucrt:commit.obj
 0004:000020d0       $pdata$_IsNonwritableInCurrentImage$filt$0 00000001800420d0     LIBCMT:pesect.obj
 0004:000020dc       $pdata$??__Fresult@?1??getStatusMap@?A0xcb87c0d3@@YAAEBV?$map@V?$basic_string@DU?$char_traits@D@std@@V?$allocator@D@2@@std@@KU?$less@V?$basic_string@DU?$char_traits@D@std@@V?$allocator@D@2@@std@@@2@V?$allocator@U?$pair@$$CBV?$basic_string@DU?$char_traits@D@std@@V?$allocator@D@2@@std@@K@std@@@2@@std@@XZ@YAXXZ 00000001800420dc     node_printer_win.obj
 0004:000020e8       $pdata$??__Fresult@?1??getJobStatusMap@?A0xcb87c0d3@@YAAEBV?$map@V?$basic_string@DU?$char_traits@D@std@@V?$allocator@D@2@@std@@KU?$less@V?$basic_string@DU?$char_traits@D@std@@V?$allocator@D@2@@std@@@2@V?$allocator@U?$pair@$$CBV?$basic_string@DU?$char_traits@D@std@@V?$allocator@D@2@@std@@K@std@@@2@@std@@XZ@YAXXZ 00000001800420e8     node_printer_win.obj
 0004:000020f4       $pdata$??__Fresult@?1??getAttributeMap@?A0xcb87c0d3@@YAAEBV?$map@V?$basic_string@DU?$char_traits@D@std@@V?$allocator@D@2@@std@@KU?$less@V?$basic_string@DU?$char_traits@D@std@@V?$allocator@D@2@@std@@@2@V?$allocator@U?$pair@$$CBV?$basic_string@DU?$char_traits@D@std@@V?$allocator@D@2@@std@@K@std@@@2@@std@@XZ@YAXXZ 00000001800420f4     node_printer_win.obj
 0004:00002100       $pdata$??__Fresult@?1??getJobCommandMap@?A0xcb87c0d3@@YAAEBV?$map@V?$basic_string@DU?$char_traits@D@std@@V?$allocator@D@2@@std@@KU?$less@V?$basic_string@DU?$char_traits@D@std@@V?$allocator@D@2@@std@@@2@V?$allocator@U?$pair@$$CBV?$basic_string@DU?$char_traits@D@std@@V?$allocator@D@2@@std@@K@std@@@2@@std@@XZ@YAXXZ 0000000180042100     node_printer_win.obj
 0004:0000210c       $pdata$??__F_Fac_tidy_reg@std@@YAXXZ 000000018004210c     libcpmt:locale0.obj
 0004:00002118       $pdata$??__Fclassic_locale@std@@YAXXZ 0000000180042118     libcpmt:locale0.obj
 0004:00002124       $pdata$??__Finit_atexit@@YAXXZ 0000000180042124     libcpmt:iosptrs.obj
 0005:00000000       __guard_fids__             0000000180043000     libucrt:initialization.obj
 0005:00000060       __guard_fids___acrt_initialize_ptd 0000000180043060     libucrt:per_thread_data.obj
 0005:00000064       __guard_fids__             0000000180043064     libucrt:wsetlocale.obj
 0005:0000007c       __guard_fids_??$?RV<lambda_630b2aca97f6d20d5b5ea6529ea6b6af>@@AEAV<lambda_af91936f1d075d609f72d9d8cba980af>@@V<lambda_e82fa975f615b5c7c7b0e4d178fdae67>@@@?$__crt_seh_guarded_call@H@@QEAAH$$QEAV<lambda_630b2aca97f6d20d5b5ea6529ea6b6af>@@AEAV<lambda_af91936f1d075d609f72d9d8cba980af>@@$$QEAV<lambda_e82fa975f615b5c7c7b0e4d178fdae67>@@@Z 000000018004307c     libucrt:winapi_thunks.obj
 0005:00000080       __guard_fids_??$expand_argument_wildcards@D@@YAHQEAD0AEAV?$argument_list@D@?A0xca0879c4@@@Z 0000000180043080     libucrt:argv_wildcards.obj
 0005:00000084       __guard_fids__             0000000180043084     libucrt:stdio_initializer.obj
 0005:00000088       __guard_fids__             0000000180043088     libucrt:stdio_initializer.obj
 0005:0000008c       __guard_fids__             000000018004308c     libucrt:locale_initializer.obj
 0005:00000090       __guard_fids_GetLocaleNameFromLangCountry 0000000180043090     libucrt:get_qualified_locale.obj
 0005:00000094       __guard_fids_GetLocaleNameFromLanguage 0000000180043094     libucrt:get_qualified_locale.obj
 0005:00000098       __guard_fids___acrt_get_qualified_locale_downlevel 0000000180043098     libucrt:getqloc_downlevel.obj
 0005:0000009c       __guard_fids_GetLcidFromLangCountry 000000018004309c     libucrt:getqloc_downlevel.obj
 0005:000000a0       __guard_fids_GetLcidFromLanguage 00000001800430a0     libucrt:getqloc_downlevel.obj
 0005:000000a4       __guard_fids__             00000001800430a4     libucrt:fma3_initializer.obj
 0005:000000a8       __guard_fids__             00000001800430a8     libucrt:timeset_initializer.obj
 0005:000000ac       __guard_fids__             00000001800430ac     libucrt:multibyte_initializer.obj
 0005:000000b0       __guard_fids__             00000001800430b0     libucrt:console_output_initializer.obj
 0005:000000b4       __guard_fids__             00000001800430b4     libcpmt:xthrow.obj
 0005:000000bc       __guard_fids__             00000001800430bc     libcpmt:xthrow.obj
 0005:000000c4       __guard_fids__             00000001800430c4     libcpmt:xthrow.obj
 0005:000000cc       __guard_fids__             00000001800430cc     libcpmt:xthrow.obj
 0005:000000d4       __guard_fids__             00000001800430d4     libcpmt:xthrow.obj
 0005:000000dc       __guard_fids__             00000001800430dc     libcpmt:xthrow.obj
 0005:000000e4       __guard_fids_??__Einitlocks@std@@YAXXZ 00000001800430e4     libcpmt:xlock.obj
 0005:000000e8       __guard_fids__             00000001800430e8     libcpmt:xlock.obj
 0005:000000ec       __guard_fids_??__E_Fac_tidy_reg@std@@YAXXZ 00000001800430ec     libcpmt:locale0.obj
 0005:000000f0       __guard_fids_?_Setgloballocale@locale@std@@CAXPEAX@Z 00000001800430f0     libcpmt:locale0.obj
 0005:000000f4       __guard_fids_??__Eclassic_locale@std@@YAXXZ 00000001800430f4     libcpmt:locale0.obj
 0005:000000f8       __guard_fids__             00000001800430f8     libcpmt:locale0.obj
 0005:00000104       __guard_fids__             0000000180043104     libcpmt:locale0.obj
 0005:00000110       __guard_fids__             0000000180043110     libcpmt:locale0.obj
 0005:00000114       __guard_fids__             0000000180043114     libcpmt:locale0.obj
 0005:00000118       __guard_fids_??__Einitlocks@std@@YAXXZ 0000000180043118     libcpmt:iosptrs.obj
 0005:0000011c       __guard_fids_??__Einit_atexit@@YAXXZ 000000018004311c     libcpmt:iosptrs.obj
 0005:00000120       __guard_fids__             0000000180043120     libcpmt:iosptrs.obj
 0005:00000124       __guard_fids__             0000000180043124     libcpmt:iosptrs.obj
 0005:00000128       __guard_fids__             0000000180043128     libcpmt:locale.obj
 0005:00000154       __guard_fids__             0000000180043154     libcpmt:locale.obj
 0005:00000180       __guard_fids__             0000000180043180     libcpmt:locale.obj
 0005:000001a0       __guard_fids__             00000001800431a0     libcpmt:winapisupp.obj
 0005:000001a4       __guard_fids__             00000001800431a4     LIBCMT:thread_safe_statics.obj
 0005:000001a8       __guard_fids_?__scrt_initialize_thread_safe_statics@@YAHXZ 00000001800431a8     LIBCMT:thread_safe_statics.obj
 0005:000001ac       __guard_fids_?dllmain_crt_process_attach@@YAHQEAUHINSTANCE__@@QEAX@Z 00000001800431ac     LIBCMT:dll_dllmain.obj
 0005:000001b4       __guard_fids_?dllmain_dispatch@@YAHQEAUHINSTANCE__@@KQEAX@Z 00000001800431b4     LIBCMT:dll_dllmain.obj
 0005:000001b8       __guard_fids__             00000001800431b8     LIBCMT:std_type_info_static.obj
 0005:000001bc       __guard_fids__             00000001800431bc     LIBCMT:throw_bad_alloc.obj
 0005:000001c4       __guard_fids__             00000001800431c4     LIBCMT:guard_support.obj
 0005:000001c8       __guard_fids__             00000001800431c8     libvcruntime:frame.obj
 0005:000001cc       __guard_fids__             00000001800431cc     libvcruntime:frame.obj
 0005:000001d4       __guard_fids__UnwindNestedFrames 00000001800431d4     libvcruntime:trnsctrl.obj
 0005:000001d8       __guard_fids___vcrt_initialize_ptd 00000001800431d8     libvcruntime:per_thread_data.obj
 0007:00000060       $R000000                   0000000180045060     * linker generated manifest res *

 Exports

  ordinal    name

        1    _register_node_printer_
